
 Start         Length     Name                   Class
 0001:00401000 0005EBF8H .text                   CODE
 0002:00460000 00000540H .itext                  ICODE
 0003:00461000 00001E28H .data                   DATA
 0004:00463000 000055E0H .bss                    BSS
 0005:00000000 00000000H .tls                    TLS


Detailed map of segments

 0001:00000000 00005949 C=CODE     S=.text    G=(none)   M=System   ACBP=A9
 0001:0000594C 000001A2 C=CODE     S=.text    G=(none)   M=SysInit  ACBP=A9
 0001:00005AF0 00000214 C=CODE     S=.text    G=(none)   M=Windows  ACBP=A9
 0001:00005D04 0000146E C=CODE     S=.text    G=(none)   M=FastMM4  ACBP=A9
 0001:00007174 00000318 C=CODE     S=.text    G=(none)   M=SysConst ACBP=A9
 0001:0000748C 00007751 C=CODE     S=.text    G=(none)   M=SysUtils ACBP=A9
 0001:0000EBE0 0000089A C=CODE     S=.text    G=(none)   M=VarUtils ACBP=A9
 0001:0000F47C 00007538 C=CODE     S=.text    G=(none)   M=Variants ACBP=A9
 0001:000169B4 00000052 C=CODE     S=.text    G=(none)   M=ActiveX  ACBP=A9
 0001:00016A08 00000098 C=CODE     S=.text    G=(none)   M=RTLConsts ACBP=A9
 0001:00016AA0 00001E13 C=CODE     S=.text    G=(none)   M=TypInfo  ACBP=A9
 0001:000188B4 0000425D C=CODE     S=.text    G=(none)   M=Classes  ACBP=A9
 0001:0001CB14 00000020 C=CODE     S=.text    G=(none)   M=DBConsts ACBP=A9
 0001:0001CB34 00000370 C=CODE     S=.text    G=(none)   M=DateUtils ACBP=A9
 0001:0001CEA4 000011F6 C=CODE     S=.text    G=(none)   M=SqlTimSt ACBP=A9
 0001:0001E09C 0000008A C=CODE     S=.text    G=(none)   M=WideStrUtils ACBP=A9
 0001:0001E128 00000066 C=CODE     S=.text    G=(none)   M=WideStrings ACBP=A9
 0001:0001E190 00004C56 C=CODE     S=.text    G=(none)   M=FMTBcd   ACBP=A9
 0001:00022DE8 00000020 C=CODE     S=.text    G=(none)   M=ComConst ACBP=A9
 0001:00022E08 00000F83 C=CODE     S=.text    G=(none)   M=ComObj   ACBP=A9
 0001:00023D8C 000004F5 C=CODE     S=.text    G=(none)   M=DB       ACBP=A9
 0001:00024284 0000004E C=CODE     S=.text    G=(none)   M=DSIntf   ACBP=A9
 0001:000242D4 000001AE C=CODE     S=.text    G=(none)   M=DBXpress ACBP=A9
 0001:00024484 000007F3 C=CODE     S=.text    G=(none)   M=DbxOpenOdbcInterface ACBP=A9
 0001:00024C78 000001A2 C=CODE     S=.text    G=(none)   M=SyncObjs ACBP=A9
 0001:00024E1C 0000005D C=CODE     S=.text    G=(none)   M=IniFiles ACBP=A9
 0001:00024E7C 0000069D C=CODE     S=.text    G=(none)   M=Registry ACBP=A9
 0001:0002551C 0000A2AA C=CODE     S=.text    G=(none)   M=OdbcApi  ACBP=A9
 0001:0002F7C8 000048D6 C=CODE     S=.text    G=(none)   M=RegExpr  ACBP=A9
 0001:000340A0 00000E8C C=CODE     S=.text    G=(none)   M=DbxObjectParser ACBP=A9
 0001:00034F2C 000000DE C=CODE     S=.text    G=(none)   M=DbxOpenOdbcASA ACBP=A9
 0001:0003500C 000000E8 C=CODE     S=.text    G=(none)   M=SqlConst ACBP=A9
 0001:000350F4 00002518 C=CODE     S=.text    G=(none)   M=SqlExpr  ACBP=A9
 0001:0003760C 00003A7E C=CODE     S=.text    G=(none)   M=DbxOpenOdbc3 ACBP=A9
 0001:0003B08C 000239C2 C=CODE     S=.text    G=(none)   M=DbxOpenOdbc ACBP=A9
 0001:0005EA50 000001A8 C=CODE     S=.text    G=(none)   M=dbxoodbc ACBP=A9
 0002:00000000 00000095 C=ICODE    S=.itext   G=(none)   M=System   ACBP=A9
 0002:00000098 00000015 C=ICODE    S=.itext   G=(none)   M=Windows  ACBP=A9
 0002:000000B0 0000001D C=ICODE    S=.itext   G=(none)   M=FastMM4  ACBP=A9
 0002:000000D0 00000088 C=ICODE    S=.itext   G=(none)   M=SysUtils ACBP=A9
 0002:00000158 00000013 C=ICODE    S=.itext   G=(none)   M=VarUtils ACBP=A9
 0002:0000016C 000000AA C=ICODE    S=.itext   G=(none)   M=Variants ACBP=A9
 0002:00000218 00000008 C=ICODE    S=.itext   G=(none)   M=TypInfo  ACBP=A9
 0002:00000220 00000092 C=ICODE    S=.itext   G=(none)   M=Classes  ACBP=A9
 0002:000002B4 0000001F C=ICODE    S=.itext   G=(none)   M=SqlTimSt ACBP=A9
 0002:000002D4 00000013 C=ICODE    S=.itext   G=(none)   M=WideStrings ACBP=A9
 0002:000002E8 0000001F C=ICODE    S=.itext   G=(none)   M=FMTBcd   ACBP=A9
 0002:00000308 00000059 C=ICODE    S=.itext   G=(none)   M=ComObj   ACBP=A9
 0002:00000364 0000008C C=ICODE    S=.itext   G=(none)   M=DB       ACBP=A9
 0002:000003F0 00000018 C=ICODE    S=.itext   G=(none)   M=DSIntf   ACBP=A9
 0002:00000408 00000032 C=ICODE    S=.itext   G=(none)   M=DbxOpenOdbcInterface ACBP=A9
 0002:0000043C 00000008 C=ICODE    S=.itext   G=(none)   M=IniFiles ACBP=A9
 0002:00000444 00000008 C=ICODE    S=.itext   G=(none)   M=Registry ACBP=A9
 0002:0000044C 00000020 C=ICODE    S=.itext   G=(none)   M=OdbcApi  ACBP=A9
 0002:0000046C 00000008 C=ICODE    S=.itext   G=(none)   M=RegExpr  ACBP=A9
 0002:00000474 00000008 C=ICODE    S=.itext   G=(none)   M=DbxObjectParser ACBP=A9
 0002:0000047C 00000020 C=ICODE    S=.itext   G=(none)   M=DbxOpenOdbcASA ACBP=A9
 0002:0000049C 00000014 C=ICODE    S=.itext   G=(none)   M=SqlExpr  ACBP=A9
 0002:000004B0 0000004D C=ICODE    S=.itext   G=(none)   M=DbxOpenOdbc3 ACBP=A9
 0002:00000500 00000025 C=ICODE    S=.itext   G=(none)   M=DbxOpenOdbc ACBP=A9
 0002:00000528 00000015 C=ICODE    S=.itext   G=(none)   M=dbxoodbc ACBP=A9
 0003:00000000 00000788 C=DATA     S=.data    G=DGROUP   M=System   ACBP=A9
 0003:00000788 00000030 C=DATA     S=.data    G=DGROUP   M=SysInit  ACBP=A9
 0003:000007B8 000006E4 C=DATA     S=.data    G=DGROUP   M=FastMM4  ACBP=A9
 0003:00000E9C 0000024C C=DATA     S=.data    G=DGROUP   M=SysUtils ACBP=A9
 0003:000010E8 00000110 C=DATA     S=.data    G=DGROUP   M=VarUtils ACBP=A9
 0003:000011F8 00000092 C=DATA     S=.data    G=DGROUP   M=Variants ACBP=A9
 0003:0000128C 00000010 C=DATA     S=.data    G=DGROUP   M=ActiveX  ACBP=A9
 0003:0000129C 0000000C C=DATA     S=.data    G=DGROUP   M=TypInfo  ACBP=A9
 0003:000012A8 00000004 C=DATA     S=.data    G=DGROUP   M=Classes  ACBP=A9
 0003:000012AC 0000003C C=DATA     S=.data    G=DGROUP   M=SqlTimSt ACBP=A9
 0003:000012E8 00000120 C=DATA     S=.data    G=DGROUP   M=FMTBcd   ACBP=A9
 0003:00001408 00000030 C=DATA     S=.data    G=DGROUP   M=ComObj   ACBP=A9
 0003:00001438 000000A8 C=DATA     S=.data    G=DGROUP   M=DB       ACBP=A9
 0003:000014E0 00000004 C=DATA     S=.data    G=DGROUP   M=DSIntf   ACBP=A9
 0003:000014E4 00000134 C=DATA     S=.data    G=DGROUP   M=DbxOpenOdbcInterface ACBP=A9
 0003:00001618 00000008 C=DATA     S=.data    G=DGROUP   M=IniFiles ACBP=A9
 0003:00001620 00000008 C=DATA     S=.data    G=DGROUP   M=Registry ACBP=A9
 0003:00001628 0000003D C=DATA     S=.data    G=DGROUP   M=RegExpr  ACBP=A9
 0003:00001668 00000134 C=DATA     S=.data    G=DGROUP   M=DbxObjectParser ACBP=A9
 0003:0000179C 00000008 C=DATA     S=.data    G=DGROUP   M=DbxOpenOdbcASA ACBP=A9
 0003:000017A4 00000080 C=DATA     S=.data    G=DGROUP   M=SqlExpr  ACBP=A9
 0003:00001824 00000004 C=DATA     S=.data    G=DGROUP   M=DbxOpenOdbc3 ACBP=A9
 0003:00001828 000002B8 C=DATA     S=.data    G=DGROUP   M=DbxOpenOdbc ACBP=A9
 0004:00000000 000027F4 C=BSS      S=.bss     G=DGROUP   M=System   ACBP=A9
 0004:000027F4 00000010 C=BSS      S=.bss     G=DGROUP   M=SysInit  ACBP=A9
 0004:00002804 00000008 C=BSS      S=.bss     G=DGROUP   M=Windows  ACBP=A9
 0004:0000280C 00002233 C=BSS      S=.bss     G=DGROUP   M=FastMM4  ACBP=A9
 0004:00004A40 00000A20 C=BSS      S=.bss     G=DGROUP   M=SysUtils ACBP=A9
 0004:00005460 0000005C C=BSS      S=.bss     G=DGROUP   M=VarUtils ACBP=A9
 0004:000054BC 00000040 C=BSS      S=.bss     G=DGROUP   M=Variants ACBP=A9
 0004:000054FC 00000004 C=BSS      S=.bss     G=DGROUP   M=TypInfo  ACBP=A9
 0004:00005500 00000034 C=BSS      S=.bss     G=DGROUP   M=Classes  ACBP=A9
 0004:00005534 00000004 C=BSS      S=.bss     G=DGROUP   M=SqlTimSt ACBP=A9
 0004:00005538 00000008 C=BSS      S=.bss     G=DGROUP   M=WideStrings ACBP=A9
 0004:00005540 00000004 C=BSS      S=.bss     G=DGROUP   M=FMTBcd   ACBP=A9
 0004:00005544 00000011 C=BSS      S=.bss     G=DGROUP   M=ComObj   ACBP=A9
 0004:00005558 0000000C C=BSS      S=.bss     G=DGROUP   M=DB       ACBP=A9
 0004:00005564 0000001C C=BSS      S=.bss     G=DGROUP   M=DSIntf   ACBP=A9
 0004:00005580 00000014 C=BSS      S=.bss     G=DGROUP   M=DbxOpenOdbcInterface ACBP=A9
 0004:00005594 00000004 C=BSS      S=.bss     G=DGROUP   M=IniFiles ACBP=A9
 0004:00005598 00000004 C=BSS      S=.bss     G=DGROUP   M=Registry ACBP=A9
 0004:0000559C 00000008 C=BSS      S=.bss     G=DGROUP   M=OdbcApi  ACBP=A9
 0004:000055A4 00000004 C=BSS      S=.bss     G=DGROUP   M=RegExpr  ACBP=A9
 0004:000055A8 00000004 C=BSS      S=.bss     G=DGROUP   M=DbxObjectParser ACBP=A9
 0004:000055AC 00000008 C=BSS      S=.bss     G=DGROUP   M=DbxOpenOdbcASA ACBP=A9
 0004:000055B4 00000004 C=BSS      S=.bss     G=DGROUP   M=SqlExpr  ACBP=A9
 0004:000055B8 00000024 C=BSS      S=.bss     G=DGROUP   M=DbxOpenOdbc3 ACBP=A9
 0004:000055DC 00000004 C=BSS      S=.bss     G=DGROUP   M=DbxOpenOdbc ACBP=A9
 0005:00000000 00000008 C=TLS      S=.tls     G=(none)   M=System   ACBP=A9
 0005:00000008 00000004 C=TLS      S=.tls     G=(none)   M=Classes  ACBP=A9
 0005:0000000C 00000008 C=TLS      S=.tls     G=(none)   M=SqlExpr  ACBP=A9


  Address             Publics by Name

 0001:000169E8       ActiveX.CoInitialize
 0001:000169F0       ActiveX.CoUninitialize
 0001:00016A00       ActiveX.GetErrorInfo
 0003:0000128C       ActiveX.GUID_NULL
 0001:000169F8       ActiveX.SysFreeString
 0004:00005508       Classes..95
 0001:00018970       Classes..EFCreateError
 0001:00018A24       Classes..EFilerError
 0001:00018910       Classes..EFileStreamError
 0001:000189CC       Classes..EFOpenError
 0001:00018B2C       Classes..EListError
 0001:00018A7C       Classes..EReadError
 0001:000188B4       Classes..EStreamError
 0001:00018B84       Classes..EStringListError
 0001:00018AD4       Classes..EWriteError
 0001:000190AC       Classes..TFileStream
 0001:00019034       Classes..THandleStream
 0001:00018BE4       Classes..TList
 0001:00018CA0       Classes..TPersistent
 0001:00019134       Classes..TRegGroup
 0001:0001918C       Classes..TRegGroups
 0001:00018FC4       Classes..TStream
 0001:00018EAC       Classes..TStringList
 0001:00018D74       Classes..TStrings
 0001:00018C48       Classes..TThreadList
 0002:00000220       Classes.Classes
 0001:0001C9B8       Classes.DoneThreadSynchronization
 0001:0001A00C       Classes.DoWrite
 0001:0001CA64       Classes.Finalization
 0004:00005514       Classes.FindGlobalComponentProcs
 0001:0001C9D4       Classes.FreeIntConstList
 0004:00005518       Classes.GlobalFixupList
 0005:00000008       Classes.GlobalLists
 0004:00005500       Classes.GlobalNameSpace
 0001:0001C980       Classes.InitThreadSynchronization
 0004:0000550C       Classes.IntConstList
 0001:0001CA50       Classes.ModuleUnload
 0001:0001929C       Classes.PointerInModule
 0001:0001C09C       Classes.PropValueError
 0001:0001BA3C       Classes.RaiseException
 0001:0001C07C       Classes.ReadError
 0004:00005510       Classes.RegGroups
 0001:0001BF2C       Classes.RemoveFixupReferences
 0001:0001BFE8       Classes.RemoveFixups
 0001:000196F4       Classes.ReturnAddr
 0001:0001A190       Classes.ReturnAddr
 0001:0001C48C       Classes.SkipBinary
 0001:0001C4C0       Classes.SkipCollection
 0001:0001C460       Classes.SkipList
 0001:0001B7D4       Classes.StringListCompareStrings
 0004:00005504       Classes.SyncEvent
 0003:000012A8       Classes.SyncList
 0001:0001BD10       Classes.TFileStream.Create
 0001:0001BD60       Classes.TFileStream.Create
 0001:0001BEE4       Classes.TFileStream.Destroy
 0001:0001BBCC       Classes.THandleStream.Create
 0001:0001BC1C       Classes.THandleStream.Read
 0001:0001BC8C       Classes.THandleStream.Seek
 0001:0001BCC0       Classes.THandleStream.SetSize
 0001:0001BCE0       Classes.THandleStream.SetSize
 0001:0001BC54       Classes.THandleStream.Write
 0004:0000551C       Classes.ThreadLock
 0001:000195E8       Classes.TList.Add
 0001:00019640       Classes.TList.Clear
 0001:00019660       Classes.TList.Delete
 0001:000195BC       Classes.TList.Destroy
 0001:0001973C       Classes.TList.Error
 0001:000196FC       Classes.TList.Error
 0001:0001979C       Classes.TList.Get
 0001:000197E4       Classes.TList.Grow
 0001:0001983C       Classes.TList.IndexOf
 0001:00019A50       Classes.TList.Notify
 0001:00019888       Classes.TList.Put
 0001:00019918       Classes.TList.Remove
 0001:0001994C       Classes.TList.SetCapacity
 0001:000199A8       Classes.TList.SetCount
 0001:00019BC4       Classes.TPersistent.Assign
 0001:00019BF0       Classes.TPersistent.AssignError
 0001:00019CC8       Classes.TPersistent.AssignTo
 0001:00019CE4       Classes.TPersistent.DefineProperties
 0001:00019B88       Classes.TPersistent.Destroy
 0001:00019CF4       Classes.TPersistent.GetNamePath
 0001:00019DAC       Classes.TPersistent.GetOwner
 0001:0001C0AC       Classes.TReader.CheckValue
 0001:0001C0DC       Classes.TReader.EndOfList
 0001:0001C100       Classes.TReader.NextValue
 0001:0001C124       Classes.TReader.Read
 0001:0001C170       Classes.TReader.ReadBuffer
 0001:0001C1C4       Classes.TReader.ReadListBegin
 0001:0001C1D8       Classes.TReader.ReadListEnd
 0001:0001C1EC       Classes.TReader.ReadStr
 0001:0001C234       Classes.TReader.ReadString
 0001:0001C3F0       Classes.TReader.ReadValue
 0001:0001C2F8       Classes.TReader.ReadWideString
 0001:0001C734       Classes.TReader.SkipBytes
 0001:0001C6E4       Classes.TReader.SkipProperty
 0001:0001C410       Classes.TReader.SkipSetBody
 0001:0001C534       Classes.TReader.SkipValue
 0001:000191E4       Classes.TRegGroup.Create
 0001:00019248       Classes.TRegGroup.Destroy
 0001:000192CC       Classes.TRegGroup.UnregisterModuleClasses
 0001:000193BC       Classes.TRegGroups.Create
 0001:00019448       Classes.TRegGroups.Destroy
 0001:000194D0       Classes.TRegGroups.Lock
 0001:000194E8       Classes.TRegGroups.Unlock
 0001:00019500       Classes.TRegGroups.UnregisterModuleClasses
 0001:0001B960       Classes.TStream.GetPosition
 0001:0001B988       Classes.TStream.GetSize
 0001:0001BA88       Classes.TStream.Seek
 0001:0001BB14       Classes.TStream.Seek
 0001:0001B9D4       Classes.TStream.SetSize
 0001:0001B9E4       Classes.TStream.SetSize
 0001:0001BB84       Classes.TStream.WriteBuffer
 0001:0001AFCC       Classes.TStringList.Add
 0001:0001AFF4       Classes.TStringList.AddObject
 0001:0001B06C       Classes.TStringList.Changed
 0001:0001B098       Classes.TStringList.Changing
 0001:0001B0C4       Classes.TStringList.Clear
 0001:0001B87C       Classes.TStringList.CompareStrings
 0001:0001B82C       Classes.TStringList.CustomSort
 0001:0001B118       Classes.TStringList.Delete
 0001:0001AF50       Classes.TStringList.Destroy
 0001:0001B1B8       Classes.TStringList.Exchange
 0001:0001B234       Classes.TStringList.ExchangeItems
 0001:0001B2A0       Classes.TStringList.Find
 0001:0001B338       Classes.TStringList.Get
 0001:0001B384       Classes.TStringList.GetCapacity
 0001:0001B3A0       Classes.TStringList.GetCount
 0001:0001B3BC       Classes.TStringList.GetObject
 0001:0001B404       Classes.TStringList.Grow
 0001:0001B45C       Classes.TStringList.IndexOf
 0001:0001B4A8       Classes.TStringList.Insert
 0001:0001B538       Classes.TStringList.InsertItem
 0001:0001B4D0       Classes.TStringList.InsertObject
 0001:0001B5E0       Classes.TStringList.Put
 0001:0001B658       Classes.TStringList.PutObject
 0001:0001B6B4       Classes.TStringList.QuickSort
 0001:0001B778       Classes.TStringList.SetCapacity
 0001:0001B7A4       Classes.TStringList.SetUpdateState
 0001:0001B810       Classes.TStringList.Sort
 0001:00019E00       Classes.TStrings.Add
 0001:00019E30       Classes.TStrings.AddObject
 0001:00019E64       Classes.TStrings.AddStrings
 0001:00019F24       Classes.TStrings.Assign
 0001:00019FE8       Classes.TStrings.BeginUpdate
 0001:0001AE78       Classes.TStrings.CompareStrings
 0001:0001A06C       Classes.TStrings.DefineProperties
 0001:00019DC4       Classes.TStrings.Destroy
 0001:0001A0B8       Classes.TStrings.EndUpdate
 0001:0001A0DC       Classes.TStrings.Equals
 0001:0001A198       Classes.TStrings.Error
 0001:0001A1D8       Classes.TStrings.Error
 0001:0001A238       Classes.TStrings.Exchange
 0001:0001A324       Classes.TStrings.GetCapacity
 0001:0001ADF8       Classes.TStrings.GetLineBreak
 0001:0001AEF0       Classes.TStrings.GetNameValueSeparator
 0001:0001A340       Classes.TStrings.GetObject
 0001:0001A358       Classes.TStrings.GetText
 0001:0001A3B4       Classes.TStrings.GetTextStr
 0001:0001A540       Classes.TStrings.IndexOf
 0001:0001A5CC       Classes.TStrings.IndexOfName
 0001:0001A6A8       Classes.TStrings.IndexOfObject
 0001:0001A6F4       Classes.TStrings.InsertObject
 0001:0001A728       Classes.TStrings.LoadFromFile
 0001:0001A784       Classes.TStrings.LoadFromStream
 0001:0001A838       Classes.TStrings.Move
 0001:0001A8F4       Classes.TStrings.Put
 0001:0001A934       Classes.TStrings.PutObject
 0001:0001A948       Classes.TStrings.ReadData
 0001:0001A9F8       Classes.TStrings.SaveToFile
 0001:0001AA58       Classes.TStrings.SaveToStream
 0001:0001AAC8       Classes.TStrings.SetCapacity
 0001:0001AE38       Classes.TStrings.SetLineBreak
 0001:0001AF1C       Classes.TStrings.SetNameValueSeparator
 0001:0001AAD8       Classes.TStrings.SetStringsAdapter
 0001:0001AB24       Classes.TStrings.SetText
 0001:0001AB7C       Classes.TStrings.SetTextStr
 0001:0001AD5C       Classes.TStrings.SetUpdateState
 0001:0001AD6C       Classes.TStrings.WriteData
 0001:00019A64       Classes.TThreadList.Create
 0001:00019ACC       Classes.TThreadList.Destroy
 0001:00019B48       Classes.TThreadList.LockList
 0001:00019B70       Classes.TThreadList.UnlockList
 0001:0001C790       Classes.TWriter.Write
 0001:0001C7DC       Classes.TWriter.WriteBuffer
 0001:0001C808       Classes.TWriter.WriteListBegin
 0001:0001C81C       Classes.TWriter.WriteListEnd
 0001:0001C830       Classes.TWriter.WriteMinStr
 0001:0001C904       Classes.TWriter.WriteString
 0001:0001C960       Classes.TWriter.WriteValue
 0001:0001956C       Classes.UnRegisterModuleClasses
 0004:00005544       ComObj..41
 0001:00022E08       ComObj..EOleError
 0001:00022EBC       ComObj..EOleException
 0001:00022E60       ComObj..EOleSysError
 0001:00023A9C       ComObj.ClearExcepInfo
 0003:00001410       ComObj.CoAddRefServerProcess
 0003:00001408       ComObj.CoCreateInstanceEx
 0003:00001420       ComObj.CoInitFlags
 0003:0000140C       ComObj.CoInitializeEx
 0004:0000554C       ComObj.ComClassManagerVar
 0002:00000308       ComObj.ComObj
 0003:00001414       ComObj.CoReleaseServerProcess
 0003:00001418       ComObj.CoResumeClassObjects
 0003:0000141C       ComObj.CoSuspendClassObjects
 0001:000233C4       ComObj.DispatchInvoke
 0001:00023A78       ComObj.DispatchInvokeError
 0001:00023AB8       ComObj.DispCall
 0001:00023B9C       ComObj.DispCallByID
 0001:00023980       ComObj.DispCallError
 0001:000230BC       ComObj.EOleException.Create
 0001:00022FE0       ComObj.EOleSysError.Create
 0001:00023D0C       ComObj.Finalization
 0001:000237B4       ComObj.GetIDsOfNames
 0001:00023C78       ComObj.InitComObj
 0001:000231A4       ComObj.LoadComExProcs
 0004:00005554       ComObj.NeedToUninitialize
 0001:0002318C       ComObj.OleCheck
 0001:00023168       ComObj.OleError
 0004:00005548       ComObj.OleUninitializing
 0001:000238B8       ComObj.RaiseException
 0001:00023780       ComObj.RaiseNameException
 0001:000232C0       ComObj.SafeCallError
 0004:00005550       ComObj.SaveInitProc
 0003:00001424       ComObj.ThreadStrs
 0001:00022F74       ComObj.TrimPunctuation
 0001:000238D4       ComObj.VarDispInvoke
 0001:0001CB34       DateUtils.DaysInAMonth
 0001:0001CB80       DateUtils.EncodeDateTime
 0001:0001CCE0       DateUtils.InvalidDateTimeError
 0001:0001CC84       DateUtils.Translate
 0001:0001CBF4       DateUtils.TryEncodeDateTime
 0004:00005560       DB..66
 0001:00024128       DB..TDefaultDBScreenApplication
 0002:00000364       DB.DB
 0004:0000555C       DB.DBApplication
 0004:00005558       DB.DBScreen
 0003:00001438       DB.FieldTypeNames
 0001:00024228       DB.Finalization
 0001:000241A4       DB.TDefaultDBScreenApplication.GetCursor
 0001:000241C0       DB.TDefaultDBScreenApplication.GetTitle
 0001:000241E0       DB.TDefaultDBScreenApplication.ProcessMessages
 0001:000241EC       DB.TDefaultDBScreenApplication.SetCursor
 0001:00024208       DB.TDefaultDBScreenApplication.SetTitle
 0004:000055A8       DbxObjectParser..2
 0001:000340F8       DbxObjectParser..TObjectNameParser
 0003:00001724       DbxObjectParser.DbmsObjectNameTemplateInfo
 0002:00000474       DbxObjectParser.DbxObjectParser
 0003:00001668       DbxObjectParser.DefaultMathesIndexes
 0003:00001690       DbxObjectParser.DefaultObjectNameTemplateInfo
 0001:00034ECC       DbxObjectParser.Finalization
 0003:000016B0       DbxObjectParser.InformixMathesIndexes
 0003:000016CC       DbxObjectParser.InformixObjectNameTemplateInfo
 0003:000016EC       DbxObjectParser.TextMathesIndexes
 0003:00001704       DbxObjectParser.TextObjectNameTemplateInfo
 0001:000342B8       DbxObjectParser.TObjectNameParser.Create
 0001:000346A0       DbxObjectParser.TObjectNameParser.DecodeObjectFullName
 0001:00034670       DbxObjectParser.TObjectNameParser.Destroy
 0001:00034B4C       DbxObjectParser.TObjectNameParser.EncodeObjectFullName
 0001:00034E60       DbxObjectParser.TObjectNameParser.GetQuotedObjectName
 0002:00000528       dbxoodbc.dbxoodbc
 0001:0005EA50       dbxoodbc.Finalization
 0004:000055DC       DbxOpenOdbc..03
 0001:0003B144       DbxOpenOdbc..EDbxError
 0001:0003B08C       DbxOpenOdbc..EDbxErrorCustom
 0001:0003B2B4       DbxOpenOdbc..EDbxInternalError
 0001:0003B258       DbxOpenOdbc..EDbxInvalidCall
 0001:0003B314       DbxOpenOdbc..EDbxInvalidParam
 0001:0003B1F8       DbxOpenOdbc..EDbxNotSupported
 0001:0003B19C       DbxOpenOdbc..EDbxOdbcError
 0001:0003B0E8       DbxOpenOdbc..EDbxOdbcWarning
 0001:0003CDDC       DbxOpenOdbc..TBlobChunkCollection
 0001:0003BE64       DbxOpenOdbc..TMetaColumn
 0001:0003BEBC       DbxOpenOdbc..TMetaIndexColumn
 0001:0003BF1C       DbxOpenOdbc..TMetaProcedure
 0001:0003BF78       DbxOpenOdbc..TMetaProcedureParam
 0001:0003BE0C       DbxOpenOdbc..TMetaTable
 0001:0003CE40       DbxOpenOdbc..TOdbcBindCol
 0001:0003CE9C       DbxOpenOdbc..TOdbcBindParam
 0001:0003B9A0       DbxOpenOdbc..TSqlCommandOdbc
 0001:0003B764       DbxOpenOdbc..TSqlConnectionOdbc
 0001:0003C1B0       DbxOpenOdbc..TSqlCursorMetaData
 0001:0003C628       DbxOpenOdbc..TSqlCursorMetaDataColumns
 0001:0003C864       DbxOpenOdbc..TSqlCursorMetaDataIndexes
 0001:0003CCE4       DbxOpenOdbc..TSqlCursorMetaDataProcedureParams
 0001:0003CAA0       DbxOpenOdbc..TSqlCursorMetaDataProcedures
 0001:0003C3E8       DbxOpenOdbc..TSqlCursorMetaDataTables
 0001:0003BD9C       DbxOpenOdbc..TSqlCursorOdbc
 0001:0003B448       DbxOpenOdbc..TSqlDriverOdbc
 0001:0003BB1C       DbxOpenOdbc..TSQLMetaDataOdbc
 0001:0003E6F4       DbxOpenOdbc.AllocateDbxHStmtNodes
 0001:00052618       DbxOpenOdbc.CalculateBlobFixSize
 0003:00001868       DbxOpenOdbc.cBindMapDateTimeOdbc2
 0003:00001874       DbxOpenOdbc.cBindMapDateTimeOdbc3
 0003:000019A4       DbxOpenOdbc.cBoolOptionSwitches
 0003:00001828       DbxOpenOdbc.cConnectionOptionsDefault
 0003:00001848       DbxOpenOdbc.cConnectionOptionsRestrictions
 0003:00001888       DbxOpenOdbc.cDecimalSeparatorDefault
 0003:00001890       DbxOpenOdbc.cGetOptionExceptionInfos
 0001:000504F8       DbxOpenOdbc.CheckAutoIncSubType
 0001:0003E6CC       DbxOpenOdbc.CheckMaxLines
 0001:0003F7DC       DbxOpenOdbc.ClearNewErrors
 0003:00001880       DbxOpenOdbc.cNullAnsiChar
 0003:00001884       DbxOpenOdbc.cNullWideChar
 0003:000019C8       DbxOpenOdbc.ColumnColumnNames
 0003:00001A00       DbxOpenOdbc.ColumnColumnTypes
 0001:00042874       DbxOpenOdbc.CompactNullConn
 0001:00042B28       DbxOpenOdbc.CompactNullConn
 0002:00000500       DbxOpenOdbc.DbxOpenOdbc
 0001:0004BA2C       DbxOpenOdbc.DoPrepareNow
 0001:0004B944       DbxOpenOdbc.DoReBindParams
 0001:0005E988       DbxOpenOdbc.DoRegisterDbXpressLibA
 0001:0005E994       DbxOpenOdbc.DoRegisterDbXpressLibAW
 0001:00041C88       DbxOpenOdbc.DoRelaseDbxConStmt
 0001:0003D554       DbxOpenOdbc.ExtractCatalog
 0001:0005E9A0       DbxOpenOdbc.Finalization
 0001:0003DDAC       DbxOpenOdbc.FormatParameter
 0001:00048164       DbxOpenOdbc.GetConnectionCustomOptions
 0001:00048320       DbxOpenOdbc.GetDatabaseNameOption
 0001:0003D7C4       DbxOpenOdbc.GetOptionValue
 0001:0003CEF8       DbxOpenOdbc.getSQLDriverODBC
 0001:0003D028       DbxOpenOdbc.getSQLDriverODBCAW
 0001:0003F2F8       DbxOpenOdbc.GetStringOptions
 0001:0004974C       DbxOpenOdbc.GetValueAsAnsiStr
 0001:00042F04       DbxOpenOdbc.HidePassword
 0003:00001A1C       DbxOpenOdbc.IndexColumnNames
 0003:00001A48       DbxOpenOdbc.IndexColumnTypes
 0001:0003F77C       DbxOpenOdbc.IsConnection
 0001:00041884       DbxOpenOdbc.IsFreeDbxConStmt
 0001:0003D120       DbxOpenOdbc.IsRestrictedConnectionOptionValue
 0001:0004D904       DbxOpenOdbc.MakeStoredProcParams
 0001:0003F050       DbxOpenOdbc.MakeStringExceptionFromInfo
 0003:0000188C       DbxOpenOdbc.MaxCount
 0001:00042FFC       DbxOpenOdbc.MergeAndSetConnOptions
 0001:0003DB48       DbxOpenOdbc.OdbcDataTypeToDbxType
 0001:0005254C       DbxOpenOdbc.OptimizeNextChunkSize
 0001:000430D8       DbxOpenOdbc.ParseConnectionOptions
 0003:00001A60       DbxOpenOdbc.ProcedureColumnNames
 0003:00001A7C       DbxOpenOdbc.ProcedureColumnTypes
 0003:00001A8C       DbxOpenOdbc.ProcedureParamColumnNames
 0003:00001AC4       DbxOpenOdbc.ProcedureParamColumnTypes
 0001:0004E148       DbxOpenOdbc.ProcessVarDataLength
 0001:0004978C       DbxOpenOdbc.SetConnectionCustomOptions
 0001:0003D1AC       DbxOpenOdbc.SetConnectionOption
 0001:0004E1D8       DbxOpenOdbc.SetVarData
 0001:0003F88C       DbxOpenOdbc.SQLGetDiagRecLevel2
 0001:0003D61C       DbxOpenOdbc.Str2BCD
 0003:000019A8       DbxOpenOdbc.TableColumnNames
 0003:000019BC       DbxOpenOdbc.TableColumnTypes
 0001:0005E79C       DbxOpenOdbc.TBlobChunkCollection.AddFragment
 0001:0005E7DC       DbxOpenOdbc.TBlobChunkCollection.Clear
 0001:0005E810       DbxOpenOdbc.TBlobChunkCollection.Destroy
 0001:0005E83C       DbxOpenOdbc.TBlobChunkCollection.GetSize
 0001:0005E858       DbxOpenOdbc.TBlobChunkCollection.Read
 0001:0005E8C8       DbxOpenOdbc.TBlobChunkCollection.ReadBlobToStream
 0001:0005E884       DbxOpenOdbc.TBlobChunkCollection.ReadBlobToVariant
 0001:00056DF4       DbxOpenOdbc.TMetaColumn.Create
 0001:00056E78       DbxOpenOdbc.TMetaColumn.Destroy
 0001:00056EC8       DbxOpenOdbc.TMetaIndexColumn.Create
 0001:00056FB4       DbxOpenOdbc.TMetaIndexColumn.Destroy
 0001:00057054       DbxOpenOdbc.TMetaProcedure.Create
 0001:00057118       DbxOpenOdbc.TMetaProcedure.Destroy
 0001:0005717C       DbxOpenOdbc.TMetaProcedureParam.Create
 0001:000571D8       DbxOpenOdbc.TMetaProcedureParam.Destroy
 0001:00056AF4       DbxOpenOdbc.TMetaTable.Create
 0001:00056D74       DbxOpenOdbc.TMetaTable.Destroy
 0001:000569DC       DbxOpenOdbc.TOdbcBindCol.Create
 0001:00056A14       DbxOpenOdbc.TOdbcBindCol.Destroy
 0001:00056A7C       DbxOpenOdbc.TOdbcBindParam.Create
 0001:00056AB8       DbxOpenOdbc.TOdbcBindParam.Destroy
 0001:0004B6D0       DbxOpenOdbc.TSqlCommandOdbc.AddError
 0001:0004B700       DbxOpenOdbc.TSqlCommandOdbc.BuildStoredProcSQL
 0001:0004C624       DbxOpenOdbc.TSqlCommandOdbc.Cancel
 0001:0004B640       DbxOpenOdbc.TSqlCommandOdbc.ClearParams
 0001:0004B6F4       DbxOpenOdbc.TSqlCommandOdbc.close
 0001:0004B500       DbxOpenOdbc.TSqlCommandOdbc.CloseStmt
 0001:0004B2FC       DbxOpenOdbc.TSqlCommandOdbc.Create
 0001:0004B688       DbxOpenOdbc.TSqlCommandOdbc.Destroy
 0001:0004D548       DbxOpenOdbc.TSqlCommandOdbc.DoAllocateParams
 0001:0004B38C       DbxOpenOdbc.TSqlCommandOdbc.DoAllocateStmt
 0001:0004BADC       DbxOpenOdbc.TSqlCommandOdbc.DoExecute
 0001:0004C088       DbxOpenOdbc.TSqlCommandOdbc.DoExecuteImmediate
 0001:0004D5D4       DbxOpenOdbc.TSqlCommandOdbc.DoPrepare
 0001:0004B89C       DbxOpenOdbc.TSqlCommandOdbc.DoSQLMoreResults
 0001:0004C058       DbxOpenOdbc.TSqlCommandOdbc.DoUnprepareStmt
 0001:0004C044       DbxOpenOdbc.TSqlCommandOdbc.execute
 0001:0004C600       DbxOpenOdbc.TSqlCommandOdbc.ExecuteImmediate
 0001:0004C774       DbxOpenOdbc.TSqlCommandOdbc.getErrorMessage
 0001:0004C7EC       DbxOpenOdbc.TSqlCommandOdbc.getErrorMessageLen
 0001:0004C710       DbxOpenOdbc.TSqlCommandOdbc.GetLockTimeout
 0001:0004C858       DbxOpenOdbc.TSqlCommandOdbc.getNextCursor
 0001:0004CA28       DbxOpenOdbc.TSqlCommandOdbc.GetOption
 0001:0004D170       DbxOpenOdbc.TSqlCommandOdbc.getParameter
 0001:0004D530       DbxOpenOdbc.TSqlCommandOdbc.getRowsAffected
 0001:0004D8D4       DbxOpenOdbc.TSqlCommandOdbc.prepare
 0001:0004C674       DbxOpenOdbc.TSqlCommandOdbc.SetLockTimeout
 0001:0004D980       DbxOpenOdbc.TSqlCommandOdbc.SetOption
 0001:0004E2D4       DbxOpenOdbc.TSqlCommandOdbc.setParameter
 0001:00041AC8       DbxOpenOdbc.TSqlConnectionOdbc.AllocHStmt
 0001:0004233C       DbxOpenOdbc.TSqlConnectionOdbc.beginTransaction
 0001:00047578       DbxOpenOdbc.TSqlConnectionOdbc.CheckTransactionSupport
 0001:00042DE0       DbxOpenOdbc.TSqlConnectionOdbc.ClearConnectionOptions
 0001:000412D0       DbxOpenOdbc.TSqlConnectionOdbc.CloneOdbcConnection
 0001:000428E0       DbxOpenOdbc.TSqlConnectionOdbc.commit
 0001:000431B4       DbxOpenOdbc.TSqlConnectionOdbc.connect
 0001:00040F60       DbxOpenOdbc.TSqlConnectionOdbc.Create
 0001:00040FFC       DbxOpenOdbc.TSqlConnectionOdbc.Destroy
 0001:00046DC4       DbxOpenOdbc.TSqlConnectionOdbc.disconnect
 0001:000419F4       DbxOpenOdbc.TSqlConnectionOdbc.FindFreeConnection
 0001:00041F70       DbxOpenOdbc.TSqlConnectionOdbc.FreeHStmt
 0001:000421BC       DbxOpenOdbc.TSqlConnectionOdbc.GetCatalog
 0001:0004B2D8       DbxOpenOdbc.TSqlConnectionOdbc.GetConnectionHandle
 0001:000422CC       DbxOpenOdbc.TSqlConnectionOdbc.GetCurrentCatalog
 0001:000420BC       DbxOpenOdbc.TSqlConnectionOdbc.GetCurrentDbxConStmt
 0001:0004B2A4       DbxOpenOdbc.TSqlConnectionOdbc.GetCursorPreserved
 0001:0004B220       DbxOpenOdbc.TSqlConnectionOdbc.GetDbmsName
 0001:0004B12C       DbxOpenOdbc.TSqlConnectionOdbc.GetDbmsType
 0001:0004B240       DbxOpenOdbc.TSqlConnectionOdbc.GetDbmsVersionBuild
 0001:0004B234       DbxOpenOdbc.TSqlConnectionOdbc.GetDbmsVersionMajor
 0001:0004B238       DbxOpenOdbc.TSqlConnectionOdbc.GetDbmsVersionMinor
 0001:0004B23C       DbxOpenOdbc.TSqlConnectionOdbc.GetDbmsVersionRelease
 0001:0004B244       DbxOpenOdbc.TSqlConnectionOdbc.GetDbmsVersionString
 0001:0004B2F4       DbxOpenOdbc.TSqlConnectionOdbc.GetDecimalSeparator
 0001:0004186C       DbxOpenOdbc.TSqlConnectionOdbc.GetDefaultConnectionOptions
 0001:0004B2D0       DbxOpenOdbc.TSqlConnectionOdbc.GetEnvironmentHandle
 0001:0004749C       DbxOpenOdbc.TSqlConnectionOdbc.getErrorMessage
 0001:00047510       DbxOpenOdbc.TSqlConnectionOdbc.getErrorMessageLen
 0001:0004B2AC       DbxOpenOdbc.TSqlConnectionOdbc.GetIsSystemODBCManager
 0001:0004B218       DbxOpenOdbc.TSqlConnectionOdbc.GetLastOdbcSqlState
 0001:000476D4       DbxOpenOdbc.TSqlConnectionOdbc.GetMetaDataOption
 0001:0004B2DC       DbxOpenOdbc.TSqlConnectionOdbc.GetOdbcApiIntf
 0001:0004B13C       DbxOpenOdbc.TSqlConnectionOdbc.GetOdbcConnectStrings
 0001:0004B2B8       DbxOpenOdbc.TSqlConnectionOdbc.GetOdbcDriverLevel
 0001:0004B258       DbxOpenOdbc.TSqlConnectionOdbc.GetOdbcDriverName
 0001:0004B134       DbxOpenOdbc.TSqlConnectionOdbc.GetOdbcDriverType
 0001:0004B284       DbxOpenOdbc.TSqlConnectionOdbc.GetOdbcDriverVersionBuild
 0001:0004B26C       DbxOpenOdbc.TSqlConnectionOdbc.GetOdbcDriverVersionMajor
 0001:0004B274       DbxOpenOdbc.TSqlConnectionOdbc.GetOdbcDriverVersionMinor
 0001:0004B27C       DbxOpenOdbc.TSqlConnectionOdbc.GetOdbcDriverVersionRelease
 0001:0004B28C       DbxOpenOdbc.TSqlConnectionOdbc.GetOdbcDriverVersionString
 0001:000484AC       DbxOpenOdbc.TSqlConnectionOdbc.GetOption
 0001:0004956C       DbxOpenOdbc.TSqlConnectionOdbc.getSQLCommand
 0001:0004965C       DbxOpenOdbc.TSqlConnectionOdbc.getSQLMetaData
 0001:0004B2C8       DbxOpenOdbc.TSqlConnectionOdbc.GetStatementsPerConnection
 0001:0004B2C0       DbxOpenOdbc.TSqlConnectionOdbc.GetSupportsSqlPrimaryKeys
 0001:0004217C       DbxOpenOdbc.TSqlConnectionOdbc.OdbcCheck
 0001:0004549C       DbxOpenOdbc.TSqlConnectionOdbc.RetrieveDbmsOptions
 0001:00045890       DbxOpenOdbc.TSqlConnectionOdbc.RetrieveDriverName
 0001:00042B94       DbxOpenOdbc.TSqlConnectionOdbc.rollback
 0001:0004172C       DbxOpenOdbc.TSqlConnectionOdbc.SetLoginTimeout
 0001:000417CC       DbxOpenOdbc.TSqlConnectionOdbc.SetNetworkTimeout
 0001:00049BEC       DbxOpenOdbc.TSqlConnectionOdbc.SetOption
 0001:00041060       DbxOpenOdbc.TSqlConnectionOdbc.SynchronizeInTransaction
 0001:0004AF8C       DbxOpenOdbc.TSqlConnectionOdbc.TransactionCheck
 0001:00055900       DbxOpenOdbc.TSqlCursorMetaData.BindInteger
 0001:000555F8       DbxOpenOdbc.TSqlCursorMetaData.BindSmallint
 0001:00055200       DbxOpenOdbc.TSqlCursorMetaData.ClearMetaData
 0001:00055164       DbxOpenOdbc.TSqlCursorMetaData.Create
 0001:0005547C       DbxOpenOdbc.TSqlCursorMetaData.DescribeAllocBindString
 0001:000551CC       DbxOpenOdbc.TSqlCursorMetaData.Destroy
 0001:00055BF4       DbxOpenOdbc.TSqlCursorMetaData.getBcd
 0001:00055CA0       DbxOpenOdbc.TSqlCursorMetaData.getBlob
 0001:00055D4C       DbxOpenOdbc.TSqlCursorMetaData.getBlobSize
 0001:00055DFC       DbxOpenOdbc.TSqlCursorMetaData.getBytes
 0001:00055EA8       DbxOpenOdbc.TSqlCursorMetaData.getColumnCount
 0001:00055EC0       DbxOpenOdbc.TSqlCursorMetaData.getColumnLength
 0001:00055F74       DbxOpenOdbc.TSqlCursorMetaData.getColumnName
 0001:00055F9C       DbxOpenOdbc.TSqlCursorMetaData.getColumnNameLength
 0001:00055FC4       DbxOpenOdbc.TSqlCursorMetaData.getColumnPrecision
 0001:0005607C       DbxOpenOdbc.TSqlCursorMetaData.getColumnScale
 0001:00056090       DbxOpenOdbc.TSqlCursorMetaData.getColumnType
 0001:000560B0       DbxOpenOdbc.TSqlCursorMetaData.getDate
 0001:0005615C       DbxOpenOdbc.TSqlCursorMetaData.getDouble
 0001:00056208       DbxOpenOdbc.TSqlCursorMetaData.getErrorMessage
 0001:0005627C       DbxOpenOdbc.TSqlCursorMetaData.getErrorMessageLen
 0001:000562E4       DbxOpenOdbc.TSqlCursorMetaData.getLong
 0001:00056390       DbxOpenOdbc.TSqlCursorMetaData.GetOption
 0001:0005643C       DbxOpenOdbc.TSqlCursorMetaData.getShort
 0001:000564E8       DbxOpenOdbc.TSqlCursorMetaData.getString
 0001:00056594       DbxOpenOdbc.TSqlCursorMetaData.getTime
 0001:00056640       DbxOpenOdbc.TSqlCursorMetaData.getTimeStamp
 0001:000566F0       DbxOpenOdbc.TSqlCursorMetaData.isAutoIncrement
 0001:00056748       DbxOpenOdbc.TSqlCursorMetaData.isBlobSizeExact
 0001:000567A0       DbxOpenOdbc.TSqlCursorMetaData.isNullable
 0001:000567B0       DbxOpenOdbc.TSqlCursorMetaData.isReadOnly
 0001:000567C4       DbxOpenOdbc.TSqlCursorMetaData.isSearchable
 0001:000567D4       DbxOpenOdbc.TSqlCursorMetaData.next
 0001:00056890       DbxOpenOdbc.TSqlCursorMetaData.OdbcCheck
 0001:000553E4       DbxOpenOdbc.TSqlCursorMetaData.ParseTableName
 0001:00055244       DbxOpenOdbc.TSqlCursorMetaData.ParseTableNameBase
 0001:000567E4       DbxOpenOdbc.TSqlCursorMetaData.SetOption
 0001:00058294       DbxOpenOdbc.TSqlCursorMetaDataColumns.Clear
 0001:0005821C       DbxOpenOdbc.TSqlCursorMetaDataColumns.Create
 0001:00058268       DbxOpenOdbc.TSqlCursorMetaDataColumns.Destroy
 0001:000582F8       DbxOpenOdbc.TSqlCursorMetaDataColumns.FetchColumns
 0001:00059194       DbxOpenOdbc.TSqlCursorMetaDataColumns.getColumnLength
 0001:000593CC       DbxOpenOdbc.TSqlCursorMetaDataColumns.getColumnPrecision
 0001:00059404       DbxOpenOdbc.TSqlCursorMetaDataColumns.getLong
 0001:000595C0       DbxOpenOdbc.TSqlCursorMetaDataColumns.getShort
 0001:000597A4       DbxOpenOdbc.TSqlCursorMetaDataColumns.getString
 0001:000599B4       DbxOpenOdbc.TSqlCursorMetaDataColumns.next
 0001:00059ADC       DbxOpenOdbc.TSqlCursorMetaDataIndexes.Create
 0001:00059B44       DbxOpenOdbc.TSqlCursorMetaDataIndexes.Destroy
 0001:00059BC8       DbxOpenOdbc.TSqlCursorMetaDataIndexes.FetchIndexes
 0001:0005B50C       DbxOpenOdbc.TSqlCursorMetaDataIndexes.getColumnLength
 0001:0005B708       DbxOpenOdbc.TSqlCursorMetaDataIndexes.getColumnPrecision
 0001:0005B740       DbxOpenOdbc.TSqlCursorMetaDataIndexes.getLong
 0001:0005B874       DbxOpenOdbc.TSqlCursorMetaDataIndexes.getShort
 0001:0005B9D0       DbxOpenOdbc.TSqlCursorMetaDataIndexes.getString
 0001:0005BD24       DbxOpenOdbc.TSqlCursorMetaDataIndexes.next
 0001:0005CB98       DbxOpenOdbc.TSqlCursorMetaDataProcedureParams.Create
 0001:0005CBE4       DbxOpenOdbc.TSqlCursorMetaDataProcedureParams.Destroy
 0001:0005CC68       DbxOpenOdbc.TSqlCursorMetaDataProcedureParams.FetchProcedureParams
 0001:0005DF18       DbxOpenOdbc.TSqlCursorMetaDataProcedureParams.getColumnLength
 0001:0005E14C       DbxOpenOdbc.TSqlCursorMetaDataProcedureParams.getColumnPrecision
 0001:0005E18C       DbxOpenOdbc.TSqlCursorMetaDataProcedureParams.getLong
 0001:0005E300       DbxOpenOdbc.TSqlCursorMetaDataProcedureParams.getShort
 0001:0005E4F4       DbxOpenOdbc.TSqlCursorMetaDataProcedureParams.getString
 0001:0005E764       DbxOpenOdbc.TSqlCursorMetaDataProcedureParams.next
 0001:0005BDE8       DbxOpenOdbc.TSqlCursorMetaDataProcedures.Create
 0001:0005BE34       DbxOpenOdbc.TSqlCursorMetaDataProcedures.Destroy
 0001:0005BE88       DbxOpenOdbc.TSqlCursorMetaDataProcedures.FetchProcedures
 0001:0005C400       DbxOpenOdbc.TSqlCursorMetaDataProcedures.getColumnLength
 0001:0005C5B0       DbxOpenOdbc.TSqlCursorMetaDataProcedures.getColumnPrecision
 0001:0005C5F0       DbxOpenOdbc.TSqlCursorMetaDataProcedures.getLong
 0001:0005C738       DbxOpenOdbc.TSqlCursorMetaDataProcedures.getShort
 0001:0005C87C       DbxOpenOdbc.TSqlCursorMetaDataProcedures.getString
 0001:0005CA2C       DbxOpenOdbc.TSqlCursorMetaDataProcedures.next
 0001:00057304       DbxOpenOdbc.TSqlCursorMetaDataTables.Clear
 0001:0005728C       DbxOpenOdbc.TSqlCursorMetaDataTables.Create
 0001:000572D8       DbxOpenOdbc.TSqlCursorMetaDataTables.Destroy
 0001:00057338       DbxOpenOdbc.TSqlCursorMetaDataTables.FetchTables
 0001:00057C24       DbxOpenOdbc.TSqlCursorMetaDataTables.getColumnLength
 0001:00057D9C       DbxOpenOdbc.TSqlCursorMetaDataTables.getColumnPrecision
 0001:00057DC4       DbxOpenOdbc.TSqlCursorMetaDataTables.getLong
 0001:00057EF8       DbxOpenOdbc.TSqlCursorMetaDataTables.getString
 0001:000580A8       DbxOpenOdbc.TSqlCursorMetaDataTables.next
 0001:000505C8       DbxOpenOdbc.TSqlCursorOdbc.BindResultSet
 0001:000503F0       DbxOpenOdbc.TSqlCursorOdbc.ClearCursor
 0001:00050358       DbxOpenOdbc.TSqlCursorOdbc.Create
 0001:0005045C       DbxOpenOdbc.TSqlCursorOdbc.Destroy
 0001:0005245C       DbxOpenOdbc.TSqlCursorOdbc.FetchLateBoundData
 0001:00052688       DbxOpenOdbc.TSqlCursorOdbc.FetchLongData
 0001:00052CF4       DbxOpenOdbc.TSqlCursorOdbc.getBcd
 0001:00052E6C       DbxOpenOdbc.TSqlCursorOdbc.getBlob
 0001:0005304C       DbxOpenOdbc.TSqlCursorOdbc.getBlobSize
 0001:000531D8       DbxOpenOdbc.TSqlCursorOdbc.getBytes
 0001:00053360       DbxOpenOdbc.TSqlCursorOdbc.getColumnCount
 0001:00053378       DbxOpenOdbc.TSqlCursorOdbc.getColumnLength
 0001:0005373C       DbxOpenOdbc.TSqlCursorOdbc.getColumnName
 0001:00053768       DbxOpenOdbc.TSqlCursorOdbc.getColumnNameLength
 0001:000537A4       DbxOpenOdbc.TSqlCursorOdbc.getColumnPrecision
 0001:00053868       DbxOpenOdbc.TSqlCursorOdbc.getColumnScale
 0001:000538F0       DbxOpenOdbc.TSqlCursorOdbc.getColumnType
 0001:00053920       DbxOpenOdbc.TSqlCursorOdbc.getDate
 0001:00053AD0       DbxOpenOdbc.TSqlCursorOdbc.getDouble
 0001:00053C3C       DbxOpenOdbc.TSqlCursorOdbc.getErrorMessage
 0001:00053CBC       DbxOpenOdbc.TSqlCursorOdbc.getErrorMessageLen
 0001:00053D2C       DbxOpenOdbc.TSqlCursorOdbc.getLong
 0001:00053E90       DbxOpenOdbc.TSqlCursorOdbc.GetOption
 0001:00053F38       DbxOpenOdbc.TSqlCursorOdbc.getShort
 0001:000540B4       DbxOpenOdbc.TSqlCursorOdbc.getString
 0001:000543A0       DbxOpenOdbc.TSqlCursorOdbc.getTime
 0001:00054520       DbxOpenOdbc.TSqlCursorOdbc.getTimeStamp
 0001:000546D4       DbxOpenOdbc.TSqlCursorOdbc.isAutoIncrement
 0001:000547DC       DbxOpenOdbc.TSqlCursorOdbc.isBlobSizeExact
 0001:000547F0       DbxOpenOdbc.TSqlCursorOdbc.isNullable
 0001:00054830       DbxOpenOdbc.TSqlCursorOdbc.isReadOnly
 0001:000548B0       DbxOpenOdbc.TSqlCursorOdbc.isSearchable
 0001:000549A4       DbxOpenOdbc.TSqlCursorOdbc.next
 0001:000550C8       DbxOpenOdbc.TSqlCursorOdbc.SetOption
 0001:00040920       DbxOpenOdbc.TSqlDriverOdbc.AllocHCon
 0001:00040A08       DbxOpenOdbc.TSqlDriverOdbc.AllocHEnv
 0001:0003F410       DbxOpenOdbc.TSqlDriverOdbc.Create
 0001:0003F4B4       DbxOpenOdbc.TSqlDriverOdbc.Destroy
 0001:00040980       DbxOpenOdbc.TSqlDriverOdbc.FreeHCon
 0001:00040BB0       DbxOpenOdbc.TSqlDriverOdbc.FreeHEnv
 0001:00040C50       DbxOpenOdbc.TSqlDriverOdbc.GetOption
 0001:00040DEC       DbxOpenOdbc.TSqlDriverOdbc.getSQLConnection
 0001:0003F4F0       DbxOpenOdbc.TSqlDriverOdbc.OdbcCheck
 0001:0003F930       DbxOpenOdbc.TSqlDriverOdbc.RetrieveOdbcErrorInfo
 0001:00040E60       DbxOpenOdbc.TSqlDriverOdbc.SetOption
 0001:0004F3F4       DbxOpenOdbc.TSQLMetaDataOdbc.Create
 0001:0004F440       DbxOpenOdbc.TSQLMetaDataOdbc.Destroy
 0001:0004F470       DbxOpenOdbc.TSQLMetaDataOdbc.getColumns
 0001:0004F590       DbxOpenOdbc.TSQLMetaDataOdbc.getErrorMessage
 0001:0004F604       DbxOpenOdbc.TSQLMetaDataOdbc.getErrorMessageLen
 0001:0004F66C       DbxOpenOdbc.TSQLMetaDataOdbc.getIndices
 0001:0004F790       DbxOpenOdbc.TSQLMetaDataOdbc.getObjectList
 0001:0004F7A8       DbxOpenOdbc.TSQLMetaDataOdbc.GetOption
 0001:0004F8BC       DbxOpenOdbc.TSQLMetaDataOdbc.getProcedureParams
 0001:0004F9D8       DbxOpenOdbc.TSQLMetaDataOdbc.getProcedures
 0001:0004FAD8       DbxOpenOdbc.TSQLMetaDataOdbc.getTables
 0001:0004FBC8       DbxOpenOdbc.TSQLMetaDataOdbc.SetOption
 0001:00045760       DbxOpenOdbc.VersionStringToNumeric
 0001:0004E268       DbxOpenOdbc.WideCharToUtf8
 0004:000055D8       DbxOpenOdbc3..11
 0001:0003797C       DbxOpenOdbc3..TSqlCommandOdbc3
 0001:00037804       DbxOpenOdbc3..TSqlConnectionOdbc3
 0001:000381B4       DbxOpenOdbc3..TSqlCursorMetaDataColumns3
 0001:0003840C       DbxOpenOdbc3..TSqlCursorMetaDataIndexes3
 0001:000388C4       DbxOpenOdbc3..TSqlCursorMetaDataProcedureParams3
 0001:00038664       DbxOpenOdbc3..TSqlCursorMetaDataProcedures3
 0001:00037F58       DbxOpenOdbc3..TSqlCursorMetaDataTables3
 0001:00037BCC       DbxOpenOdbc3..TSqlCursorOdbc3
 0001:00037684       DbxOpenOdbc3..TSqlDriverOdbc3
 0001:00037D04       DbxOpenOdbc3..TSQLMetaDataOdbc3
 0004:000055B8       DbxOpenOdbc3.cConnectionOptionsDefault3
 0001:00038B64       DbxOpenOdbc3.Create_ISQLCursor30
 0002:000004B0       DbxOpenOdbc3.DbxOpenOdbc3
 0003:00001824       DbxOpenOdbc3.DefaultSystemCodePage
 0001:0003B044       DbxOpenOdbc3.DoRegisterDbXpressLibW
 0001:0003B050       DbxOpenOdbc3.DoRegisterDbXpressLibWA
 0001:0003B05C       DbxOpenOdbc3.Finalization
 0001:00038974       DbxOpenOdbc3.getSQLDriverODBCW
 0001:00038A6C       DbxOpenOdbc3.getSQLDriverODBCWA
 0001:00038CC0       DbxOpenOdbc3.Get_ISQLMetaData30
 0001:00038D14       DbxOpenOdbc3.Get_ISQLMetaData30
 0001:00038BC4       DbxOpenOdbc3.Get_ISQLMetaData30
 0001:00038C6C       DbxOpenOdbc3.Get_ISQLMetaData30
 0001:00038C18       DbxOpenOdbc3.Get_ISQLMetaData30
 0001:00038934       DbxOpenOdbc3.StringToWideChar
 0001:00039414       DbxOpenOdbc3.TSqlCommandOdbc3.execute
 0001:00039430       DbxOpenOdbc3.TSqlCommandOdbc3.executeImmediate
 0001:000394D4       DbxOpenOdbc3.TSqlCommandOdbc3.getErrorMessage
 0001:000394EC       DbxOpenOdbc3.TSqlCommandOdbc3.getErrorMessageLen
 0001:00039504       DbxOpenOdbc3.TSqlCommandOdbc3.getNextCursor
 0001:00039518       DbxOpenOdbc3.TSqlCommandOdbc3.GetOption
 0001:00039358       DbxOpenOdbc3.TSqlCommandOdbc3.prepare
 0001:00039600       DbxOpenOdbc3.TSqlCommandOdbc3.SetOption
 0001:00038DEC       DbxOpenOdbc3.TSqlConnectionOdbc3.connect
 0001:00038E80       DbxOpenOdbc3.TSqlConnectionOdbc3.connect
 0001:00038F40       DbxOpenOdbc3.TSqlConnectionOdbc3.getErrorMessage
 0001:00039028       DbxOpenOdbc3.TSqlConnectionOdbc3.getErrorMessageLen
 0001:000390A8       DbxOpenOdbc3.TSqlConnectionOdbc3.GetOption
 0001:00039230       DbxOpenOdbc3.TSqlConnectionOdbc3.getSQLCommand
 0001:000392C4       DbxOpenOdbc3.TSqlConnectionOdbc3.getSQLMetaData
 0001:00039190       DbxOpenOdbc3.TSqlConnectionOdbc3.SetOption
 0001:0003A3A4       DbxOpenOdbc3.TSqlCursorMetaDataColumns3.getColumnName
 0001:0003A47C       DbxOpenOdbc3.TSqlCursorMetaDataColumns3.getErrorMessage
 0001:0003A564       DbxOpenOdbc3.TSqlCursorMetaDataColumns3.getErrorMessageLen
 0001:0003A5E4       DbxOpenOdbc3.TSqlCursorMetaDataColumns3.getInt64
 0001:0003A5F0       DbxOpenOdbc3.TSqlCursorMetaDataColumns3.getString
 0001:0003A610       DbxOpenOdbc3.TSqlCursorMetaDataColumns3.getWideString
 0001:0003A6CC       DbxOpenOdbc3.TSqlCursorMetaDataIndexes3.getColumnName
 0001:0003A7A4       DbxOpenOdbc3.TSqlCursorMetaDataIndexes3.getErrorMessage
 0001:0003A88C       DbxOpenOdbc3.TSqlCursorMetaDataIndexes3.getErrorMessageLen
 0001:0003A90C       DbxOpenOdbc3.TSqlCursorMetaDataIndexes3.getInt64
 0001:0003A918       DbxOpenOdbc3.TSqlCursorMetaDataIndexes3.getString
 0001:0003A938       DbxOpenOdbc3.TSqlCursorMetaDataIndexes3.getWideString
 0001:0003AD1C       DbxOpenOdbc3.TSqlCursorMetaDataProcedureParams3.getColumnName
 0001:0003ADF4       DbxOpenOdbc3.TSqlCursorMetaDataProcedureParams3.getErrorMessage
 0001:0003AEDC       DbxOpenOdbc3.TSqlCursorMetaDataProcedureParams3.getErrorMessageLen
 0001:0003AF5C       DbxOpenOdbc3.TSqlCursorMetaDataProcedureParams3.getInt64
 0001:0003AF68       DbxOpenOdbc3.TSqlCursorMetaDataProcedureParams3.getString
 0001:0003AF88       DbxOpenOdbc3.TSqlCursorMetaDataProcedureParams3.getWideString
 0001:0003A9F4       DbxOpenOdbc3.TSqlCursorMetaDataProcedures3.getColumnName
 0001:0003AACC       DbxOpenOdbc3.TSqlCursorMetaDataProcedures3.getErrorMessage
 0001:0003ABB4       DbxOpenOdbc3.TSqlCursorMetaDataProcedures3.getErrorMessageLen
 0001:0003AC34       DbxOpenOdbc3.TSqlCursorMetaDataProcedures3.getInt64
 0001:0003AC40       DbxOpenOdbc3.TSqlCursorMetaDataProcedures3.getString
 0001:0003AC60       DbxOpenOdbc3.TSqlCursorMetaDataProcedures3.getWideString
 0001:0003A1E4       DbxOpenOdbc3.TSqlCursorMetaDataTables3.getColumnName
 0001:0003A07C       DbxOpenOdbc3.TSqlCursorMetaDataTables3.getErrorMessage
 0001:0003A164       DbxOpenOdbc3.TSqlCursorMetaDataTables3.getErrorMessageLen
 0001:0003A2BC       DbxOpenOdbc3.TSqlCursorMetaDataTables3.getInt64
 0001:0003A2C8       DbxOpenOdbc3.TSqlCursorMetaDataTables3.getString
 0001:0003A2E8       DbxOpenOdbc3.TSqlCursorMetaDataTables3.getWideString
 0001:00039758       DbxOpenOdbc3.TSqlCursorOdbc3.getColumnName
 0001:000396D0       DbxOpenOdbc3.TSqlCursorOdbc3.getColumnNameLength
 0001:000396A0       DbxOpenOdbc3.TSqlCursorOdbc3.getErrorMessage
 0001:000396B8       DbxOpenOdbc3.TSqlCursorOdbc3.getErrorMessageLen
 0001:000397C0       DbxOpenOdbc3.TSqlCursorOdbc3.getInt64
 0001:00039844       DbxOpenOdbc3.TSqlCursorOdbc3.getString
 0001:00039864       DbxOpenOdbc3.TSqlCursorOdbc3.getWideString
 0001:00038D68       DbxOpenOdbc3.TSqlDriverOdbc3.Create
 0001:00038DB0       DbxOpenOdbc3.TSqlDriverOdbc3.getSQLConnection
 0001:00039E68       DbxOpenOdbc3.TSQLMetaDataOdbc3.getColumns
 0001:000399C0       DbxOpenOdbc3.TSQLMetaDataOdbc3.getErrorMessage
 0001:00039AA8       DbxOpenOdbc3.TSQLMetaDataOdbc3.getErrorMessageLen
 0001:00039F2C       DbxOpenOdbc3.TSQLMetaDataOdbc3.getIndices
 0001:00039CB0       DbxOpenOdbc3.TSQLMetaDataOdbc3.getObjectList
 0001:00039B28       DbxOpenOdbc3.TSQLMetaDataOdbc3.GetOption
 0001:00039FBC       DbxOpenOdbc3.TSQLMetaDataOdbc3.getProcedureParams
 0001:00039D98       DbxOpenOdbc3.TSQLMetaDataOdbc3.getProcedures
 0001:00039CC8       DbxOpenOdbc3.TSQLMetaDataOdbc3.getTables
 0001:00039C10       DbxOpenOdbc3.TSQLMetaDataOdbc3.SetOption
 0004:000055B0       DbxOpenOdbcASA..1
 0003:0000179C       DbxOpenOdbcASA.AsaCallbackMessage
 0001:00034F5C       DbxOpenOdbcASA.ASA_MESSAGE_CALLBACK
 0001:00034F44       DbxOpenOdbcASA.ASA_MESSAGE_INIT
 0003:000017A0       DbxOpenOdbcASA.aWindow
 0002:0000047C       DbxOpenOdbcASA.DbxOpenOdbcASA
 0001:00034FD0       DbxOpenOdbcASA.Finalization
 0004:000055AC       DbxOpenOdbcASA.WM_AsaCallback
 0004:000055AE       DbxOpenOdbcASA.WM_AsaCallback_Supported
 0004:00005590       DbxOpenOdbcInterface..1
 0003:00001580       DbxOpenOdbcInterface.cConnectionOptionsDescs
 0003:000014E4       DbxOpenOdbcInterface.cConnectionOptionsNames
 0003:00001560       DbxOpenOdbcInterface.cConnectionOptionsTypes
 0003:000015FC       DbxOpenOdbcInterface.cOptionSwitchesNames
 0003:00001610       DbxOpenOdbcInterface.cXSQLCommandOptionStringTypes
 0003:00001608       DbxOpenOdbcInterface.cXSQLConnectionOptionStringTypes
 0003:00001614       DbxOpenOdbcInterface.cXSQLMetaDataOptionStringTypes
 0002:00000408       DbxOpenOdbcInterface.DbxOpenOdbcInterface
 0001:00024C04       DbxOpenOdbcInterface.DoRegisterDbXpressLibNull
 0001:00024C08       DbxOpenOdbcInterface.Finalization
 0004:00005580       DbxOpenOdbcInterface.RegisterDbXpressLibA
 0004:00005584       DbxOpenOdbcInterface.RegisterDbXpressLibAW
 0004:00005588       DbxOpenOdbcInterface.RegisterDbXpressLibW
 0004:0000558C       DbxOpenOdbcInterface.RegisterDbXpressLibWA
 0004:00005564       DSIntf..2
 0003:000014E0       DSIntf.DbClientHandle
 0002:000003F0       DSIntf.DSIntf
 0001:00024284       DSIntf.Finalization
 0004:00005568       DSIntf.Loading
 0004:0000280C       FastMM4..1
 0001:00006188       FastMM4.AllocateLargeBlock
 0001:000060D8       FastMM4.AllocNewSequentialFeedMediumPool
 0004:00002810       FastMM4.AllocSize2SmallBlockTypeIndX4
 0001:00005D64       FastMM4.AppendModuleFileName
 0001:00005D88       FastMM4.AppendStringToModuleName
 0001:0000606C       FastMM4.BinMediumSequentialFeedRemainder
 0001:00006B34       FastMM4.CheckCanInstallMemoryManager
 0003:000007B8       FastMM4.Copyright
 0001:00006B04       FastMM4.FastAllocMem
 0001:000066D8       FastMM4.FastFreeMem
 0001:000063DC       FastMM4.FastGetMem
 0002:000000B0       FastMM4.FastMM4
 0004:00004A3C       FastMM4.FastMMIsInstalled
 0001:00006874       FastMM4.FastReallocMem
 0001:00007128       FastMM4.Finalization
 0001:000061EC       FastMM4.FreeLargeBlock
 0001:00006F50       FastMM4.InitializeMemoryManager
 0001:0000600C       FastMM4.InsertMediumBlockIntoBin
 0001:000070C0       FastMM4.InstallMemoryManager
 0004:00004A3D       FastMM4.IsMemoryManagerOwner
 0004:000049FC       FastMM4.LargeBlocksCircularList
 0004:000049F8       FastMM4.LargeBlocksLocked
 0004:0000296C       FastMM4.LastSequentiallyFedMediumBlock
 0001:00005D5C       FastMM4.LockCmpxchg
 0001:00006150       FastMM4.LockLargeBlocks
 0001:00005F94       FastMM4.LockMediumBlocks
 0004:00002978       FastMM4.MediumBlockBinBitmaps
 0004:00002974       FastMM4.MediumBlockBinGroupBitmap
 0004:000029F8       FastMM4.MediumBlockBins
 0004:00002958       FastMM4.MediumBlockPoolsCircularList
 0004:00002968       FastMM4.MediumBlocksLocked
 0004:00002970       FastMM4.MediumSequentialFeedBytesLeft
 0001:00005DDC       FastMM4.Move12
 0001:00005DF0       FastMM4.Move20
 0001:00005E10       FastMM4.Move28
 0001:00005E3C       FastMM4.Move36
 0001:00005E5C       FastMM4.Move44
 0001:00005E80       FastMM4.Move52
 0001:00005EAC       FastMM4.Move60
 0001:00005EDC       FastMM4.Move68
 0001:00005F14       FastMM4.MoveX16L4
 0001:00005F4C       FastMM4.MoveX8L4
 0004:00004A24       FastMM4.NewMemoryManager
 0004:00004A0C       FastMM4.OldMemoryManager
 0001:00006290       FastMM4.ReallocateLargeBlock
 0001:00005FCC       FastMM4.RemoveMediumFreeBlock
 0004:00004A3E       FastMM4.ShowingMessageBox
 0001:00005F6C       FastMM4.ShowMessageBox
 0003:000007BC       FastMM4.SmallBlockTypes
 0004:00005540       FMTBcd..3
 0001:0001E190       FMTBcd..EBcdException
 0001:0001E1EC       FMTBcd..EBcdOverflowException
 0001:0001E3E0       FMTBcd..TFMTBcdData
 0001:0001E32C       FMTBcd..TFMTBcdVariantType
 0001:0001F738       FMTBcd.AddChars
 0001:00021670       FMTBcd.AddNormalizedFractions
 0001:0001F818       FMTBcd.AddStrings
 0001:000214E4       FMTBcd.AddSubtractNormalizedFractions
 0001:000205DC       FMTBcd.AdjustDecimalPosition
 0001:00021F1C       FMTBcd.AdjustNibbles
 0001:0002264C       FMTBcd.BcdAdd
 0001:00022198       FMTBcd.BcdCompare
 0001:000225D8       FMTBcd.BcdDivide
 0001:0002244C       FMTBcd.BcdDivide
 0001:0001E58C       FMTBcd.BcdError
 0001:0001E51C       FMTBcd.BcdErrorFmt
 0001:000222B0       FMTBcd.BcdMultiply
 0001:000223D8       FMTBcd.BcdMultiply
 0001:00022A38       FMTBcd.BcdScale
 0001:0002226C       FMTBcd.BcdSubtract
 0001:00022C80       FMTBcd.BCDToCurr
 0001:0001F040       FMTBcd.BcdToDouble
 0001:000227A4       FMTBcd.BcdToStr
 0001:000203EC       FMTBcd.BlankArgument
 0001:00020258       FMTBcd.CanUseShort
 0001:00021E40       FMTBcd.CompactBcd
 0001:0001F46C       FMTBcd.CompareDigits
 0001:00021694       FMTBcd.CompareNormalizedFractions
 0001:00021A28       FMTBcd.CompareSignificantFractions
 0001:00022ADC       FMTBcd.CurrToBCD
 0003:0000130C       FMTBcd.DValue
 0001:0001E250       FMTBcd.EmptyBcd
 0001:00022DAC       FMTBcd.Finalization
 0002:000002E8       FMTBcd.FMTBcd
 0003:00001404       FMTBcd.FMTBcdVariantType
 0001:0001E2A4       FMTBcd.GetBcdDigit
 0001:00022A78       FMTBcd.GetNextByte
 0001:0001F570       FMTBcd.GetValueAndMultiplyOrder
 0001:00020F88       FMTBcd.InvalidBcdString
 0001:00022A5C       FMTBcd.IsBcdNegative
 0001:0001F400       FMTBcd.LeftTrim
 0001:0002195C       FMTBcd.LoadNibbleArray
 0001:00021814       FMTBcd.MoveBytesToRight
 0001:00021B30       FMTBcd.MoveNibblesToLeft
 0001:000218A4       FMTBcd.MoveNibblesToRight
 0001:0002050C       FMTBcd.NextDigit
 0001:00021C68       FMTBcd.NormalizeBcd
 0001:00021FA0       FMTBcd.NormalizeBcdPair
 0003:000012E8       FMTBcd.NullBcd
 0001:00021E00       FMTBcd.NumberOfDigits
 0001:0001E5AC       FMTBcd.OverflowError
 0001:0001E2FC       FMTBcd.PutCurrencyDigit
 0001:0001E268       FMTBcd.PutTwoBcdDigits
 0001:000210A0       FMTBcd.ReverseNegative
 0001:0001F11C       FMTBcd.RoundAt
 0001:0001F098       FMTBcd.RoundChar
 0001:00021460       FMTBcd.SignificantIntDigits
 0001:0001FE5C       FMTBcd.StringMultiplyByByte
 0001:0001EFD4       FMTBcd.StrToBcd
 0001:0001F7B8       FMTBcd.SubtractChars
 0001:0002164C       FMTBcd.SubtractNormalizedFractions
 0001:0001F9C0       FMTBcd.SubtractStrings
 0001:0001E714       FMTBcd.TFMTBcdData.Compare
 0001:0001E9B0       FMTBcd.TFMTBcdData.Create
 0001:0001EA08       FMTBcd.TFMTBcdData.Create
 0001:0001EB14       FMTBcd.TFMTBcdData.Create
 0001:0001EBC8       FMTBcd.TFMTBcdData.Create
 0001:0001E60C       FMTBcd.TFMTBcdData.DoAdd
 0001:0001E5CC       FMTBcd.TFMTBcdData.DoAdd
 0001:0001E6D0       FMTBcd.TFMTBcdData.DoDivide
 0001:0001E68C       FMTBcd.TFMTBcdData.DoMultiply
 0001:0001E66C       FMTBcd.TFMTBcdData.DoSubtract
 0001:0001E62C       FMTBcd.TFMTBcdData.DoSubtract
 0001:0001E834       FMTBcd.TFMTBcdData.GetAsCurrency
 0001:0001E75C       FMTBcd.TFMTBcdData.GetAsDouble
 0001:0001E7B8       FMTBcd.TFMTBcdData.GetAsInteger
 0001:0001E814       FMTBcd.TFMTBcdData.GetAsSmallInt
 0001:0001E73C       FMTBcd.TFMTBcdData.GetAsString
 0001:0001E988       FMTBcd.TFMTBcdData.SetAsCurrency
 0001:0001E888       FMTBcd.TFMTBcdData.SetAsDouble
 0001:0001E8FC       FMTBcd.TFMTBcdData.SetAsInteger
 0001:0001E968       FMTBcd.TFMTBcdData.SetAsSmallInt
 0001:0001E854       FMTBcd.TFMTBcdData.SetAsString
 0001:0001EF10       FMTBcd.TFMTBcdVariantType.BinaryOp
 0001:0001EC38       FMTBcd.TFMTBcdVariantType.Cast
 0001:0001ED70       FMTBcd.TFMTBcdVariantType.CastTo
 0001:0001EC14       FMTBcd.TFMTBcdVariantType.Clear
 0001:0001EFA8       FMTBcd.TFMTBcdVariantType.Compare
 0001:0001EEB0       FMTBcd.TFMTBcdVariantType.Copy
 0001:0001EF8C       FMTBcd.TFMTBcdVariantType.GetInstance
 0001:00021104       FMTBcd.TryStrToBcd
 0001:00020858       FMTBcd.ValueOverOne
 0001:000210C8       FMTBcd.ZeroBcd
 0001:00020E54       FMTBcd._Divide
 0001:00020B6C       FMTBcd._LongDivide
 0001:0001FF5C       FMTBcd._LongMultiply
 0001:00020494       FMTBcd._Multiply
 0001:0001FC14       FMTBcd._ShortMultiply
 0004:00005594       IniFiles..8
 0001:00024E34       IniFiles.Finalization
 0002:0000043C       IniFiles.IniFiles
 0003:00001618       IniFiles.Values
 0004:0000559C       OdbcApi..5
 0001:0002551C       OdbcApi..EOdbcApi
 0001:00025574       OdbcApi..EOdbcApiNotImplemented
 0001:00025B94       OdbcApi..TOdbcApiIntfImpl
 0001:000255D8       OdbcApi..TOdbcApiProxy
 0001:00025C34       OdbcApi..TStringHash
 0001:00029A10       OdbcApi.DoSQLFreeHandle
 0001:00025EF4       OdbcApi.ExtractNextLibName
 0001:0002F78C       OdbcApi.Finalization
 0004:000055A0       OdbcApi.fOdbcApiCache
 0001:00025FA0       OdbcApi.GetProcAddressEx
 0001:00026060       OdbcApi.LoadOdbcDriverManager
 0002:0000044C       OdbcApi.OdbcApi
 0001:0002CEA8       OdbcApi.TOdbcApiIntfImpl.FireVSDebugEvent
 0001:0002CF00       OdbcApi.TOdbcApiIntfImpl.ODBCGetTryWaitValue
 0001:0002CF58       OdbcApi.TOdbcApiIntfImpl.ODBCSetTryWaitValue
 0001:0002D2E0       OdbcApi.TOdbcApiIntfImpl.SQLAllocConnect
 0001:0002D338       OdbcApi.TOdbcApiIntfImpl.SQLAllocEnv
 0001:0002D390       OdbcApi.TOdbcApiIntfImpl.SQLAllocHandle
 0001:0002D3F4       OdbcApi.TOdbcApiIntfImpl.SQLAllocHandleStd
 0001:0002D458       OdbcApi.TOdbcApiIntfImpl.SQLAllocStmt
 0001:0002D4B0       OdbcApi.TOdbcApiIntfImpl.SQLBindCol
 0001:0002D520       OdbcApi.TOdbcApiIntfImpl.SQLBindParam
 0001:0002D598       OdbcApi.TOdbcApiIntfImpl.SQLBindParameter
 0001:0002D61C       OdbcApi.TOdbcApiIntfImpl.SQLBrowseConnect
 0001:0002D68C       OdbcApi.TOdbcApiIntfImpl.SQLBulkOperations
 0001:0002D6E4       OdbcApi.TOdbcApiIntfImpl.SQLCancel
 0001:0002D73C       OdbcApi.TOdbcApiIntfImpl.SQLCloseCursor
 0001:0002D794       OdbcApi.TOdbcApiIntfImpl.SQLColAttribute
 0001:0002D808       OdbcApi.TOdbcApiIntfImpl.SQLColAttributeInt
 0001:0002D87C       OdbcApi.TOdbcApiIntfImpl.SQLColAttributes
 0001:0002D8F0       OdbcApi.TOdbcApiIntfImpl.SQLColAttributeString
 0001:0002D964       OdbcApi.TOdbcApiIntfImpl.SQLColumnPrivileges
 0001:0002D9E4       OdbcApi.TOdbcApiIntfImpl.SQLColumns
 0001:0002DA64       OdbcApi.TOdbcApiIntfImpl.SQLConnect
 0001:0002DAD8       OdbcApi.TOdbcApiIntfImpl.SQLCopyDesc
 0001:0002DB30       OdbcApi.TOdbcApiIntfImpl.SQLDataSources
 0001:0002DBA8       OdbcApi.TOdbcApiIntfImpl.SQLDescribeCol
 0001:0002DC24       OdbcApi.TOdbcApiIntfImpl.SQLDescribeParam
 0001:0002DC94       OdbcApi.TOdbcApiIntfImpl.SQLDisconnect
 0001:0002DCEC       OdbcApi.TOdbcApiIntfImpl.SQLDriverConnect
 0001:0002DD64       OdbcApi.TOdbcApiIntfImpl.SQLDrivers
 0001:0002DDDC       OdbcApi.TOdbcApiIntfImpl.SQLEndTran
 0001:0002DE40       OdbcApi.TOdbcApiIntfImpl.SQLError
 0001:0002DEB8       OdbcApi.TOdbcApiIntfImpl.SQLExecDirect
 0001:0002DF1C       OdbcApi.TOdbcApiIntfImpl.SQLExecute
 0001:0002DF74       OdbcApi.TOdbcApiIntfImpl.SQLExtendedFetch
 0001:0002DFE0       OdbcApi.TOdbcApiIntfImpl.SQLFetch
 0001:0002E038       OdbcApi.TOdbcApiIntfImpl.SQLFetchScroll
 0001:0002E09C       OdbcApi.TOdbcApiIntfImpl.SQLForeignKeys
 0001:0002E12C       OdbcApi.TOdbcApiIntfImpl.SQLFreeConnect
 0001:0002E184       OdbcApi.TOdbcApiIntfImpl.SQLFreeEnv
 0001:0002E1DC       OdbcApi.TOdbcApiIntfImpl.SQLFreeHandle
 0001:0002E234       OdbcApi.TOdbcApiIntfImpl.SQLFreeStmt
 0001:0002E28C       OdbcApi.TOdbcApiIntfImpl.SQLFunctionSupported
 0001:0002E2E4       OdbcApi.TOdbcApiIntfImpl.SQLGetConnectAttr
 0001:0002E350       OdbcApi.TOdbcApiIntfImpl.SQLGetConnectOption
 0001:0002E3B4       OdbcApi.TOdbcApiIntfImpl.SQLGetCursorName
 0001:0002E41C       OdbcApi.TOdbcApiIntfImpl.SQLGetData
 0001:0002E48C       OdbcApi.TOdbcApiIntfImpl.SQLGetDescField
 0001:0002E4FC       OdbcApi.TOdbcApiIntfImpl.SQLGetDescRec
 0001:0002E580       OdbcApi.TOdbcApiIntfImpl.SQLGetDiagField
 0001:0002E5F4       OdbcApi.TOdbcApiIntfImpl.SQLGetDiagRec
 0001:0002E66C       OdbcApi.TOdbcApiIntfImpl.SQLGetEnvAttr
 0001:0002E6D8       OdbcApi.TOdbcApiIntfImpl.SQLGetFunctions
 0001:0002E73C       OdbcApi.TOdbcApiIntfImpl.SQLGetInfo
 0001:0002E7A8       OdbcApi.TOdbcApiIntfImpl.SQLGetInfoInt
 0001:0002E814       OdbcApi.TOdbcApiIntfImpl.SQLGetInfoSmallint
 0001:0002E880       OdbcApi.TOdbcApiIntfImpl.SQLGetInfoString
 0001:0002E8EC       OdbcApi.TOdbcApiIntfImpl.SQLGetStmtAttr
 0001:0002E958       OdbcApi.TOdbcApiIntfImpl.SQLGetStmtOption
 0001:0002E9BC       OdbcApi.TOdbcApiIntfImpl.SQLGetTypeInfo
 0001:0002EA14       OdbcApi.TOdbcApiIntfImpl.SQLMoreResults
 0001:0002EA6C       OdbcApi.TOdbcApiIntfImpl.SQLNativeSql
 0001:0002EADC       OdbcApi.TOdbcApiIntfImpl.SQLNumParams
 0001:0002EB34       OdbcApi.TOdbcApiIntfImpl.SQLNumResultCols
 0001:0002EB8C       OdbcApi.TOdbcApiIntfImpl.SQLParamData
 0001:0002EBE4       OdbcApi.TOdbcApiIntfImpl.SQLParamOptions
 0001:0002EC48       OdbcApi.TOdbcApiIntfImpl.SQLPrepare
 0001:0002ECAC       OdbcApi.TOdbcApiIntfImpl.SQLPrimaryKeys
 0001:0002ED20       OdbcApi.TOdbcApiIntfImpl.SQLProcedureColumns
 0001:0002EDA0       OdbcApi.TOdbcApiIntfImpl.SQLProcedures
 0001:0002EE14       OdbcApi.TOdbcApiIntfImpl.SQLPutData
 0001:0002EE78       OdbcApi.TOdbcApiIntfImpl.SQLRowCount
 0001:0002EED0       OdbcApi.TOdbcApiIntfImpl.SQLSetConnectAttr
 0001:0002EF38       OdbcApi.TOdbcApiIntfImpl.SQLSetConnectOption
 0001:0002EF9C       OdbcApi.TOdbcApiIntfImpl.SQLSetCursorName
 0001:0002F000       OdbcApi.TOdbcApiIntfImpl.SQLSetDescField
 0001:0002F06C       OdbcApi.TOdbcApiIntfImpl.SQLSetDescRec
 0001:0002F0F0       OdbcApi.TOdbcApiIntfImpl.SQLSetEnvAttr
 0001:0002F158       OdbcApi.TOdbcApiIntfImpl.SQLSetParam
 0001:0002F1D0       OdbcApi.TOdbcApiIntfImpl.SQLSetPos
 0001:0002F238       OdbcApi.TOdbcApiIntfImpl.SQLSetScrollOptions
 0001:0002F2A0       OdbcApi.TOdbcApiIntfImpl.SQLSetStmtAttr
 0001:0002F308       OdbcApi.TOdbcApiIntfImpl.SQLSetStmtOption
 0001:0002F36C       OdbcApi.TOdbcApiIntfImpl.SQLSpecialColumns
 0001:0002F3F0       OdbcApi.TOdbcApiIntfImpl.SQLStatistics
 0001:0002F470       OdbcApi.TOdbcApiIntfImpl.SQLTablePrivileges
 0001:0002F4E4       OdbcApi.TOdbcApiIntfImpl.SQLTables
 0001:0002F564       OdbcApi.TOdbcApiIntfImpl.SQLTransact
 0001:0002CFB0       OdbcApi.TOdbcApiIntfImpl.SQL_ADD_RECORD
 0001:0002D008       OdbcApi.TOdbcApiIntfImpl.SQL_DELETE_RECORD
 0001:0002D060       OdbcApi.TOdbcApiIntfImpl.SQL_FUNC_EXISTS
 0001:0002D0B8       OdbcApi.TOdbcApiIntfImpl.SQL_LEN_BINARY_ATTR
 0001:0002D110       OdbcApi.TOdbcApiIntfImpl.SQL_LEN_DATA_AT_EXEC
 0001:0002D168       OdbcApi.TOdbcApiIntfImpl.SQL_LOCK_RECORD
 0001:0002D1CC       OdbcApi.TOdbcApiIntfImpl.SQL_POSITION_TO
 0001:0002D224       OdbcApi.TOdbcApiIntfImpl.SQL_REFRESH_RECORD
 0001:0002D288       OdbcApi.TOdbcApiIntfImpl.SQL_UPDATE_RECORD
 0001:0002F5C8       OdbcApi.TOdbcApiIntfImpl.TraceCloseLogFile
 0001:0002F620       OdbcApi.TOdbcApiIntfImpl.TraceOpenLogFile
 0001:0002F684       OdbcApi.TOdbcApiIntfImpl.TraceReturn
 0001:0002F6DC       OdbcApi.TOdbcApiIntfImpl.TraceVersion
 0001:0002F734       OdbcApi.TOdbcApiIntfImpl.TraceVSControl
 0001:00027E7C       OdbcApi.TOdbcApiProxy.BeginLock
 0001:00027D0C       OdbcApi.TOdbcApiProxy.Destroy
 0001:00027E88       OdbcApi.TOdbcApiProxy.EndLock
 0001:0002CC4C       OdbcApi.TOdbcApiProxy.FireVSDebugEvent
 0001:0002CE68       OdbcApi.TOdbcApiProxy.GetOdbcApiIntf
 0001:00027D74       OdbcApi.TOdbcApiProxy.NotImplemented
 0001:0002CC8C       OdbcApi.TOdbcApiProxy.ODBCGetTryWaitValue
 0001:0002CCD4       OdbcApi.TOdbcApiProxy.ODBCSetTryWaitValue
 0001:0002CDB8       OdbcApi.TOdbcApiProxy.SetOdbcDriverLevel
 0001:00027E94       OdbcApi.TOdbcApiProxy.SQLAllocConnect
 0001:00027EB0       OdbcApi.TOdbcApiProxy.SQLAllocEnv
 0001:00027F24       OdbcApi.TOdbcApiProxy.SQLAllocHandle
 0001:00027ECC       OdbcApi.TOdbcApiProxy.SQLAllocHandleStd
 0001:00027FC0       OdbcApi.TOdbcApiProxy.SQLAllocStmt
 0001:00027FDC       OdbcApi.TOdbcApiProxy.SQLBindCol
 0001:00028034       OdbcApi.TOdbcApiProxy.SQLBindParam
 0001:0002809C       OdbcApi.TOdbcApiProxy.SQLBindParameter
 0001:00028118       OdbcApi.TOdbcApiProxy.SQLBrowseConnect
 0001:0002829C       OdbcApi.TOdbcApiProxy.SQLBulkOperations
 0001:000282E4       OdbcApi.TOdbcApiProxy.SQLCancel
 0001:0002831C       OdbcApi.TOdbcApiProxy.SQLCloseCursor
 0001:0002836C       OdbcApi.TOdbcApiProxy.SQLColAttribute
 0001:00028550       OdbcApi.TOdbcApiProxy.SQLColAttributeInt
 0001:00028598       OdbcApi.TOdbcApiProxy.SQLColAttributes
 0001:00028574       OdbcApi.TOdbcApiProxy.SQLColAttributeString
 0001:00028728       OdbcApi.TOdbcApiProxy.SQLColumnPrivileges
 0001:000288A0       OdbcApi.TOdbcApiProxy.SQLColumns
 0001:00028A54       OdbcApi.TOdbcApiProxy.SQLConnect
 0001:00028BC4       OdbcApi.TOdbcApiProxy.SQLCopyDesc
 0001:00028BFC       OdbcApi.TOdbcApiProxy.SQLDataSources
 0001:00028DBC       OdbcApi.TOdbcApiProxy.SQLDescribeCol
 0001:00028F38       OdbcApi.TOdbcApiProxy.SQLDescribeParam
 0001:00028FA0       OdbcApi.TOdbcApiProxy.SQLDisconnect
 0001:00028FDC       OdbcApi.TOdbcApiProxy.SQLDriverConnect
 0001:00029188       OdbcApi.TOdbcApiProxy.SQLDrivers
 0001:000293A0       OdbcApi.TOdbcApiProxy.SQLEndTran
 0001:00029434       OdbcApi.TOdbcApiProxy.SQLError
 0001:000295D8       OdbcApi.TOdbcApiProxy.SQLExecDirect
 0001:000296A0       OdbcApi.TOdbcApiProxy.SQLExecute
 0001:000296D8       OdbcApi.TOdbcApiProxy.SQLExtendedFetch
 0001:0002973C       OdbcApi.TOdbcApiProxy.SQLFetch
 0001:00029774       OdbcApi.TOdbcApiProxy.SQLFetchScroll
 0001:000297C8       OdbcApi.TOdbcApiProxy.SQLForeignKeys
 0001:00029994       OdbcApi.TOdbcApiProxy.SQLFreeConnect
 0001:000299D4       OdbcApi.TOdbcApiProxy.SQLFreeEnv
 0001:00029ADC       OdbcApi.TOdbcApiProxy.SQLFreeHandle
 0001:00029B64       OdbcApi.TOdbcApiProxy.SQLFreeStmt
 0001:0002A6C0       OdbcApi.TOdbcApiProxy.SQLFunctionSupported
 0001:00029BA4       OdbcApi.TOdbcApiProxy.SQLGetConnectAttr
 0001:00029DD4       OdbcApi.TOdbcApiProxy.SQLGetConnectOption
 0001:00029EB4       OdbcApi.TOdbcApiProxy.SQLGetCursorName
 0001:0002A004       OdbcApi.TOdbcApiProxy.SQLGetData
 0001:0002A064       OdbcApi.TOdbcApiProxy.SQLGetDescField
 0001:0002A1DC       OdbcApi.TOdbcApiProxy.SQLGetDescRec
 0001:0002A354       OdbcApi.TOdbcApiProxy.SQLGetDiagField
 0001:0002A4AC       OdbcApi.TOdbcApiProxy.SQLGetDiagRec
 0001:0002A664       OdbcApi.TOdbcApiProxy.SQLGetEnvAttr
 0001:0002A6EC       OdbcApi.TOdbcApiProxy.SQLGetFunctions
 0001:0002B0DC       OdbcApi.TOdbcApiProxy.SQLGetInfo
 0001:0002B268       OdbcApi.TOdbcApiProxy.SQLGetInfoInt
 0001:0002B280       OdbcApi.TOdbcApiProxy.SQLGetInfoSmallint
 0001:0002B298       OdbcApi.TOdbcApiProxy.SQLGetInfoString
 0001:0002B2B4       OdbcApi.TOdbcApiProxy.SQLGetStmtAttr
 0001:0002B434       OdbcApi.TOdbcApiProxy.SQLGetStmtOption
 0001:0002B490       OdbcApi.TOdbcApiProxy.SQLGetTypeInfo
 0001:0002B4E8       OdbcApi.TOdbcApiProxy.SQLMoreResults
 0001:0002B500       OdbcApi.TOdbcApiProxy.SQLNativeSql
 0001:0002B668       OdbcApi.TOdbcApiProxy.SQLNumParams
 0001:0002B6AC       OdbcApi.TOdbcApiProxy.SQLNumResultCols
 0001:0002B6F4       OdbcApi.TOdbcApiProxy.SQLParamData
 0001:0002B738       OdbcApi.TOdbcApiProxy.SQLParamOptions
 0001:0002B78C       OdbcApi.TOdbcApiProxy.SQLPrepare
 0001:0002B858       OdbcApi.TOdbcApiProxy.SQLPrimaryKeys
 0001:0002B9BC       OdbcApi.TOdbcApiProxy.SQLProcedureColumns
 0001:0002BB60       OdbcApi.TOdbcApiProxy.SQLProcedures
 0001:0002BCC4       OdbcApi.TOdbcApiProxy.SQLPutData
 0001:0002BD14       OdbcApi.TOdbcApiProxy.SQLRowCount
 0001:0002BD54       OdbcApi.TOdbcApiProxy.SQLSetConnectAttr
 0001:0002BE7C       OdbcApi.TOdbcApiProxy.SQLSetConnectOption
 0001:0002BEF4       OdbcApi.TOdbcApiProxy.SQLSetCursorName
 0001:0002BFD0       OdbcApi.TOdbcApiProxy.SQLSetDescField
 0001:0002C0C4       OdbcApi.TOdbcApiProxy.SQLSetDescRec
 0001:0002C13C       OdbcApi.TOdbcApiProxy.SQLSetEnvAttr
 0001:0002C194       OdbcApi.TOdbcApiProxy.SQLSetParam
 0001:0002C1FC       OdbcApi.TOdbcApiProxy.SQLSetPos
 0001:0002C254       OdbcApi.TOdbcApiProxy.SQLSetScrollOptions
 0001:0002C2B4       OdbcApi.TOdbcApiProxy.SQLSetStmtAttr
 0001:0002C3D8       OdbcApi.TOdbcApiProxy.SQLSetStmtOption
 0001:0002C434       OdbcApi.TOdbcApiProxy.SQLSpecialColumns
 0001:0002C5C0       OdbcApi.TOdbcApiProxy.SQLStatistics
 0001:0002C760       OdbcApi.TOdbcApiProxy.SQLTablePrivileges
 0001:0002C8C4       OdbcApi.TOdbcApiProxy.SQLTables
 0001:0002CA98       OdbcApi.TOdbcApiProxy.SQLTransact
 0001:0002CD1C       OdbcApi.TOdbcApiProxy.SQL_ADD_RECORD
 0001:0002CD28       OdbcApi.TOdbcApiProxy.SQL_DELETE_RECORD
 0001:0002CD34       OdbcApi.TOdbcApiProxy.SQL_FUNC_EXISTS
 0001:0002CD60       OdbcApi.TOdbcApiProxy.SQL_LEN_BINARY_ATTR
 0001:0002CD68       OdbcApi.TOdbcApiProxy.SQL_LEN_DATA_AT_EXEC
 0001:0002CD70       OdbcApi.TOdbcApiProxy.SQL_LOCK_RECORD
 0001:0002CD88       OdbcApi.TOdbcApiProxy.SQL_POSITION_TO
 0001:0002CD94       OdbcApi.TOdbcApiProxy.SQL_REFRESH_RECORD
 0001:0002CDAC       OdbcApi.TOdbcApiProxy.SQL_UPDATE_RECORD
 0001:0002CAE8       OdbcApi.TOdbcApiProxy.TraceCloseLogFile
 0001:0002CB30       OdbcApi.TOdbcApiProxy.TraceOpenLogFile
 0001:0002CB8C       OdbcApi.TOdbcApiProxy.TraceReturn
 0001:0002CBC4       OdbcApi.TOdbcApiProxy.TraceVersion
 0001:0002CC08       OdbcApi.TOdbcApiProxy.TraceVSControl
 0001:00025DE0       OdbcApi.TStringHash.Add
 0001:00025EE0       OdbcApi.TStringHash.BeginLock
 0001:00025D3C       OdbcApi.TStringHash.Clear
 0001:00025CA4       OdbcApi.TStringHash.Create
 0001:00025D04       OdbcApi.TStringHash.Destroy
 0001:00025EE8       OdbcApi.TStringHash.EndLock
 0001:00025E98       OdbcApi.TStringHash.Find
 0001:00025DAC       OdbcApi.TStringHash.HashOf
 0001:00025E40       OdbcApi.TStringHash.Remove
 0001:00025E78       OdbcApi.TStringHash.ValueOf
 0001:00027CA8       OdbcApi.UnLoadOdbcDriverManager
 0004:000055A4       RegExpr..3
 0001:0002F8B8       RegExpr..ERegExpr
 0001:0002F838       RegExpr..TRegExpr
 0001:00033B84       RegExpr.ClearMatchs
 0001:00031050       RegExpr.EmitComplexBraces
 0001:000316C4       RegExpr.EmitExactly
 0001:00031778       RegExpr.EmitRange
 0001:00031874       RegExpr.EmitRangeC
 0001:00031830       RegExpr.EmitRangeCPrim
 0001:00031B8C       RegExpr.EmitRangeStr
 0001:00031148       RegExpr.EmitSimpleBraces
 0001:00031B70       RegExpr.EmitSimpleRangeC
 0001:0003403C       RegExpr.Finalization
 0001:00031734       RegExpr.HexDig
 0003:00001658       RegExpr.META
 0001:00030FF0       RegExpr.parsenum
 0002:0000046C       RegExpr.RegExpr
 0003:0000164C       RegExpr.RegExprInvertCaseFunction
 0003:00001648       RegExpr.RegExprLinePairedSeparator
 0003:00001644       RegExpr.RegExprLineSeparators
 0003:00001654       RegExpr.RegExprMetaSet
 0003:00001634       RegExpr.RegExprModifierG
 0003:00001628       RegExpr.RegExprModifierI
 0003:00001638       RegExpr.RegExprModifierM
 0003:0000162C       RegExpr.RegExprModifierR
 0003:00001630       RegExpr.RegExprModifierS
 0003:0000163C       RegExpr.RegExprSpaceChars
 0003:00001640       RegExpr.RegExprWordChars
 0001:00033BAC       RegExpr.RegMatch
 0001:00033F44       RegExpr.ReturnAddr
 0001:00030ABC       RegExpr.strcspn
 0001:000308C4       RegExpr.TRegExpr.Compile
 0001:00030AE0       RegExpr.TRegExpr.CompileRegExpr
 0001:00030468       RegExpr.TRegExpr.Create
 0001:0003057C       RegExpr.TRegExpr.Destroy
 0001:00030A34       RegExpr.TRegExpr.EmitC
 0001:000309F8       RegExpr.TRegExpr.EmitNode
 0001:00033F48       RegExpr.TRegExpr.Error
 0001:0002F928       RegExpr.TRegExpr.ErrorMsg
 0001:00033B6C       RegExpr.TRegExpr.Exec
 0001:00033BFC       RegExpr.TRegExpr.ExecPrim
 0001:00033710       RegExpr.TRegExpr.FillFirstCharSet
 0001:00032800       RegExpr.TRegExpr.GetCompilerErrorPos
 0001:000307BC       RegExpr.TRegExpr.GetModifier
 0001:00030A58       RegExpr.TRegExpr.InsertOperator
 0001:000308A8       RegExpr.TRegExpr.InvalidateProgramm
 0001:000305C4       RegExpr.TRegExpr.InvertCaseFunction
 0001:000308E4       RegExpr.TRegExpr.IsProgrammOk
 0001:00032B34       RegExpr.TRegExpr.MatchPrim
 0001:000309D8       RegExpr.TRegExpr.OpTail
 0001:00031D14       RegExpr.TRegExpr.ParseAtom
 0001:00030F50       RegExpr.TRegExpr.ParseBranch
 0001:000305E0       RegExpr.TRegExpr.ParseModifiersStr
 0001:000311BC       RegExpr.TRegExpr.ParsePiece
 0001:00030D88       RegExpr.TRegExpr.ParseReg
 0001:00032B18       RegExpr.TRegExpr.regnext
 0001:00032820       RegExpr.TRegExpr.regrepeat
 0001:00033DD8       RegExpr.TRegExpr.SetInputString
 0001:00033EA0       RegExpr.TRegExpr.SetLinePairedSeparator
 0001:00030830       RegExpr.TRegExpr.SetModifier
 0001:0003099C       RegExpr.TRegExpr.Tail
 0001:00031BC4       RegExpr.UnQuoteChar
 0004:00005598       Registry..5
 0001:00024E7C       Registry..ERegistryException
 0001:00024EDC       Registry..TRegistry
 0001:00024FA0       Registry.DataTypeToRegData
 0001:000254D4       Registry.Finalization
 0001:00024F78       Registry.IsRelative
 0001:00024F44       Registry.ReadError
 0002:00000444       Registry.Registry
 0001:00025158       Registry.TRegistry.ChangeKey
 0001:000250C8       Registry.TRegistry.CloseKey
 0001:0002503C       Registry.TRegistry.Create
 0001:00024FE4       Registry.TRegistry.Create
 0001:0002508C       Registry.TRegistry.Destroy
 0001:0002518C       Registry.TRegistry.GetBaseKey
 0001:00025418       Registry.TRegistry.GetData
 0001:000252FC       Registry.TRegistry.GetDataInfo
 0001:00025358       Registry.TRegistry.GetDataSize
 0001:000251C4       Registry.TRegistry.OpenKey
 0001:0002538C       Registry.TRegistry.ReadString
 0001:00025110       Registry.TRegistry.SetRootKey
 0001:00025498       Registry.TRegistry.ValueExists
 0003:00001620       Registry.Values
 0004:000055B4       SqlExpr..51
 0001:000353A0       SqlExpr..TFLDDesc
 0001:00035754       SqlExpr..TFLDDesc30
 0001:00035194       SqlExpr..TISQLCommand
 0001:0003550C       SqlExpr..TISQLCommand30
 0001:000350F4       SqlExpr..TISQLConnection
 0001:00035458       SqlExpr..TISQLConnection30
 0001:0003522C       SqlExpr..TISQLCursor
 0001:000355B8       SqlExpr..TISQLCursor30
 0001:00035310       SqlExpr..TISQLMetaData
 0001:000356B0       SqlExpr..TISQLMetaData30
 0003:00001818       SqlExpr.DBXDrvMap
 0003:000017A4       SqlExpr.DbxError
 0005:00000010       SqlExpr.DllHandle
 0001:000374C4       SqlExpr.Finalization
 0005:0000000C       SqlExpr.GetDriver
 0001:0003749C       SqlExpr.RegisterDbXpressLib
 0002:0000049C       SqlExpr.SqlExpr
 0001:00037294       SqlExpr.TFLDDesc30.GetbCalcField
 0001:00037278       SqlExpr.TFLDDesc30.GetefldrRights
 0001:0003725C       SqlExpr.TFLDDesc30.GetefldvVchk
 0001:00037140       SqlExpr.TFLDDesc30.GetiFldNum
 0001:00037180       SqlExpr.TFLDDesc30.GetiFldType
 0001:00037220       SqlExpr.TFLDDesc30.GetiLen
 0001:0003723C       SqlExpr.TFLDDesc30.GetiNullOffset
 0001:00037200       SqlExpr.TFLDDesc30.GetiOffset
 0001:000371A0       SqlExpr.TFLDDesc30.GetiSubType
 0001:000371C0       SqlExpr.TFLDDesc30.GetiUnits1
 0001:000371E0       SqlExpr.TFLDDesc30.GetiUnits2
 0001:0003715C       SqlExpr.TFLDDesc30.GetszName
 0001:00037444       SqlExpr.TFLDDesc30.SetbCalcField
 0001:00037428       SqlExpr.TFLDDesc30.SetefldrRights
 0001:0003740C       SqlExpr.TFLDDesc30.SetefldvVchk
 0001:000372B4       SqlExpr.TFLDDesc30.SetiFldNum
 0001:00037330       SqlExpr.TFLDDesc30.SetiFldType
 0001:000373D0       SqlExpr.TFLDDesc30.SetiLen
 0001:000373EC       SqlExpr.TFLDDesc30.SetiNullOffset
 0001:000373B0       SqlExpr.TFLDDesc30.SetiOffset
 0001:00037350       SqlExpr.TFLDDesc30.SetiSubType
 0001:00037370       SqlExpr.TFLDDesc30.SetiUnits1
 0001:00037390       SqlExpr.TFLDDesc30.SetiUnits2
 0001:000372D0       SqlExpr.TFLDDesc30.SetszName
 0001:00035CCC       SqlExpr.TISQLCommand.Destroy
 0001:00036160       SqlExpr.TISQLCommand30.close
 0001:00035D14       SqlExpr.TISQLCommand30.Create
 0001:00035D90       SqlExpr.TISQLCommand30.Destroy
 0001:00035FBC       SqlExpr.TISQLCommand30.execute
 0001:00036038       SqlExpr.TISQLCommand30.executeImmediate
 0001:000361D4       SqlExpr.TISQLCommand30.getErrorMessage
 0001:00036184       SqlExpr.TISQLCommand30.getErrorMessage
 0001:000361AC       SqlExpr.TISQLCommand30.getErrorMessageLen
 0001:000360BC       SqlExpr.TISQLCommand30.getNextCursor
 0001:00035E30       SqlExpr.TISQLCommand30.GetOption
 0001:00035F44       SqlExpr.TISQLCommand30.getParameter
 0001:00036138       SqlExpr.TISQLCommand30.getRowsAffected
 0001:00035E6C       SqlExpr.TISQLCommand30.GetStringOption
 0001:00035F88       SqlExpr.TISQLCommand30.prepare
 0001:00035DCC       SqlExpr.TISQLCommand30.SetOption
 0001:00035EEC       SqlExpr.TISQLCommand30.setParameter
 0001:00035DFC       SqlExpr.TISQLCommand30.SetStringOption
 0001:00035B64       SqlExpr.TISQLConnection30.beginTransaction
 0001:00035B8C       SqlExpr.TISQLConnection30.commit
 0001:000358E8       SqlExpr.TISQLConnection30.connect
 0001:000358C4       SqlExpr.TISQLConnection30.connect
 0001:0003580C       SqlExpr.TISQLConnection30.Create
 0001:00035888       SqlExpr.TISQLConnection30.Destroy
 0001:00035920       SqlExpr.TISQLConnection30.disconnect
 0001:00035BDC       SqlExpr.TISQLConnection30.getErrorMessage
 0001:00035C2C       SqlExpr.TISQLConnection30.getErrorMessage
 0001:00035C04       SqlExpr.TISQLConnection30.getErrorMessageLen
 0001:00035CB4       SqlExpr.TISQLConnection30.getFldDescClass
 0001:00035AA8       SqlExpr.TISQLConnection30.GetOption
 0001:00035944       SqlExpr.TISQLConnection30.getSQLCommand
 0001:000359C4       SqlExpr.TISQLConnection30.getSQLMetaData
 0001:00035AE4       SqlExpr.TISQLConnection30.GetStringOption
 0001:00035BB4       SqlExpr.TISQLConnection30.rollback
 0001:00035A44       SqlExpr.TISQLConnection30.SetOption
 0001:00035A74       SqlExpr.TISQLConnection30.SetStringOption
 0001:0003625C       SqlExpr.TISQLCursor30.Create
 0001:000362D8       SqlExpr.TISQLCursor30.Destroy
 0001:000369A0       SqlExpr.TISQLCursor30.getBcd
 0001:00036AF0       SqlExpr.TISQLCursor30.getBlob
 0001:00036AB8       SqlExpr.TISQLCursor30.getBlobSize
 0001:00036A80       SqlExpr.TISQLCursor30.getBytes
 0001:00036570       SqlExpr.TISQLCursor30.getColumnCount
 0001:0003668C       SqlExpr.TISQLCursor30.getColumnLength
 0001:000365CC       SqlExpr.TISQLCursor30.getColumnName
 0001:00036600       SqlExpr.TISQLCursor30.getColumnName
 0001:00036598       SqlExpr.TISQLCursor30.getColumnNameLength
 0001:000366C0       SqlExpr.TISQLCursor30.getColumnPrecision
 0001:000366F4       SqlExpr.TISQLCursor30.getColumnScale
 0001:00036654       SqlExpr.TISQLCursor30.getColumnType
 0001:00036434       SqlExpr.TISQLCursor30.getCurObjectTypeName
 0001:00036A48       SqlExpr.TISQLCursor30.getDate
 0001:00036968       SqlExpr.TISQLCursor30.getDouble
 0001:000364E8       SqlExpr.TISQLCursor30.getErrorMessage
 0001:00036498       SqlExpr.TISQLCursor30.getErrorMessage
 0001:000364C0       SqlExpr.TISQLCursor30.getErrorMessageLen
 0001:00036930       SqlExpr.TISQLCursor30.getInt64
 0001:000368F8       SqlExpr.TISQLCursor30.getLong
 0001:00036378       SqlExpr.TISQLCursor30.GetOption
 0001:000368C0       SqlExpr.TISQLCursor30.getShort
 0001:00036850       SqlExpr.TISQLCursor30.getString
 0001:000363B4       SqlExpr.TISQLCursor30.GetStringOption
 0001:00036A10       SqlExpr.TISQLCursor30.getTime
 0001:000369D8       SqlExpr.TISQLCursor30.getTimeStamp
 0001:00036888       SqlExpr.TISQLCursor30.getWideString
 0001:0003675C       SqlExpr.TISQLCursor30.isAutoIncrement
 0001:000367F8       SqlExpr.TISQLCursor30.isBlobSizeExact
 0001:00036728       SqlExpr.TISQLCursor30.isNullable
 0001:00036790       SqlExpr.TISQLCursor30.isReadOnly
 0001:000367C4       SqlExpr.TISQLCursor30.isSearchable
 0001:0003682C       SqlExpr.TISQLCursor30.next
 0001:00036314       SqlExpr.TISQLCursor30.SetOption
 0001:00036344       SqlExpr.TISQLCursor30.SetStringOption
 0001:00036B30       SqlExpr.TISQLMetaData30.Create
 0001:00036BAC       SqlExpr.TISQLMetaData30.Destroy
 0001:00036EB4       SqlExpr.TISQLMetaData30.getColumns
 0001:000370B8       SqlExpr.TISQLMetaData30.getErrorMessage
 0001:00037068       SqlExpr.TISQLMetaData30.getErrorMessage
 0001:00037090       SqlExpr.TISQLMetaData30.getErrorMessageLen
 0001:00036FD8       SqlExpr.TISQLMetaData30.getIndices
 0001:00036D08       SqlExpr.TISQLMetaData30.getObjectList
 0001:00036C4C       SqlExpr.TISQLMetaData30.GetOption
 0001:00036F48       SqlExpr.TISQLMetaData30.getProcedureParams
 0001:00036E24       SqlExpr.TISQLMetaData30.getProcedures
 0001:00036C88       SqlExpr.TISQLMetaData30.GetStringOption
 0001:00036D94       SqlExpr.TISQLMetaData30.getTables
 0001:00036BE8       SqlExpr.TISQLMetaData30.SetOption
 0001:00036C18       SqlExpr.TISQLMetaData30.SetStringOption
 0004:00005534       SqlTimSt..1
 0001:0001CF60       SqlTimSt..TSQLTimeStampData
 0001:0001CEA4       SqlTimSt..TSQLTimeStampVariantType
 0003:000012D8       SqlTimSt.AdjustAmt
 0003:000012E0       SqlTimSt.AdjustAmt
 0003:000012D0       SqlTimSt.AdjustAmt
 0003:000012C8       SqlTimSt.AdjustAmt
 0001:0001DF08       SqlTimSt.CheckSqlTimeStamp
 0001:0001DDF8       SqlTimSt.DateTimeToSQLTimeStamp
 0001:0001E060       SqlTimSt.Finalization
 0003:000012BC       SqlTimSt.IncrementAmount
 0001:0001D124       SqlTimSt.IsSQLTimeStampBlank
 0001:0001DCC4       SqlTimSt.IsSqlTimeStampValid
 0003:000012AC       SqlTimSt.NullSQLTimeStamp
 0001:0001DE58       SqlTimSt.SQLTimeStampToDateTime
 0001:0001DC88       SqlTimSt.SQLTimeStampToStr
 0003:000012C4       SqlTimSt.SQLTimeStampVariantType
 0002:000002B4       SqlTimSt.SqlTimSt
 0001:0001DD88       SqlTimSt.StrToSQLTimeStamp
 0001:0001DD24       SqlTimSt.TryStrToSQLTimeStamp
 0001:0001D384       SqlTimSt.TSQLTimeStampData.AdjustDate
 0001:0001D1F4       SqlTimSt.TSQLTimeStampData.AdjustDays
 0001:0001D270       SqlTimSt.TSQLTimeStampData.AdjustHours
 0001:0001D2CC       SqlTimSt.TSQLTimeStampData.AdjustMinutes
 0001:0001D1A4       SqlTimSt.TSQLTimeStampData.AdjustMonths
 0001:0001D328       SqlTimSt.TSQLTimeStampData.AdjustSeconds
 0001:0001D53C       SqlTimSt.TSQLTimeStampData.Compare
 0001:0001D72C       SqlTimSt.TSQLTimeStampData.Create
 0001:0001D7EC       SqlTimSt.TSQLTimeStampData.Create
 0001:0001D6C8       SqlTimSt.TSQLTimeStampData.Create
 0001:0001D78C       SqlTimSt.TSQLTimeStampData.Create
 0001:0001D40C       SqlTimSt.TSQLTimeStampData.DaysInMonth
 0001:0001D4B4       SqlTimSt.TSQLTimeStampData.DoAdd
 0001:0001D438       SqlTimSt.TSQLTimeStampData.DoSubtract
 0001:0001D64C       SqlTimSt.TSQLTimeStampData.GetAsDateTime
 0001:0001D62C       SqlTimSt.TSQLTimeStampData.GetAsString
 0001:0001D184       SqlTimSt.TSQLTimeStampData.GetIsBlank
 0001:0001D698       SqlTimSt.TSQLTimeStampData.SetAsDateTime
 0001:0001D66C       SqlTimSt.TSQLTimeStampData.SetAsString
 0001:0001D838       SqlTimSt.TSQLTimeStampData.SetDay
 0001:0001D854       SqlTimSt.TSQLTimeStampData.SetFractions
 0001:0001D870       SqlTimSt.TSQLTimeStampData.SetHour
 0001:0001D88C       SqlTimSt.TSQLTimeStampData.SetMinute
 0001:0001D8A8       SqlTimSt.TSQLTimeStampData.SetMonth
 0001:0001D8C4       SqlTimSt.TSQLTimeStampData.SetSecond
 0001:0001D8E0       SqlTimSt.TSQLTimeStampData.SetYear
 0001:0001DC0C       SqlTimSt.TSQLTimeStampVariantType.BinaryOp
 0001:0001D920       SqlTimSt.TSQLTimeStampVariantType.Cast
 0001:0001DA50       SqlTimSt.TSQLTimeStampVariantType.CastTo
 0001:0001D8FC       SqlTimSt.TSQLTimeStampVariantType.Clear
 0001:0001DC5C       SqlTimSt.TSQLTimeStampVariantType.Compare
 0001:0001DB90       SqlTimSt.TSQLTimeStampVariantType.Copy
 0001:0001DBF0       SqlTimSt.TSQLTimeStampVariantType.GetInstance
 0001:00024CDC       SyncObjs..TCriticalSection
 0001:00024C78       SyncObjs..TSynchroObject
 0001:00024DEC       SyncObjs.TCriticalSection.Acquire
 0001:00024D5C       SyncObjs.TCriticalSection.Create
 0001:00024DAC       SyncObjs.TCriticalSection.Destroy
 0001:00024E04       SyncObjs.TCriticalSection.Release
 0001:00024D44       SyncObjs.TSynchroObject.Acquire
 0001:00024D50       SyncObjs.TSynchroObject.Release
 0001:00005A5C       SysInit.@GetTls
 0001:00005AA8       SysInit.@InitLib
 0001:0000597C       SysInit.AllocTlsBuffer
 0004:000027FC       SysInit.DllProc
 0001:00005A38       SysInit.ExitProcessTLS
 0001:00005A00       SysInit.ExitThreadTLS
 0001:00005988       SysInit.GetTlsSize
 0004:000027F8       SysInit.HInstance
 0001:00005A9C       SysInit.InitializeModule
 0001:000059D4       SysInit.InitProcessTLS
 0001:00005990       SysInit.InitThreadTLS
 0001:0000594C       SysInit.LocalAlloc
 0001:00005954       SysInit.LocalFree
 0003:00000790       SysInit.Module
 0004:000027F5       SysInit.ModuleIsCpp
 0004:000027F4       SysInit.ModuleIsLib
 0003:0000078C       SysInit.PtrToNil
 0001:0000595C       SysInit.TlsAlloc
 0004:00002800       SysInit.tlsBuffer
 0001:00005964       SysInit.TlsFree
 0001:0000596C       SysInit.TlsGetValue
 0003:00000788       SysInit.TlsIndex
 0005:00000014       SysInit.TlsLast
 0003:000007A8       SysInit.TlsProc
 0001:00005974       SysInit.TlsSetValue
 0004:000005B8       System..6
 0001:000001C8       System..TInterfacedObject
 0001:000000D4       System..TObject
 0001:00002298       System.@AbstractError
 0001:00002CF0       System.@AfterConstruction
 0001:00003828       System.@Assert
 0001:0000239C       System.@AStrCmp
 0001:00002D40       System.@BeforeDestruction
 0001:000029B0       System.@BoundErr
 0001:00002C28       System.@CallDynaInst
 0001:00002C98       System.@ClassCreate
 0001:00002CE8       System.@ClassDestroy
 0001:00002308       System.@Close
 0001:000020F8       System.@Copy
 0001:00004654       System.@CopyArray
 0001:00004538       System.@CopyRecord
 0001:000047BC       System.@DispCallByIDError
 0001:0000475C       System.@Dispose
 0001:00003264       System.@DoneExcept
 0001:00004D18       System.@DynArrayAsg
 0001:00004CDC       System.@DynArrayClear
 0001:00004BC8       System.@DynArrayCopy
 0001:00004BE8       System.@DynArrayCopyRange
 0001:00004A08       System.@DynArrayHigh
 0001:00004A00       System.@DynArrayLength
 0001:00004BBC       System.@DynArraySetLength
 0001:0000334C       System.@ExceptionHandler
 0001:0000240C       System.@FillChar
 0001:00004514       System.@Finalize
 0001:00004428       System.@FinalizeArray
 0001:000043DC       System.@FinalizeRecord
 0001:000029A4       System.@FpuInit
 0001:000028E0       System.@FpuMaskInit
 0001:00001F38       System.@FreeMem
 0001:00001F1C       System.@GetMem
 0001:00003810       System.@Halt
 0001:00003734       System.@Halt0
 0001:00002E54       System.@HandleAnyException
 0001:00003108       System.@HandleFinally
 0001:000031B0       System.@HandleFinallyInternal
 0001:00002F80       System.@HandleOnException
 0001:000043D0       System.@Initialize
 0001:0000433C       System.@InitializeArray
 0001:0000430C       System.@InitializeRecord
 0001:000035F0       System.@InitImports
 0001:000035C8       System.@InitResStringImports
 0001:00005420       System.@IntfAddRef
 0001:000053F0       System.@IntfCast
 0001:000053AC       System.@IntfClear
 0001:000053C4       System.@IntfCopy
 0001:00002BD4       System.@IsClass
 0001:000028B0       System.@isNECWindows
 0001:00003CFC       System.@LStrAddRef
 0001:0000386C       System.@LStrArrayClr
 0001:0000389C       System.@LStrAsg
 0001:00003B14       System.@LStrCat
 0001:00003B58       System.@LStrCat3
 0001:00003BCC       System.@LStrCatN
 0001:00003848       System.@LStrClr
 0001:00003C58       System.@LStrCmp
 0001:00003D6C       System.@LStrCopy
 0001:00003DAC       System.@LStrDelete
 0001:00003AB8       System.@LStrFromArray
 0001:00003A30       System.@LStrFromChar
 0001:00003A40       System.@LStrFromPChar
 0001:00003938       System.@LStrFromPCharLen
 0001:00003A70       System.@LStrFromPWChar
 0001:000039A4       System.@LStrFromPWCharLen
 0001:00003AAC       System.@LStrFromString
 0001:00003AD0       System.@LStrFromWStr
 0001:000038E0       System.@LStrLAsg
 0001:00003B08       System.@LStrLen
 0001:00003F38       System.@LStrSetLength
 0001:00003D0C       System.@LStrToPChar
 0001:00003AE4       System.@LStrToString
 0001:00004748       System.@New
 0001:0000390C       System.@NewAnsiString
 0001:00003FD0       System.@NewWideString
 0001:000025C4       System.@Pow10
 0001:00002390       System.@PStrCpy
 0001:00002360       System.@PStrNCat
 0001:00003210       System.@RaiseAgain
 0001:000031E8       System.@RaiseExcept
 0001:00001F50       System.@ReallocMem
 0001:00002268       System.@ROUND
 0001:0000381C       System.@RunError
 0001:0000257C       System.@SetElem
 0001:000025AC       System.@SetSub
 0001:000025A0       System.@SetUnion
 0001:00003500       System.@StartLib
 0001:00000308       System.@strlen
 0001:00002274       System.@TRUNC
 0001:00003294       System.@TryFinallyExit
 0001:00003D64       System.@UniqueStringA
 0001:000047E8       System.@ValInt64
 0001:000024A8       System.@ValLong
 0001:00004410       System.@VarClr
 0001:00004520       System.@VarCopy
 0001:000042EC       System.@WStrAddRef
 0001:00004010       System.@WStrArrayClr
 0001:00004034       System.@WStrAsg
 0001:00004190       System.@WStrCatN
 0001:00003FF8       System.@WStrClr
 0001:000041D8       System.@WStrCmp
 0001:0000425C       System.@WStrCopy
 0001:00004164       System.@WStrFromLStr
 0001:0000405C       System.@WStrFromPCharLen
 0001:0000410C       System.@WStrFromPWChar
 0001:000040E8       System.@WStrFromPWCharLen
 0001:00004148       System.@WStrFromWArray
 0001:00004184       System.@WStrLen
 0001:000042A8       System.@WStrSetLength
 0001:00004174       System.@WStrToPWChar
 0001:000020C8       System.@_IOTest
 0001:000047C4       System.@_llmul
 0004:0000002C       System.AbstractErrorProc
 0001:00002030       System.AcquireExceptionObject
 0001:0000523C       System.AddModuleUnloadProc
 0001:0000524C       System.AddModuleUnloadProc
 0001:000007F0       System.AllocateLargeBlock
 0001:00001ECC       System.AllocMem
 0001:00000738       System.AllocNewSequentialFeedMediumPool
 0004:000005C0       System.AllocSize2SmallBlockTypeIndX4
 0001:0000583C       System.AnsiToUtf8
 0001:00001350       System.AppendStringToBuffer
 0004:00000024       System.AssertErrorProc
 0001:000006CC       System.BinMediumSequentialFeedRemainder
 0001:00001C7C       System.BuildBlockTypeLookupTable
 0001:00001234       System.CardinalToStrBuf
 0001:00003968       System.CharFromWChar
 0001:00000288       System.CharNext
 0001:00002DD0       System.CheckJmp
 0001:00001554       System.CheckSmallBlockPoolForLeaks
 0004:00000040       System.CmdLine
 0004:0000003C       System.CmdShow
 0001:00004A10       System.CopyArray
 0003:00000038       System.Copyright
 0003:00000024       System.DebugHook
 0003:00000020       System.Default8087CW
 0004:000005BC       System.DefaultSystemCodePage
 0001:00004D68       System.DelayLoadResourceModule
 0001:000003AC       System.DestroyWindow
 0003:00000778       System.dig
 0004:00000000       System.DispCallByIDProc
 0001:00004A28       System.DynArrayClear
 0001:00004A30       System.DynArraySetLength
 0003:00000750       System.errCaption
 0001:000020BC       System.Error
 0003:00000004       System.ErrorAddr
 0001:00002070       System.ErrorAt
 0004:00000008       System.ErrorProc
 0004:000003E8       System.ErrOutput
 0004:0000000C       System.ExceptClsProc
 0004:0000001C       System.ExceptionClass
 0001:00002010       System.ExceptObject
 0004:00000010       System.ExceptObjProc
 0004:00000004       System.ExceptProc
 0003:00000000       System.ExitCode
 0001:00003678       System.ExitDll
 0004:00000048       System.ExitProc
 0001:00000290       System.ExitProcess
 0004:00000028       System.ExitProcessProc
 0004:000027BC       System.ExpectedMemoryLeaks
 0004:000027C0       System.ExpectedMemoryLeaksListLocked
 0003:00000008       System.FileMode
 0001:000058EC       System.Finalization
 0001:00004A20       System.FinalizeArray
 0001:00001E78       System.FinalizeMemoryManager
 0001:00003434       System.FinalizeUnits
 0001:00004DE8       System.FindBS
 0001:000002A0       System.FindClose
 0001:000002A8       System.FindFirstFile
 0001:00004D40       System.FindHInstance
 0001:00004DB0       System.FindResourceHInstance
 0001:000022FC       System.Flush
 0001:000025BC       System.FPower10
 0001:00001DE8       System.FreeAllMemory
 0001:00000854       System.FreeLargeBlock
 0001:000002B0       System.FreeLibrary
 0001:000058E4       System.GetACP
 0001:00000370       System.GetCmdShow
 0001:000002B8       System.GetCommandLine
 0001:00000368       System.GetCurrentThreadId
 0001:00002BF8       System.GetDynaMethod
 0001:000011F8       System.GetFirstAndLastSmallBlockInPool
 0001:000011B8       System.GetFirstMediumBlockInPool
 0001:00001B18       System.GetHeapStatus
 0001:000028A8       System.GetKeyboardType
 0001:000002C0       System.GetLocaleInfo
 0001:00001FA0       System.GetMemoryManager
 0001:000002C8       System.GetModuleFileName
 0001:000002D0       System.GetModuleHandle
 0001:00001420       System.GetObjectClass
 0001:000002D8       System.GetProcAddress
 0001:000002E0       System.GetStartupInfo
 0001:00000260       System.GetStdHandle
 0001:000002E8       System.GetThreadLocale
 0004:000027C8       System.InitContext
 0001:00001CC0       System.InitializeMemoryManager
 0004:00000044       System.InitProc
 0001:00003498       System.InitUnits
 0005:00000004       System.InOutRes
 0004:00000050       System.Input
 0001:0000066C       System.InsertMediumBlockIntoBin
 0001:00000360       System.InterlockedDecrement
 0001:00000358       System.InterlockedIncrement
 0001:000022B4       System.InternalFlush
 0001:00001368       System.InternalIsValidClass
 0001:00003D18       System.InternalUniqueString
 0001:00002ACC       System.InvokeImplGetter
 0001:0000213C       System.IOResult
 0004:0000004C       System.IsConsole
 0004:00000038       System.IsLibrary
 0001:00001FC8       System.IsMemoryManagerSet
 0004:0000004D       System.IsMultiThread
 0003:00000028       System.JITEnable
 0004:000027AC       System.LargeBlocksCircularList
 0004:000027A8       System.LargeBlocksLocked
 0004:0000071C       System.LastSequentiallyFedMediumBlock
 0003:00000030       System.LibModuleList
 0001:000002F0       System.LoadLibraryEx
 0001:00004FCC       System.LoadResourceModule
 0001:0000588C       System.LoadResString
 0001:000002F8       System.LoadString
 0001:000005A0       System.LockAllSmallBlockTypes
 0001:00000414       System.LockCmpxchg
 0001:00001450       System.LockExpectedMemoryLeaksList
 0001:000007B0       System.LockLargeBlocks
 0001:000005EC       System.LockMediumBlocks
 0001:00000300       System.lstrcpyn
 0004:00000030       System.MainInstance
 0004:00000034       System.MainThreadID
 0001:00003614       System.MakeErrorMessage
 0001:000032AC       System.MapToRunError
 0004:00000728       System.MediumBlockBinBitmaps
 0004:00000724       System.MediumBlockBinGroupBitmap
 0004:000007A8       System.MediumBlockBins
 0004:00000708       System.MediumBlockPoolsCircularList
 0004:00000718       System.MediumBlocksLocked
 0004:00000720       System.MediumSequentialFeedBytesLeft
 0003:0000071C       System.MemoryManager
 0001:00000298       System.MessageBox
 0004:00000706       System.MinimumBlockAlignment
 0004:000027C4       System.MMSharingWindow
 0003:00000034       System.ModuleUnloadList
 0001:0000215C       System.Move
 0001:0000041C       System.Move12
 0001:00000430       System.Move20
 0001:00000450       System.Move28
 0001:0000047C       System.Move36
 0001:0000049C       System.Move44
 0001:000004C0       System.Move52
 0001:000004EC       System.Move60
 0001:0000051C       System.Move68
 0001:00000554       System.MoveX16L4
 0001:00000584       System.MoveX8L4
 0001:00000310       System.MultiByteToWideChar
 0001:00001194       System.NextMediumBlock
 0003:0000002C       System.NoErrMsg
 0001:00002DBC       System.NotifyAnyExcept
 0001:00002D90       System.NotifyExcept
 0001:00002DF0       System.NotifyExceptFinally
 0001:000052D0       System.NotifyModuleUnload
 0001:00002D6C       System.NotifyNonDelphiException
 0001:00002DA8       System.NotifyOnExcept
 0001:00002D50       System.NotifyReRaise
 0001:00002E18       System.NotifyTerminate
 0001:00002E34       System.NotifyUnhandled
 0001:00004778       System.OleStrToStrVar
 0004:0000021C       System.Output
 0001:00003DF4       System.Pos
 0001:00000268       System.RaiseException
 0004:00000014       System.RaiseExceptionProc
 0005:00000000       System.RaiseListPtr
 0001:00000318       System.RegCloseKey
 0001:00001EE4       System.RegisterExpectedMemoryLeak
 0001:0000532C       System.RegisterModule
 0001:00000320       System.RegOpenKeyEx
 0001:00000328       System.RegQueryValueEx
 0003:00000734       System.reMap
 0001:0000062C       System.RemoveMediumFreeBlock
 0001:00005244       System.RemoveModuleUnloadProc
 0001:0000526C       System.RemoveModuleUnloadProc
 0004:000005B4       System.ReportMemoryLeaksOnShutdown
 0001:00000270       System.RtlUnwind
 0004:00000018       System.RTLUnwindProc
 0003:00000758       System.runErrMsg
 0001:00002064       System.RunErrorAt
 0004:00000020       System.SafeCallErrorProc
 0001:000016A0       System.ScanForMemoryLeaks
 0001:000033EC       System.SetExceptionHandler
 0001:000020E8       System.SetInOutRes
 0001:00001FB4       System.SetMemoryManager
 0001:000003A4       System.Sleep
 0003:0000003C       System.SmallBlockTypes
 0001:00003F9C       System.StringOfChar
 0001:0000479C       System.StringToOleStr
 0001:00001164       System.SysAllocMem
 0001:00000340       System.SysAllocStringLen
 0001:00000BF8       System.SysFreeMem
 0001:00000350       System.SysFreeString
 0001:00000890       System.SysGetMem
 0001:00000DD8       System.SysReallocMem
 0001:00000348       System.SysReAllocStringLen
 0001:000014BC       System.SysRegisterExpectedMemoryLeak
 0002:00000000       System.System
 0001:000014FC       System.SysUnregisterExpectedMemoryLeak
 0004:0000004E       System.Test8086
 0001:0000542C       System.TInterfacedObject.AfterConstruction
 0001:00005438       System.TInterfacedObject.BeforeDestruction
 0001:00005448       System.TInterfacedObject.NewInstance
 0001:00005458       System.TInterfacedObject.QueryInterface
 0001:00005480       System.TInterfacedObject._AddRef
 0001:00005494       System.TInterfacedObject._Release
 0001:00002C68       System.TObject.AfterConstruction
 0001:00002C6C       System.TObject.BeforeDestruction
 0001:00002C54       System.TObject.ClassInfo
 0001:000029C0       System.TObject.ClassName
 0001:000029D4       System.TObject.ClassParent
 0001:000029B8       System.TObject.ClassType
 0001:00002AAC       System.TObject.CleanupInstance
 0001:00002A18       System.TObject.Create
 0001:00002C64       System.TObject.DefaultHandler
 0001:00002A38       System.TObject.Destroy
 0001:00002C70       System.TObject.Dispatch
 0001:00002A48       System.TObject.Free
 0001:000029FC       System.TObject.FreeInstance
 0001:00002AFC       System.TObject.GetInterface
 0001:00002B90       System.TObject.GetInterfaceEntry
 0001:00002C40       System.TObject.InheritsFrom
 0001:00002A54       System.TObject.InitInstance
 0001:00002A10       System.TObject.InstanceSize
 0001:000029E0       System.TObject.NewInstance
 0001:00002C5C       System.TObject.SafeCallException
 0001:00004E08       System.ToLongPath
 0001:00000278       System.UnhandledExceptionFilter
 0001:000054BC       System.UnicodeToUtf8
 0001:00003D5C       System.UniqueString
 0001:00001F00       System.UnregisterExpectedMemoryLeak
 0001:0000533C       System.UnregisterModule
 0001:0000340C       System.UnsetExceptionHandler
 0001:0000225C       System.UpCase
 0001:00005784       System.UTF8Decode
 0001:000056C8       System.UTF8Encode
 0001:00005598       System.Utf8ToUnicode
 0003:00000010       System.VarAddRefProc
 0003:0000000C       System.VarClearProc
 0003:00000014       System.VarCopyProc
 0003:00000018       System.VarToLStrProc
 0003:0000001C       System.VarToWStrProc
 0001:00000394       System.VirtualAlloc
 0001:0000039C       System.VirtualFree
 0001:00000338       System.VirtualQuery
 0001:00003988       System.WCharFromChar
 0001:0000476C       System.WideCharLenToStrVar
 0001:00000330       System.WideCharToMultiByte
 0001:000036A8       System.WriteErrorMessage
 0001:00000280       System.WriteFile
 0001:00003FC8       System.WStrError
 0001:00003FE8       System.WStrSet
 0004:00004B50       SysUtils..35
 0001:00007D14       SysUtils..EAbstractError
 0001:00007AEC       SysUtils..EAccessViolation
 0001:00007CB4       SysUtils..EAssertionFailed
 0001:00007C00       SysUtils..EControlC
 0001:00007A90       SysUtils..EConvertError
 0001:00007714       SysUtils..EDivByZero
 0001:00007604       SysUtils..EExternal
 0001:0000765C       SysUtils..EExternalException
 0001:000074F4       SysUtils..EHeapException
 0001:000075AC       SysUtils..EInOutError
 0001:000076BC       SysUtils..EIntError
 0001:00007D70       SysUtils..EIntfCastError
 0001:000077C4       SysUtils..EIntOverflow
 0001:00007A34       SysUtils..EInvalidCast
 0001:00007878       SysUtils..EInvalidOp
 0001:000079D8       SysUtils..EInvalidPointer
 0001:00007820       SysUtils..EMathError
 0001:00007DCC       SysUtils..EOSError
 0001:00007550       SysUtils..EOutOfMemory
 0001:00007928       SysUtils..EOverflow
 0001:00007B4C       SysUtils..EPrivilege
 0001:0000776C       SysUtils..ERangeError
 0001:00007E24       SysUtils..ESafecallException
 0001:00007BA4       SysUtils..EStackOverflow
 0001:00007980       SysUtils..EUnderflow
 0001:00007C58       SysUtils..EVariantError
 0001:0000748C       SysUtils..Exception
 0001:000078D0       SysUtils..EZeroDivide
 0001:00007FB4       SysUtils..TMultiReadExclusiveWriteSynchronizer
 0001:00007ED8       SysUtils..TThreadLocalCounter
 0001:0000C9A8       SysUtils.AbstractErrorHandler
 0003:00000F1C       SysUtils.AccessMode
 0001:000083A8       SysUtils.AnsiCompareText
 0001:00008AFC       SysUtils.AnsiLastChar
 0001:0000D464       SysUtils.AnsiPos
 0001:0000D4B0       SysUtils.AnsiStrPos
 0001:0000D588       SysUtils.AnsiStrRScan
 0001:0000D5D8       SysUtils.AnsiStrScan
 0001:00008350       SysUtils.AnsiUpperCase
 0001:0000A3E8       SysUtils.AppendChars
 0001:0000A84C       SysUtils.AppendFormat
 0001:0000A47C       SysUtils.AppendNumber
 0001:0000A448       SysUtils.AppendString
 0001:0000C970       SysUtils.AssertErrorHandler
 0001:00008D00       SysUtils.BackfillGetDiskFreeSpaceEx
 0001:0000896C       SysUtils.BoolToStr
 0001:0000D08C       SysUtils.ByteToCharIndex
 0001:0000D02C       SysUtils.ByteToCharLen
 0001:0000CFC8       SysUtils.ByteType
 0001:0000CF1C       SysUtils.ByteTypeTest
 0004:00004B5C       SysUtils.CharHash
 0001:0000D3C0       SysUtils.CharLength
 0001:0000D1F8       SysUtils.CharToByteIndex
 0001:0000D2B0       SysUtils.CharToByteLen
 0001:0000E738       SysUtils.ClearHashTables
 0001:000081FC       SysUtils.CompareMem
 0001:000081CC       SysUtils.CompareStr
 0001:00008290       SysUtils.CompareText
 0001:00008800       SysUtils.CompareWith
 0001:0000C29C       SysUtils.ConvertAddr
 0001:0000A57C       SysUtils.ConvertEraString
 0001:00008044       SysUtils.ConvertError
 0001:00008064       SysUtils.ConvertErrorFmt
 0001:0000A71C       SysUtils.ConvertYearString
 0001:0000D130       SysUtils.CountChars
 0001:0000C8A8       SysUtils.CreateAssertException
 0001:0000CAA4       SysUtils.CreateAVObject
 0001:0000C794       SysUtils.CreateInOutError
 0003:00000F14       SysUtils.cSimpleBoolStrs
 0004:00004A48       SysUtils.CurrencyDecimals
 0004:00004A44       SysUtils.CurrencyFormat
 0004:00004A40       SysUtils.CurrencyString
 0001:0000A3C8       SysUtils.CurrentYear
 0001:00009CD4       SysUtils.CurrToStr
 0001:00008518       SysUtils.CvtInt
 0001:00008584       SysUtils.CvtInt64
 0003:00000F54       SysUtils.CWNear
 0004:00004A49       SysUtils.DateSeparator
 0001:0000B054       SysUtils.DateTimeToString
 0001:00009E40       SysUtils.DateTimeToTimeStamp
 0001:0000A398       SysUtils.DayOfWeek
 0003:00000F50       SysUtils.DCon10
 0004:00004A47       SysUtils.DecimalSeparator
 0001:0000A368       SysUtils.DecodeDate
 0001:0000A1EC       SysUtils.DecodeDateFully
 0001:0000A008       SysUtils.DecodeTime
 0003:00000FE0       SysUtils.DefLongDayNames
 0003:00000F94       SysUtils.DefLongMonthNames
 0003:00000FC4       SysUtils.DefShortDayNames
 0003:00000F64       SysUtils.DefShortMonthNames
 0001:00008028       SysUtils.DivMod
 0001:0000CE18       SysUtils.DoneExceptions
 0001:0000C758       SysUtils.EHeapException.FreeInstance
 0003:00000E9C       SysUtils.EmptyStr
 0003:00000EA0       SysUtils.EmptyWideStr
 0001:0000A1B0       SysUtils.EncodeDate
 0001:00009FC4       SysUtils.EncodeTime
 0001:0000BE5C       SysUtils.EnumEraNames
 0001:0000BEA8       SysUtils.EnumEraYearOffsets
 0004:00004B10       SysUtils.EraNames
 0001:0000B460       SysUtils.EraToYear
 0004:00004B2C       SysUtils.EraYearOffsets
 0001:0000C838       SysUtils.ErrorHandler
 0003:00000FFC       SysUtils.ErrorMap
 0001:0000CD68       SysUtils.ExceptHandler
 0001:0000C540       SysUtils.Exception.Create
 0001:0000C588       SysUtils.Exception.CreateFmt
 0001:0000C704       SysUtils.Exception.CreateHelp
 0001:0000C618       SysUtils.Exception.CreateRes
 0001:0000C660       SysUtils.Exception.CreateResFmt
 0001:0000C2AC       SysUtils.ExceptionErrorMessage
 0003:00001034       SysUtils.ExceptMap
 0001:00008CBC       SysUtils.ExpandFileName
 0001:00008C5C       SysUtils.ExtractFileExt
 0001:00008C18       SysUtils.ExtractFileName
 0001:00008BD8       SysUtils.ExtractFilePath
 0004:00004B4C       SysUtils.FalseBoolStrs
 0003:00000F44       SysUtils.FCon1E18
 0001:000089C8       SysUtils.FileOpen
 0001:00008A38       SysUtils.FileRead
 0001:00008AA8       SysUtils.FileSeek
 0001:00008A70       SysUtils.FileWrite
 0001:0000EA50       SysUtils.Finalization
 0004:0000545C       SysUtils.FLanguages
 0001:00009964       SysUtils.FloatToDecimal
 0001:00009CA4       SysUtils.FloatToStr
 0001:00009D04       SysUtils.FloatToStrF
 0001:00009690       SysUtils.FloatToText
 0003:00000F58       SysUtils.FMSecsPerDay
 0001:00009528       SysUtils.FmtStr
 0001:00009500       SysUtils.Format
 0003:00000F60       SysUtils.Format
 0001:00009130       SysUtils.FormatBuf
 0001:0000911C       SysUtils.FormatClearStr
 0001:0000907C       SysUtils.FormatError
 0003:00000F3C       SysUtils.FormatErrorStrs
 0001:000090E4       SysUtils.FormatVarToStr
 0001:0000E68C       SysUtils.FreeAndNil
 0001:0000E02C       SysUtils.FreeTerminateProcs
 0001:0000A4CC       SysUtils.GetCount
 0001:0000A504       SysUtils.GetDate
 0001:0000B32C       SysUtils.GetDateOrder
 0003:00000F10       SysUtils.GetDiskFreeSpaceEx
 0001:0000BF34       SysUtils.GetEraNamesAndYearOffsets
 0001:0000B3FC       SysUtils.GetEraYearOffset
 0001:0000CA78       SysUtils.GetExceptionClass
 0001:0000CC88       SysUtils.GetExceptionObject
 0001:0000D794       SysUtils.GetFormatSettings
 0001:0000BCA8       SysUtils.GetLocaleChar
 0001:0000BC4C       SysUtils.GetLocaleStr
 0001:0000BD28       SysUtils.GetMonthDayNames
 0001:0000A53C       SysUtils.GetTime
 0003:00000F0C       SysUtils.HexDisplayPrefix
 0003:00000F5C       SysUtils.IMSecsPerDay
 0001:0000E060       SysUtils.InitDriveSpacePtr
 0001:0000CD90       SysUtils.InitExceptions
 0001:0000D630       SysUtils.InitLeadBytes
 0001:0000CE9C       SysUtils.InitPlatformId
 0001:0000D6A8       SysUtils.InitSysLocale
 0001:0000E0D0       SysUtils.InterlockedDecrement
 0001:0000E0DC       SysUtils.InterlockedExchange
 0001:0000E0E4       SysUtils.InterlockedExchangeAdd
 0001:0000E0C4       SysUtils.InterlockedIncrement
 0001:00008678       SysUtils.IntToHex
 0001:00008650       SysUtils.IntToStr
 0001:00008564       SysUtils.IntToStr
 0004:00004B58       SysUtils.InvalidPointer
 0001:0000A068       SysUtils.IsLeapYear
 0001:00008B58       SysUtils.LastDelimiter
 0003:00000EEC       SysUtils.LeadBytes
 0004:00004B0E       SysUtils.ListSeparator
 0001:0000BCE4       SysUtils.LocalGetLocaleStr
 0004:00004A50       SysUtils.LongDateFormat
 0004:00004AE4       SysUtils.LongDayNames
 0004:00004A98       SysUtils.LongMonthNames
 0004:00004A64       SysUtils.LongTimeFormat
 0001:00008130       SysUtils.LowerCase
 0001:0000C9C4       SysUtils.MapException
 0001:0000DCF8       SysUtils.ModuleUnloaded
 0003:00000EBC       SysUtils.MonthDays
 0001:00009F0C       SysUtils.MSecsToTimeStamp
 0004:00004A45       SysUtils.NegCurrFormat
 0001:0000D410       SysUtils.NextCharIndex
 0004:00004B54       SysUtils.OutOfMemory
 0001:0000964C       SysUtils.PutExponent
 0001:0000C960       SysUtils.RaiseAssertException
 0001:0000DF50       SysUtils.RaiseLastOSError
 0001:0000DF60       SysUtils.RaiseLastOSError
 0001:0000E6B0       SysUtils.SafeLoadLibrary
 0001:0000832C       SysUtils.SameText
 0001:0000B0C0       SysUtils.ScanBlanks
 0001:0000B2CC       SysUtils.ScanChar
 0001:0000B4C8       SysUtils.ScanDate
 0001:0000B100       SysUtils.ScanNumber
 0001:0000B1B4       SysUtils.ScanString
 0001:0000B854       SysUtils.ScanTime
 0001:0000B394       SysUtils.ScanToNumber
 0003:00000F28       SysUtils.ShareMode
 0004:00004A4C       SysUtils.ShortDateFormat
 0004:00004AC8       SysUtils.ShortDayNames
 0004:00004A68       SysUtils.ShortMonthNames
 0004:00004A60       SysUtils.ShortTimeFormat
 0001:0000C464       SysUtils.ShowException
 0001:0000DF48       SysUtils.Sleep
 0001:00009010       SysUtils.StrAlloc
 0001:0000CFFC       SysUtils.StrByteType
 0001:0000D370       SysUtils.StrCharLength
 0001:00008E30       SysUtils.StrComp
 0001:00008DC4       SysUtils.StrCopy
 0001:00008EBC       SysUtils.StrIComp
 0001:0000DB28       SysUtils.StringReplace
 0001:00008EFC       SysUtils.StrLComp
 0001:00008DFC       SysUtils.StrLCopy
 0001:00008D80       SysUtils.StrLen
 0001:000094A8       SysUtils.StrLFmt
 0001:00008F24       SysUtils.StrLIComp
 0001:00008D98       SysUtils.StrMove
 0001:0000903C       SysUtils.StrNew
 0001:0000D3A4       SysUtils.StrNextChar
 0001:00008FF4       SysUtils.StrPas
 0001:00008FA0       SysUtils.StrPos
 0001:00008F68       SysUtils.StrScan
 0001:00009D40       SysUtils.StrToFloat
 0001:000086A0       SysUtils.StrToInt
 0001:000086E0       SysUtils.StrToIntDef
 0001:0000BBE8       SysUtils.SysErrorMessage
 0004:00004B00       SysUtils.SysLocale
 0002:000000D0       SysUtils.SysUtils
 0003:000010E4       SysUtils.TerminateProcList
 0001:00009B90       SysUtils.TextToFloat
 0004:00004A46       SysUtils.ThousandSeparator
 0004:00004A58       SysUtils.TimeAMString
 0004:00004A5C       SysUtils.TimePMString
 0004:00004A54       SysUtils.TimeSeparator
 0001:00009ED0       SysUtils.TimeStampToDateTime
 0001:00009F2C       SysUtils.TimeStampToMSecs
 0001:0000E580       SysUtils.TMultiReadExclusiveWriteSynchronizer.BeginRead
 0001:0000E438       SysUtils.TMultiReadExclusiveWriteSynchronizer.BeginWrite
 0001:0000E3B0       SysUtils.TMultiReadExclusiveWriteSynchronizer.BlockReaders
 0001:0000E2C4       SysUtils.TMultiReadExclusiveWriteSynchronizer.Create
 0001:0000E354       SysUtils.TMultiReadExclusiveWriteSynchronizer.Destroy
 0001:0000E608       SysUtils.TMultiReadExclusiveWriteSynchronizer.EndRead
 0001:0000E514       SysUtils.TMultiReadExclusiveWriteSynchronizer.EndWrite
 0001:0000E3E0       SysUtils.TMultiReadExclusiveWriteSynchronizer.UnblockOneWriter
 0001:0000E3C8       SysUtils.TMultiReadExclusiveWriteSynchronizer.UnblockReaders
 0001:0000E3F8       SysUtils.TMultiReadExclusiveWriteSynchronizer.WaitForReadSignal
 0001:0000E418       SysUtils.TMultiReadExclusiveWriteSynchronizer.WaitForWriteSignal
 0001:0000BFF8       SysUtils.TranslateDateFormat
 0001:00008418       SysUtils.Trim
 0001:000084A0       SysUtils.Trim
 0004:00004B48       SysUtils.TrueBoolStrs
 0001:0000A0AC       SysUtils.TryEncodeDate
 0001:00009F44       SysUtils.TryEncodeTime
 0001:000088BC       SysUtils.TryStrToBool
 0001:00009E18       SysUtils.TryStrToCurr
 0001:0000BA70       SysUtils.TryStrToDate
 0001:0000BB28       SysUtils.TryStrToDateTime
 0001:00009D80       SysUtils.TryStrToFloat
 0001:00009DE0       SysUtils.TryStrToFloat
 0001:00009DA8       SysUtils.TryStrToFloat
 0001:00008710       SysUtils.TryStrToInt
 0001:0000873C       SysUtils.TryStrToInt64
 0001:0000BACC       SysUtils.TryStrToTime
 0001:0000E23C       SysUtils.TThreadLocalCounter.Delete
 0001:0000E0EC       SysUtils.TThreadLocalCounter.Destroy
 0001:0000E168       SysUtils.TThreadLocalCounter.HashIndex
 0001:0000E18C       SysUtils.TThreadLocalCounter.Open
 0001:0000E260       SysUtils.TThreadLocalCounter.Recycle
 0003:00000EB8       SysUtils.TwoDigitYearCenturyWindow
 0004:0000505C       SysUtils.UnitHashBuckets
 0001:00008094       SysUtils.UpperCase
 0004:00004C5C       SysUtils.ValidatedUnitHashBuckets
 0001:00009E84       SysUtils.ValidateTimeStamp
 0001:0000876C       SysUtils.VerifyBoolStrArray
 0003:00000EB0       SysUtils.Win32BuildNumber
 0001:0000E008       SysUtils.Win32Check
 0003:00000EB4       SysUtils.Win32CSDVersion
 0003:00000EA8       SysUtils.Win32MajorVersion
 0003:00000EAC       SysUtils.Win32MinorVersion
 0003:00000EA4       SysUtils.Win32Platform
 0004:000054FC       TypInfo..6
 0001:00016C18       TypInfo..EPropertyConvertError
 0001:00016BBC       TypInfo..EPropertyError
 0001:00016B04       TypInfo..TPublishableVariantType
 0001:00017DD8       TypInfo.AssignLongStr
 0001:000185A0       TypInfo.AssignVariant
 0003:0000129C       TypInfo.BooleanIdents
 0003:000012A4       TypInfo.DotSep
 0001:00018864       TypInfo.Finalization
 0001:000186A0       TypInfo.GetAccessToProperty
 0001:00018754       TypInfo.GetDynArrayProp
 0001:000175E4       TypInfo.GetEnumName
 0001:000176EC       TypInfo.GetEnumNameValue
 0001:00017954       TypInfo.GetEnumProp
 0001:00017738       TypInfo.GetEnumValue
 0001:00018204       TypInfo.GetFloatProp
 0001:0001863C       TypInfo.GetInt64Prop
 0001:00017DF4       TypInfo.GetLongStrProp
 0001:00017884       TypInfo.GetOrdProp
 0001:00016CF8       TypInfo.GetPropInfo
 0001:00016D24       TypInfo.GetPropInfo
 0001:00017830       TypInfo.GetPropInfo
 0001:000177C0       TypInfo.GetPropInfo
 0001:00016D50       TypInfo.GetPropValue
 0001:00016DA8       TypInfo.GetPropValue
 0001:000179E4       TypInfo.GetSetProp
 0001:00017CC8       TypInfo.GetShortStrProp
 0001:00017D60       TypInfo.GetShortStrPropAsLongStr
 0001:00017F34       TypInfo.GetStrProp
 0001:000175D8       TypInfo.GetTypeData
 0001:000185BC       TypInfo.GetVariantProp
 0001:00017FF0       TypInfo.GetWideStrProp
 0001:00017E74       TypInfo.GetWideStrPropAsLongStr
 0001:00017B18       TypInfo.NextWord
 0001:00016CA8       TypInfo.PropertyNotFound
 0001:000170C0       TypInfo.RangedCharValue
 0001:00017068       TypInfo.RangedValue
 0001:00016CDC       TypInfo.RangeError
 0001:000187FC       TypInfo.SetDynArrayProp
 0001:00017984       TypInfo.SetEnumProp
 0001:00018350       TypInfo.SetFloatProp
 0001:00018664       TypInfo.SetInt64Prop
 0001:00017E34       TypInfo.SetLongStrProp
 0001:000178F8       TypInfo.SetOrdProp
 0001:00017210       TypInfo.SetPropValue
 0001:0001701C       TypInfo.SetPropValue
 0001:00017C9C       TypInfo.SetSetProp
 0001:00017D0C       TypInfo.SetShortStrProp
 0001:00017D9C       TypInfo.SetShortStrPropAsLongStr
 0001:00017F98       TypInfo.SetStrProp
 0001:00017A18       TypInfo.SetToString
 0001:000185FC       TypInfo.SetVariantProp
 0001:00018100       TypInfo.SetWideStrProp
 0001:00017ED4       TypInfo.SetWideStrPropAsLongStr
 0001:00017B84       TypInfo.StringToSet
 0001:00017528       TypInfo.TPublishableVariantType.GetProperty
 0001:000175A4       TypInfo.TPublishableVariantType.SetProperty
 0002:00000218       TypInfo.TypInfo
 0004:000054DC       Variants..81
 0001:0000F9CC       Variants..EVariantArrayCreateError
 0001:0000F964       Variants..EVariantArrayLockedError
 0001:0000F900       Variants..EVariantBadIndexError
 0001:0000F89C       Variants..EVariantBadVarTypeError
 0001:0000FB64       Variants..EVariantDispatchError
 0001:0000F838       Variants..EVariantInvalidArgError
 0001:0000F70C       Variants..EVariantInvalidOpError
 0001:0000FA34       Variants..EVariantNotImplError
 0001:0000FA98       Variants..EVariantOutOfMemoryError
 0001:0000F7D4       Variants..EVariantOverflowError
 0001:0000F770       Variants..EVariantTypeCastError
 0001:0000FB00       Variants..EVariantUnexpectedError
 0001:0000F4CC       Variants..TCustomVariantType
 0001:0000F658       Variants..TInvokeableVariantType
 0001:00010114       Variants.@DispInvokeError
 0001:00014B34       Variants.@VarAddRef
 0001:00015174       Variants.@VarArrayGet
 0001:00015264       Variants.@VarArrayPut
 0001:00010C6C       Variants.@VarCast
 0001:00010400       Variants.@VarClear
 0001:00010414       Variants.@VarClr
 0001:00010728       Variants.@VarCopy
 0001:000109A8       Variants.@VarCopyNoInd
 0001:000149D8       Variants.@VarFromBool
 0001:00014864       Variants.@VarFromByte
 0001:00014A14       Variants.@VarFromCurr
 0001:00014980       Variants.@VarFromCurrency
 0001:000149AC       Variants.@VarFromDate
 0001:00014B08       Variants.@VarFromDisp
 0001:00014954       Variants.@VarFromDouble
 0001:00014808       Variants.@VarFromInt
 0001:00014904       Variants.@VarFromInt64
 0001:00014844       Variants.@VarFromInteger
 0001:00014ADC       Variants.@VarFromIntf
 0001:000148A4       Variants.@VarFromLongWord
 0001:00014A28       Variants.@VarFromLStr
 0001:00014A54       Variants.@VarFromPStr
 0001:00014A00       Variants.@VarFromReal
 0001:000148C4       Variants.@VarFromShortInt
 0001:00014930       Variants.@VarFromSingle
 0001:000148E4       Variants.@VarFromSmallInt
 0001:00014884       Variants.@VarFromWord
 0001:00014AA4       Variants.@VarFromWStr
 0001:00010168       Variants.@VarNull
 0001:000109BC       Variants.@VarStringToOleStr
 0001:0001244C       Variants.@VarToBool
 0001:000120F8       Variants.@VarToBoolean
 0001:00011534       Variants.@VarToByte
 0001:000132EC       Variants.@VarToCurrency
 0001:00012D84       Variants.@VarToDate
 0001:0001475C       Variants.@VarToDisp
 0001:00012618       Variants.@VarToDouble
 0001:00011B00       Variants.@VarToInt64
 0001:00011030       Variants.@VarToInteger
 0001:00014690       Variants.@VarToIntf
 0001:000117B0       Variants.@VarToLongWord
 0001:000139A4       Variants.@VarToLStr
 0001:00012990       Variants.@VarToReal
 0001:00011480       Variants.@VarToShortInt
 0001:000129AC       Variants.@VarToSingle
 0001:000115DC       Variants.@VarToSmallInt
 0001:000116D4       Variants.@VarToWord
 0001:000140C4       Variants.@VarToWStr
 0001:00014618       Variants.AnyToIntf
 0003:00001204       Variants.BooleanToStringRule
 0001:00013724       Variants.BoolToWStrViaOS
 0004:000054D4       Variants.ChangeAnyProc
 0003:00001208       Variants.CInvalidCustomVariantType
 0004:000054D0       Variants.ClearAnyProc
 0001:00015CAC       Variants.ClearVariantTypeList
 0003:0000120C       Variants.CRangeToType
 0003:00001278       Variants.CRelationshipToBoolean
 0003:00001220       Variants.CText
 0001:000136B4       Variants.CurrToWStrViaOS
 0001:000136EC       Variants.DateToWStrViaOS
 0001:00015514       Variants.DecIndices
 0001:000154C0       Variants.DynArrayBounds
 0001:00015430       Variants.DynArrayDim
 0001:00015418       Variants.DynArrayElTypeInfo
 0001:00015978       Variants.DynArrayFromVariant
 0001:000153D4       Variants.DynArrayIndex
 0001:00015450       Variants.DynArraySize
 0001:0001562C       Variants.DynArrayToVariant
 0001:00015580       Variants.DynArrayVariantBounds
 0001:000155E4       Variants.DynArrayVarType
 0004:000054BC       Variants.EmptyParam
 0001:0001693C       Variants.Finalization
 0001:00016878       Variants.FindCustomVariantType
 0001:00014E2C       Variants.FindVarData
 0001:00014F5C       Variants.GetVarDataArrayInfo
 0001:00010090       Variants.HandleConversionException
 0001:0001017C       Variants.InBounds
 0001:0001041C       Variants.InBounds
 0001:000101AC       Variants.Increment
 0001:0001044C       Variants.Increment
 0001:00015458       Variants.IsDynArrayRectangular
 0003:00001274       Variants.LNextVarType
 0004:000054E0       Variants.LVarTypes
 0004:000054E4       Variants.LVarTypeSync
 0001:00016934       Variants.Null
 0003:000011FC       Variants.NullAsStringValue
 0003:000011F8       Variants.NullStrictConvert
 0003:00001200       Variants.PackVarCreation
 0001:000162E8       Variants.ParseParam
 0004:000054D8       Variants.RefAnyProc
 0001:00014F50       Variants.SetClearVarToEmptyParam
 0001:00014F38       Variants.SetVarAsError
 0001:00015D18       Variants.TCustomVariantType.BinaryOp
 0001:00015D24       Variants.TCustomVariantType.Cast
 0001:00015D5C       Variants.TCustomVariantType.CastTo
 0001:00015DE8       Variants.TCustomVariantType.CastToOle
 0001:00015DA4       Variants.TCustomVariantType.Compare
 0001:00015DB0       Variants.TCustomVariantType.CompareOp
 0001:00015E24       Variants.TCustomVariantType.Create
 0001:00015E68       Variants.TCustomVariantType.Create
 0001:000160F0       Variants.TCustomVariantType.Destroy
 0001:00016208       Variants.TCustomVariantType.DispInvoke
 0001:0001617C       Variants.TCustomVariantType.IsClear
 0001:00016180       Variants.TCustomVariantType.LeftPromotion
 0001:00016194       Variants.TCustomVariantType.OlePromotion
 0001:00016244       Variants.TCustomVariantType.QueryInterface
 0001:0001619C       Variants.TCustomVariantType.RaiseCastError
 0001:000161AC       Variants.TCustomVariantType.RaiseDispError
 0001:000161A4       Variants.TCustomVariantType.RaiseInvalidOp
 0001:000161B4       Variants.TCustomVariantType.RightPromotion
 0001:000161C8       Variants.TCustomVariantType.UnaryOp
 0001:000161EC       Variants.TCustomVariantType.VarDataCastTo
 0001:000161D8       Variants.TCustomVariantType.VarDataClear
 0001:000161E0       Variants.TCustomVariantType.VarDataCopyNoInd
 0001:00016220       Variants.TCustomVariantType.VarDataFromOleStr
 0001:00016214       Variants.TCustomVariantType.VarDataFromStr
 0001:000161D0       Variants.TCustomVariantType.VarDataInit
 0001:00016200       Variants.TCustomVariantType.VarDataIsByRef
 0001:0001626C       Variants.TCustomVariantType.VarDataIsStr
 0001:00016278       Variants.TCustomVariantType.VarDataToStr
 0001:0001622C       Variants.TCustomVariantType._AddRef
 0001:00016238       Variants.TCustomVariantType._Release
 0001:0001659C       Variants.TInvokeableVariantType.DispInvoke
 0001:00016860       Variants.TInvokeableVariantType.DoFunction
 0001:0001686C       Variants.TInvokeableVariantType.DoProcedure
 0001:0001628C       Variants.TInvokeableVariantType.FixupIdent
 0001:00016848       Variants.TInvokeableVariantType.GetProperty
 0001:00016854       Variants.TInvokeableVariantType.SetProperty
 0001:0000FDFC       Variants.TranslateResult
 0001:00015048       Variants.VarArrayAsPSafeArray
 0001:00010208       Variants.VarArrayClear
 0001:000104A8       Variants.VarArrayCopyForEach
 0001:00014FA0       Variants.VarArrayCreate
 0001:0000FDA8       Variants.VarArrayCreateError
 0001:00015070       Variants.VarArrayDimCount
 0001:00015240       Variants.VarArrayGet
 0001:000150BC       Variants.VarArrayHighBound
 0001:000150E0       Variants.VarArrayLock
 0001:00015098       Variants.VarArrayLowBound
 0001:000153AC       Variants.VarArrayPut
 0001:00015100       Variants.VarArrayUnlock
 0001:000109E4       Variants.VarCastAsAny
 0001:00010AE8       Variants.VarCastAsDispatch
 0001:00010B34       Variants.VarCastAsInterface
 0001:00010A50       Variants.VarCastAsOleStr
 0001:00010A9C       Variants.VarCastAsString
 0001:0000FC1C       Variants.VarCastError
 0001:0000FBC8       Variants.VarCastError
 0001:00010C00       Variants.VarCastRare
 0001:00010B80       Variants.VarCastViaOS
 0001:00010384       Variants.VarClearDeep
 0001:000107D0       Variants.VarCopyByRef
 0001:00010674       Variants.VarCopyCopyProc
 0001:0001067C       Variants.VarCopyDeep
 0001:00010794       Variants.VarCopyNoIndCopyProc
 0001:0001079C       Variants.VarCopyNoIndDeep
 0001:0001078C       Variants.VarCopyNoIndOleStr
 0001:0001076C       Variants.VarCopyNoIndViaOS
 0004:000054CC       Variants.VarDispProc
 0002:0000016C       Variants.Variants
 0001:0000FCB8       Variants.VarInvalidOp
 0001:00014E5C       Variants.VarIsNull
 0001:0000FD0C       Variants.VarOverflowError
 0001:0001005C       Variants.VarResultCheck
 0001:00010050       Variants.VarResultCheck
 0001:000109DC       Variants.VarStringToOleStr
 0001:00012048       Variants.VarToBoolAny
 0001:00011F44       Variants.VarToBoolAsString
 0001:000120AC       Variants.VarToBoolCustom
 0001:00012008       Variants.VarToBoolViaOS
 0001:0001323C       Variants.VarToCurrencyAny
 0001:00013190       Variants.VarToCurrencyAsDouble
 0001:000130D4       Variants.VarToCurrencyAsString
 0001:000132A0       Variants.VarToCurrencyCustom
 0001:000131F0       Variants.VarToCurrencyViaOS
 0001:00012CD4       Variants.VarToDateAny
 0001:00012C28       Variants.VarToDateAsDouble
 0001:00012B3C       Variants.VarToDateAsString
 0001:00012D38       Variants.VarToDateCustom
 0001:00012C88       Variants.VarToDateViaOS
 0001:00012568       Variants.VarToDoubleAny
 0001:00012458       Variants.VarToDoubleAsString
 0001:000125CC       Variants.VarToDoubleCustom
 0001:0001251C       Variants.VarToDoubleViaOS
 0001:00011A48       Variants.VarToInt64Any
 0001:00011948       Variants.VarToInt64AsString
 0001:00011AB4       Variants.VarToInt64Custom
 0001:0001189C       Variants.VarToInt64ViaOS
 0001:00010F88       Variants.VarToIntAny
 0001:00010E98       Variants.VarToIntAsString
 0001:00010FEC       Variants.VarToIntCustom
 0001:00010F4C       Variants.VarToIntViaOS
 0001:000138B8       Variants.VarToLStrAny
 0001:0001391C       Variants.VarToLStrCustom
 0001:000137EC       Variants.VarToLStrViaOS
 0001:00014E70       Variants.VarToStr
 0001:00014E88       Variants.VarToStrDef
 0001:00014EB4       Variants.VarToWideStr
 0001:00014F0C       Variants.VarToWideStrDef
 0001:00013F98       Variants.VarToWStrAny
 0001:00013FFC       Variants.VarToWStrCustom
 0001:00013EE0       Variants.VarToWStrViaOS
 0001:00014E28       Variants.VarType
 0001:00014CB8       Variants.VarTypeAsText
 0001:00014E3C       Variants.VarTypeIsCustom
 0001:00014E48       Variants.VarTypeIsStr
 0001:00015118       Variants.VarTypeIsValidArrayType
 0001:00015138       Variants.VarTypeIsValidElementType
 0004:000054B8       VarUtils..5
 0001:0000EEC0       VarUtils.BackupVarBoolFromStr
 0001:0000F03C       VarUtils.BackupVarBStrFromBool
 0001:0000EF44       VarUtils.BackupVarBStrFromCy
 0001:0000EFC0       VarUtils.BackupVarBStrFromDate
 0001:0000EE4C       VarUtils.BackupVarCyFromStr
 0001:0000EDD8       VarUtils.BackupVarDateFromStr
 0001:0000EC7C       VarUtils.BackupVarI4FromStr
 0001:0000EC08       VarUtils.BackupVariantChangeTypeEx
 0001:0000ECF0       VarUtils.BackupVarR4FromStr
 0001:0000ED64       VarUtils.BackupVarR8FromStr
 0001:0000EC54       VarUtils.BiUnimplemented
 0001:0000EC68       VarUtils.CmpUnimplemented
 0003:000011F0       VarUtils.CResult
 0003:000010E8       VarUtils.CVarTypeToElementInfo
 0001:0000F44C       VarUtils.Finalization
 0001:0000F0FC       VarUtils.FindProc
 0001:0000F140       VarUtils.InitializeVarUtils
 0001:0000F0D4       VarUtils.SafeArrayAccessData
 0001:0000F0BC       VarUtils.SafeArrayCreate
 0001:0000F0E4       VarUtils.SafeArrayGetElement
 0001:0000F0C4       VarUtils.SafeArrayGetLBound
 0001:0000F0CC       VarUtils.SafeArrayGetUBound
 0001:0000F0F4       VarUtils.SafeArrayPtrOfIndex
 0001:0000F0EC       VarUtils.SafeArrayPutElement
 0001:0000F0DC       VarUtils.SafeArrayUnaccessData
 0001:0000EC40       VarUtils.UniUnimplemented
 0004:0000546C       VarUtils.VarAdd
 0004:00005484       VarUtils.VarAnd
 0004:000054A8       VarUtils.VarBoolFromStr
 0004:000054B4       VarUtils.VarBstrFromBool
 0004:000054AC       VarUtils.VarBstrFromCy
 0004:000054B0       VarUtils.VarBstrFromDate
 0004:00005490       VarUtils.VarCmp
 0004:000054A4       VarUtils.VarCyFromStr
 0004:000054A0       VarUtils.VarDateFromStr
 0004:00005478       VarUtils.VarDiv
 0004:00005494       VarUtils.VarI4FromStr
 0001:0000EC00       VarUtils.VariantChangeType
 0004:00005460       VarUtils.VariantChangeTypeEx
 0001:0000EBE8       VarUtils.VariantClear
 0001:0000EBF0       VarUtils.VariantCopy
 0001:0000EBF8       VarUtils.VariantCopyInd
 0001:0000EBE0       VarUtils.VariantInit
 0004:0000547C       VarUtils.VarIDiv
 0004:00005480       VarUtils.VarMod
 0004:00005474       VarUtils.VarMul
 0004:00005464       VarUtils.VarNeg
 0004:00005468       VarUtils.VarNot
 0004:00005488       VarUtils.VarOr
 0004:00005498       VarUtils.VarR4FromStr
 0004:0000549C       VarUtils.VarR8FromStr
 0004:00005470       VarUtils.VarSub
 0002:00000158       VarUtils.VarUtils
 0004:0000548C       VarUtils.VarXor
 0004:00005538       WideStrings..4
 0004:0000553C       WideStrings.CharNextW
 0001:0001E128       WideStrings.CharNextW95
 0001:0001E160       WideStrings.Finalization
 0001:0001E140       WideStrings.InitCharNextWFunc
 0002:000002D4       WideStrings.WideStrings
 0001:0001E0D4       WideStrUtils.WStrLCopy
 0001:0001E09C       WideStrUtils.WStrLen
 0004:00002804       Windows..3
 0001:00005C60       Windows.CharLower
 0001:00005C68       Windows.CharNext
 0001:00005C70       Windows.CharNextW
 0001:00005C78       Windows.CharToOemA
 0001:00005C80       Windows.CharUpper
 0001:00005C88       Windows.CharUpperBuff
 0001:00005B18       Windows.CloseHandle
 0001:00005B20       Windows.CompareString
 0001:00005B28       Windows.CreateEvent
 0001:00005B30       Windows.CreateFile
 0001:00005B38       Windows.DeleteCriticalSection
 0001:00005B40       Windows.EnterCriticalSection
 0001:00005B48       Windows.EnumCalendarInfoA
 0001:00005CC0       Windows.Finalization
 0001:00005B50       Windows.FormatMessage
 0001:00005B58       Windows.FreeLibrary
 0001:00005C90       Windows.GetActiveWindow
 0001:00005B60       Windows.GetCPInfo
 0001:00005B68       Windows.GetCurrentThreadId
 0001:00005B70       Windows.GetDateFormat
 0001:00005B78       Windows.GetDiskFreeSpaceA
 0001:00005B80       Windows.GetEnvironmentVariable
 0001:00005B88       Windows.GetFullPathName
 0001:00005B90       Windows.GetLastError
 0001:00005BA0       Windows.GetLocaleInfo
 0001:00005B98       Windows.GetLocalTime
 0001:00005BA8       Windows.GetModuleFileName
 0001:00005BB0       Windows.GetModuleHandle
 0001:00005BB8       Windows.GetProcAddress
 0001:00005BC0       Windows.GetStdHandle
 0001:00005C98       Windows.GetSystemMetrics
 0001:00005BC8       Windows.GetThreadLocale
 0001:00005BD0       Windows.GetVersionEx
 0004:00002808       Windows.HtmlHelpModule
 0001:00005BD8       Windows.InitializeCriticalSection
 0001:00005BE0       Windows.LeaveCriticalSection
 0001:00005BE8       Windows.LoadLibrary
 0001:00005CA0       Windows.LoadString
 0001:00005CA8       Windows.MessageBox
 0001:00005BF0       Windows.MultiByteToWideChar
 0001:00005BF8       Windows.ReadFile
 0001:00005AF0       Windows.RegCloseKey
 0001:00005AF8       Windows.RegCreateKeyEx
 0001:00005B00       Windows.RegFlushKey
 0001:00005CB0       Windows.RegisterWindowMessage
 0001:00005B08       Windows.RegOpenKeyEx
 0001:00005B10       Windows.RegQueryValueEx
 0001:00005C00       Windows.ResetEvent
 0001:00005CB8       Windows.SendMessage
 0001:00005C08       Windows.SetEndOfFile
 0001:00005C10       Windows.SetEnvironmentVariable
 0001:00005C18       Windows.SetErrorMode
 0001:00005C20       Windows.SetEvent
 0001:00005C28       Windows.SetFilePointer
 0001:00005C30       Windows.Sleep
 0001:00005C38       Windows.VirtualAlloc
 0001:00005C40       Windows.VirtualFree
 0001:00005C48       Windows.VirtualQuery
 0001:00005C50       Windows.WaitForSingleObject
 0002:00000098       Windows.Windows
 0001:00005C58       Windows.WriteFile


  Address             Publics by Value

 0001:000000D4       System..TObject
 0001:000001C8       System..TInterfacedObject
 0001:00000260       System.GetStdHandle
 0001:00000268       System.RaiseException
 0001:00000270       System.RtlUnwind
 0001:00000278       System.UnhandledExceptionFilter
 0001:00000280       System.WriteFile
 0001:00000288       System.CharNext
 0001:00000290       System.ExitProcess
 0001:00000298       System.MessageBox
 0001:000002A0       System.FindClose
 0001:000002A8       System.FindFirstFile
 0001:000002B0       System.FreeLibrary
 0001:000002B8       System.GetCommandLine
 0001:000002C0       System.GetLocaleInfo
 0001:000002C8       System.GetModuleFileName
 0001:000002D0       System.GetModuleHandle
 0001:000002D8       System.GetProcAddress
 0001:000002E0       System.GetStartupInfo
 0001:000002E8       System.GetThreadLocale
 0001:000002F0       System.LoadLibraryEx
 0001:000002F8       System.LoadString
 0001:00000300       System.lstrcpyn
 0001:00000308       System.@strlen
 0001:00000310       System.MultiByteToWideChar
 0001:00000318       System.RegCloseKey
 0001:00000320       System.RegOpenKeyEx
 0001:00000328       System.RegQueryValueEx
 0001:00000330       System.WideCharToMultiByte
 0001:00000338       System.VirtualQuery
 0001:00000340       System.SysAllocStringLen
 0001:00000348       System.SysReAllocStringLen
 0001:00000350       System.SysFreeString
 0001:00000358       System.InterlockedIncrement
 0001:00000360       System.InterlockedDecrement
 0001:00000368       System.GetCurrentThreadId
 0001:00000370       System.GetCmdShow
 0001:00000394       System.VirtualAlloc
 0001:0000039C       System.VirtualFree
 0001:000003A4       System.Sleep
 0001:000003AC       System.DestroyWindow
 0001:00000414       System.LockCmpxchg
 0001:0000041C       System.Move12
 0001:00000430       System.Move20
 0001:00000450       System.Move28
 0001:0000047C       System.Move36
 0001:0000049C       System.Move44
 0001:000004C0       System.Move52
 0001:000004EC       System.Move60
 0001:0000051C       System.Move68
 0001:00000554       System.MoveX16L4
 0001:00000584       System.MoveX8L4
 0001:000005A0       System.LockAllSmallBlockTypes
 0001:000005EC       System.LockMediumBlocks
 0001:0000062C       System.RemoveMediumFreeBlock
 0001:0000066C       System.InsertMediumBlockIntoBin
 0001:000006CC       System.BinMediumSequentialFeedRemainder
 0001:00000738       System.AllocNewSequentialFeedMediumPool
 0001:000007B0       System.LockLargeBlocks
 0001:000007F0       System.AllocateLargeBlock
 0001:00000854       System.FreeLargeBlock
 0001:00000890       System.SysGetMem
 0001:00000BF8       System.SysFreeMem
 0001:00000DD8       System.SysReallocMem
 0001:00001164       System.SysAllocMem
 0001:00001194       System.NextMediumBlock
 0001:000011B8       System.GetFirstMediumBlockInPool
 0001:000011F8       System.GetFirstAndLastSmallBlockInPool
 0001:00001234       System.CardinalToStrBuf
 0001:00001350       System.AppendStringToBuffer
 0001:00001368       System.InternalIsValidClass
 0001:00001420       System.GetObjectClass
 0001:00001450       System.LockExpectedMemoryLeaksList
 0001:000014BC       System.SysRegisterExpectedMemoryLeak
 0001:000014FC       System.SysUnregisterExpectedMemoryLeak
 0001:00001554       System.CheckSmallBlockPoolForLeaks
 0001:000016A0       System.ScanForMemoryLeaks
 0001:00001B18       System.GetHeapStatus
 0001:00001C7C       System.BuildBlockTypeLookupTable
 0001:00001CC0       System.InitializeMemoryManager
 0001:00001DE8       System.FreeAllMemory
 0001:00001E78       System.FinalizeMemoryManager
 0001:00001ECC       System.AllocMem
 0001:00001EE4       System.RegisterExpectedMemoryLeak
 0001:00001F00       System.UnregisterExpectedMemoryLeak
 0001:00001F1C       System.@GetMem
 0001:00001F38       System.@FreeMem
 0001:00001F50       System.@ReallocMem
 0001:00001FA0       System.GetMemoryManager
 0001:00001FB4       System.SetMemoryManager
 0001:00001FC8       System.IsMemoryManagerSet
 0001:00002010       System.ExceptObject
 0001:00002030       System.AcquireExceptionObject
 0001:00002064       System.RunErrorAt
 0001:00002070       System.ErrorAt
 0001:000020BC       System.Error
 0001:000020C8       System.@_IOTest
 0001:000020E8       System.SetInOutRes
 0001:000020F8       System.@Copy
 0001:0000213C       System.IOResult
 0001:0000215C       System.Move
 0001:0000225C       System.UpCase
 0001:00002268       System.@ROUND
 0001:00002274       System.@TRUNC
 0001:00002298       System.@AbstractError
 0001:000022B4       System.InternalFlush
 0001:000022FC       System.Flush
 0001:00002308       System.@Close
 0001:00002360       System.@PStrNCat
 0001:00002390       System.@PStrCpy
 0001:0000239C       System.@AStrCmp
 0001:0000240C       System.@FillChar
 0001:000024A8       System.@ValLong
 0001:0000257C       System.@SetElem
 0001:000025A0       System.@SetUnion
 0001:000025AC       System.@SetSub
 0001:000025BC       System.FPower10
 0001:000025C4       System.@Pow10
 0001:000028A8       System.GetKeyboardType
 0001:000028B0       System.@isNECWindows
 0001:000028E0       System.@FpuMaskInit
 0001:000029A4       System.@FpuInit
 0001:000029B0       System.@BoundErr
 0001:000029B8       System.TObject.ClassType
 0001:000029C0       System.TObject.ClassName
 0001:000029D4       System.TObject.ClassParent
 0001:000029E0       System.TObject.NewInstance
 0001:000029FC       System.TObject.FreeInstance
 0001:00002A10       System.TObject.InstanceSize
 0001:00002A18       System.TObject.Create
 0001:00002A38       System.TObject.Destroy
 0001:00002A48       System.TObject.Free
 0001:00002A54       System.TObject.InitInstance
 0001:00002AAC       System.TObject.CleanupInstance
 0001:00002ACC       System.InvokeImplGetter
 0001:00002AFC       System.TObject.GetInterface
 0001:00002B90       System.TObject.GetInterfaceEntry
 0001:00002BD4       System.@IsClass
 0001:00002BF8       System.GetDynaMethod
 0001:00002C28       System.@CallDynaInst
 0001:00002C40       System.TObject.InheritsFrom
 0001:00002C54       System.TObject.ClassInfo
 0001:00002C5C       System.TObject.SafeCallException
 0001:00002C64       System.TObject.DefaultHandler
 0001:00002C68       System.TObject.AfterConstruction
 0001:00002C6C       System.TObject.BeforeDestruction
 0001:00002C70       System.TObject.Dispatch
 0001:00002C98       System.@ClassCreate
 0001:00002CE8       System.@ClassDestroy
 0001:00002CF0       System.@AfterConstruction
 0001:00002D40       System.@BeforeDestruction
 0001:00002D50       System.NotifyReRaise
 0001:00002D6C       System.NotifyNonDelphiException
 0001:00002D90       System.NotifyExcept
 0001:00002DA8       System.NotifyOnExcept
 0001:00002DBC       System.NotifyAnyExcept
 0001:00002DD0       System.CheckJmp
 0001:00002DF0       System.NotifyExceptFinally
 0001:00002E18       System.NotifyTerminate
 0001:00002E34       System.NotifyUnhandled
 0001:00002E54       System.@HandleAnyException
 0001:00002F80       System.@HandleOnException
 0001:00003108       System.@HandleFinally
 0001:000031B0       System.@HandleFinallyInternal
 0001:000031E8       System.@RaiseExcept
 0001:00003210       System.@RaiseAgain
 0001:00003264       System.@DoneExcept
 0001:00003294       System.@TryFinallyExit
 0001:000032AC       System.MapToRunError
 0001:0000334C       System.@ExceptionHandler
 0001:000033EC       System.SetExceptionHandler
 0001:0000340C       System.UnsetExceptionHandler
 0001:00003434       System.FinalizeUnits
 0001:00003498       System.InitUnits
 0001:00003500       System.@StartLib
 0001:000035C8       System.@InitResStringImports
 0001:000035F0       System.@InitImports
 0001:00003614       System.MakeErrorMessage
 0001:00003678       System.ExitDll
 0001:000036A8       System.WriteErrorMessage
 0001:00003734       System.@Halt0
 0001:00003810       System.@Halt
 0001:0000381C       System.@RunError
 0001:00003828       System.@Assert
 0001:00003848       System.@LStrClr
 0001:0000386C       System.@LStrArrayClr
 0001:0000389C       System.@LStrAsg
 0001:000038E0       System.@LStrLAsg
 0001:0000390C       System.@NewAnsiString
 0001:00003938       System.@LStrFromPCharLen
 0001:00003968       System.CharFromWChar
 0001:00003988       System.WCharFromChar
 0001:000039A4       System.@LStrFromPWCharLen
 0001:00003A30       System.@LStrFromChar
 0001:00003A40       System.@LStrFromPChar
 0001:00003A70       System.@LStrFromPWChar
 0001:00003AAC       System.@LStrFromString
 0001:00003AB8       System.@LStrFromArray
 0001:00003AD0       System.@LStrFromWStr
 0001:00003AE4       System.@LStrToString
 0001:00003B08       System.@LStrLen
 0001:00003B14       System.@LStrCat
 0001:00003B58       System.@LStrCat3
 0001:00003BCC       System.@LStrCatN
 0001:00003C58       System.@LStrCmp
 0001:00003CFC       System.@LStrAddRef
 0001:00003D0C       System.@LStrToPChar
 0001:00003D18       System.InternalUniqueString
 0001:00003D5C       System.UniqueString
 0001:00003D64       System.@UniqueStringA
 0001:00003D6C       System.@LStrCopy
 0001:00003DAC       System.@LStrDelete
 0001:00003DF4       System.Pos
 0001:00003F38       System.@LStrSetLength
 0001:00003F9C       System.StringOfChar
 0001:00003FC8       System.WStrError
 0001:00003FD0       System.@NewWideString
 0001:00003FE8       System.WStrSet
 0001:00003FF8       System.@WStrClr
 0001:00004010       System.@WStrArrayClr
 0001:00004034       System.@WStrAsg
 0001:0000405C       System.@WStrFromPCharLen
 0001:000040E8       System.@WStrFromPWCharLen
 0001:0000410C       System.@WStrFromPWChar
 0001:00004148       System.@WStrFromWArray
 0001:00004164       System.@WStrFromLStr
 0001:00004174       System.@WStrToPWChar
 0001:00004184       System.@WStrLen
 0001:00004190       System.@WStrCatN
 0001:000041D8       System.@WStrCmp
 0001:0000425C       System.@WStrCopy
 0001:000042A8       System.@WStrSetLength
 0001:000042EC       System.@WStrAddRef
 0001:0000430C       System.@InitializeRecord
 0001:0000433C       System.@InitializeArray
 0001:000043D0       System.@Initialize
 0001:000043DC       System.@FinalizeRecord
 0001:00004410       System.@VarClr
 0001:00004428       System.@FinalizeArray
 0001:00004514       System.@Finalize
 0001:00004520       System.@VarCopy
 0001:00004538       System.@CopyRecord
 0001:00004654       System.@CopyArray
 0001:00004748       System.@New
 0001:0000475C       System.@Dispose
 0001:0000476C       System.WideCharLenToStrVar
 0001:00004778       System.OleStrToStrVar
 0001:0000479C       System.StringToOleStr
 0001:000047BC       System.@DispCallByIDError
 0001:000047C4       System.@_llmul
 0001:000047E8       System.@ValInt64
 0001:00004A00       System.@DynArrayLength
 0001:00004A08       System.@DynArrayHigh
 0001:00004A10       System.CopyArray
 0001:00004A20       System.FinalizeArray
 0001:00004A28       System.DynArrayClear
 0001:00004A30       System.DynArraySetLength
 0001:00004BBC       System.@DynArraySetLength
 0001:00004BC8       System.@DynArrayCopy
 0001:00004BE8       System.@DynArrayCopyRange
 0001:00004CDC       System.@DynArrayClear
 0001:00004D18       System.@DynArrayAsg
 0001:00004D40       System.FindHInstance
 0001:00004D68       System.DelayLoadResourceModule
 0001:00004DB0       System.FindResourceHInstance
 0001:00004DE8       System.FindBS
 0001:00004E08       System.ToLongPath
 0001:00004FCC       System.LoadResourceModule
 0001:0000523C       System.AddModuleUnloadProc
 0001:00005244       System.RemoveModuleUnloadProc
 0001:0000524C       System.AddModuleUnloadProc
 0001:0000526C       System.RemoveModuleUnloadProc
 0001:000052D0       System.NotifyModuleUnload
 0001:0000532C       System.RegisterModule
 0001:0000533C       System.UnregisterModule
 0001:000053AC       System.@IntfClear
 0001:000053C4       System.@IntfCopy
 0001:000053F0       System.@IntfCast
 0001:00005420       System.@IntfAddRef
 0001:0000542C       System.TInterfacedObject.AfterConstruction
 0001:00005438       System.TInterfacedObject.BeforeDestruction
 0001:00005448       System.TInterfacedObject.NewInstance
 0001:00005458       System.TInterfacedObject.QueryInterface
 0001:00005480       System.TInterfacedObject._AddRef
 0001:00005494       System.TInterfacedObject._Release
 0001:000054BC       System.UnicodeToUtf8
 0001:00005598       System.Utf8ToUnicode
 0001:000056C8       System.UTF8Encode
 0001:00005784       System.UTF8Decode
 0001:0000583C       System.AnsiToUtf8
 0001:0000588C       System.LoadResString
 0001:000058E4       System.GetACP
 0001:000058EC       System.Finalization
 0001:0000594C       SysInit.LocalAlloc
 0001:00005954       SysInit.LocalFree
 0001:0000595C       SysInit.TlsAlloc
 0001:00005964       SysInit.TlsFree
 0001:0000596C       SysInit.TlsGetValue
 0001:00005974       SysInit.TlsSetValue
 0001:0000597C       SysInit.AllocTlsBuffer
 0001:00005988       SysInit.GetTlsSize
 0001:00005990       SysInit.InitThreadTLS
 0001:000059D4       SysInit.InitProcessTLS
 0001:00005A00       SysInit.ExitThreadTLS
 0001:00005A38       SysInit.ExitProcessTLS
 0001:00005A5C       SysInit.@GetTls
 0001:00005A9C       SysInit.InitializeModule
 0001:00005AA8       SysInit.@InitLib
 0001:00005AF0       Windows.RegCloseKey
 0001:00005AF8       Windows.RegCreateKeyEx
 0001:00005B00       Windows.RegFlushKey
 0001:00005B08       Windows.RegOpenKeyEx
 0001:00005B10       Windows.RegQueryValueEx
 0001:00005B18       Windows.CloseHandle
 0001:00005B20       Windows.CompareString
 0001:00005B28       Windows.CreateEvent
 0001:00005B30       Windows.CreateFile
 0001:00005B38       Windows.DeleteCriticalSection
 0001:00005B40       Windows.EnterCriticalSection
 0001:00005B48       Windows.EnumCalendarInfoA
 0001:00005B50       Windows.FormatMessage
 0001:00005B58       Windows.FreeLibrary
 0001:00005B60       Windows.GetCPInfo
 0001:00005B68       Windows.GetCurrentThreadId
 0001:00005B70       Windows.GetDateFormat
 0001:00005B78       Windows.GetDiskFreeSpaceA
 0001:00005B80       Windows.GetEnvironmentVariable
 0001:00005B88       Windows.GetFullPathName
 0001:00005B90       Windows.GetLastError
 0001:00005B98       Windows.GetLocalTime
 0001:00005BA0       Windows.GetLocaleInfo
 0001:00005BA8       Windows.GetModuleFileName
 0001:00005BB0       Windows.GetModuleHandle
 0001:00005BB8       Windows.GetProcAddress
 0001:00005BC0       Windows.GetStdHandle
 0001:00005BC8       Windows.GetThreadLocale
 0001:00005BD0       Windows.GetVersionEx
 0001:00005BD8       Windows.InitializeCriticalSection
 0001:00005BE0       Windows.LeaveCriticalSection
 0001:00005BE8       Windows.LoadLibrary
 0001:00005BF0       Windows.MultiByteToWideChar
 0001:00005BF8       Windows.ReadFile
 0001:00005C00       Windows.ResetEvent
 0001:00005C08       Windows.SetEndOfFile
 0001:00005C10       Windows.SetEnvironmentVariable
 0001:00005C18       Windows.SetErrorMode
 0001:00005C20       Windows.SetEvent
 0001:00005C28       Windows.SetFilePointer
 0001:00005C30       Windows.Sleep
 0001:00005C38       Windows.VirtualAlloc
 0001:00005C40       Windows.VirtualFree
 0001:00005C48       Windows.VirtualQuery
 0001:00005C50       Windows.WaitForSingleObject
 0001:00005C58       Windows.WriteFile
 0001:00005C60       Windows.CharLower
 0001:00005C68       Windows.CharNext
 0001:00005C70       Windows.CharNextW
 0001:00005C78       Windows.CharToOemA
 0001:00005C80       Windows.CharUpper
 0001:00005C88       Windows.CharUpperBuff
 0001:00005C90       Windows.GetActiveWindow
 0001:00005C98       Windows.GetSystemMetrics
 0001:00005CA0       Windows.LoadString
 0001:00005CA8       Windows.MessageBox
 0001:00005CB0       Windows.RegisterWindowMessage
 0001:00005CB8       Windows.SendMessage
 0001:00005CC0       Windows.Finalization
 0001:00005D5C       FastMM4.LockCmpxchg
 0001:00005D64       FastMM4.AppendModuleFileName
 0001:00005D88       FastMM4.AppendStringToModuleName
 0001:00005DDC       FastMM4.Move12
 0001:00005DF0       FastMM4.Move20
 0001:00005E10       FastMM4.Move28
 0001:00005E3C       FastMM4.Move36
 0001:00005E5C       FastMM4.Move44
 0001:00005E80       FastMM4.Move52
 0001:00005EAC       FastMM4.Move60
 0001:00005EDC       FastMM4.Move68
 0001:00005F14       FastMM4.MoveX16L4
 0001:00005F4C       FastMM4.MoveX8L4
 0001:00005F6C       FastMM4.ShowMessageBox
 0001:00005F94       FastMM4.LockMediumBlocks
 0001:00005FCC       FastMM4.RemoveMediumFreeBlock
 0001:0000600C       FastMM4.InsertMediumBlockIntoBin
 0001:0000606C       FastMM4.BinMediumSequentialFeedRemainder
 0001:000060D8       FastMM4.AllocNewSequentialFeedMediumPool
 0001:00006150       FastMM4.LockLargeBlocks
 0001:00006188       FastMM4.AllocateLargeBlock
 0001:000061EC       FastMM4.FreeLargeBlock
 0001:00006290       FastMM4.ReallocateLargeBlock
 0001:000063DC       FastMM4.FastGetMem
 0001:000066D8       FastMM4.FastFreeMem
 0001:00006874       FastMM4.FastReallocMem
 0001:00006B04       FastMM4.FastAllocMem
 0001:00006B34       FastMM4.CheckCanInstallMemoryManager
 0001:00006F50       FastMM4.InitializeMemoryManager
 0001:000070C0       FastMM4.InstallMemoryManager
 0001:00007128       FastMM4.Finalization
 0001:0000748C       SysUtils..Exception
 0001:000074F4       SysUtils..EHeapException
 0001:00007550       SysUtils..EOutOfMemory
 0001:000075AC       SysUtils..EInOutError
 0001:00007604       SysUtils..EExternal
 0001:0000765C       SysUtils..EExternalException
 0001:000076BC       SysUtils..EIntError
 0001:00007714       SysUtils..EDivByZero
 0001:0000776C       SysUtils..ERangeError
 0001:000077C4       SysUtils..EIntOverflow
 0001:00007820       SysUtils..EMathError
 0001:00007878       SysUtils..EInvalidOp
 0001:000078D0       SysUtils..EZeroDivide
 0001:00007928       SysUtils..EOverflow
 0001:00007980       SysUtils..EUnderflow
 0001:000079D8       SysUtils..EInvalidPointer
 0001:00007A34       SysUtils..EInvalidCast
 0001:00007A90       SysUtils..EConvertError
 0001:00007AEC       SysUtils..EAccessViolation
 0001:00007B4C       SysUtils..EPrivilege
 0001:00007BA4       SysUtils..EStackOverflow
 0001:00007C00       SysUtils..EControlC
 0001:00007C58       SysUtils..EVariantError
 0001:00007CB4       SysUtils..EAssertionFailed
 0001:00007D14       SysUtils..EAbstractError
 0001:00007D70       SysUtils..EIntfCastError
 0001:00007DCC       SysUtils..EOSError
 0001:00007E24       SysUtils..ESafecallException
 0001:00007ED8       SysUtils..TThreadLocalCounter
 0001:00007FB4       SysUtils..TMultiReadExclusiveWriteSynchronizer
 0001:00008028       SysUtils.DivMod
 0001:00008044       SysUtils.ConvertError
 0001:00008064       SysUtils.ConvertErrorFmt
 0001:00008094       SysUtils.UpperCase
 0001:00008130       SysUtils.LowerCase
 0001:000081CC       SysUtils.CompareStr
 0001:000081FC       SysUtils.CompareMem
 0001:00008290       SysUtils.CompareText
 0001:0000832C       SysUtils.SameText
 0001:00008350       SysUtils.AnsiUpperCase
 0001:000083A8       SysUtils.AnsiCompareText
 0001:00008418       SysUtils.Trim
 0001:000084A0       SysUtils.Trim
 0001:00008518       SysUtils.CvtInt
 0001:00008564       SysUtils.IntToStr
 0001:00008584       SysUtils.CvtInt64
 0001:00008650       SysUtils.IntToStr
 0001:00008678       SysUtils.IntToHex
 0001:000086A0       SysUtils.StrToInt
 0001:000086E0       SysUtils.StrToIntDef
 0001:00008710       SysUtils.TryStrToInt
 0001:0000873C       SysUtils.TryStrToInt64
 0001:0000876C       SysUtils.VerifyBoolStrArray
 0001:00008800       SysUtils.CompareWith
 0001:000088BC       SysUtils.TryStrToBool
 0001:0000896C       SysUtils.BoolToStr
 0001:000089C8       SysUtils.FileOpen
 0001:00008A38       SysUtils.FileRead
 0001:00008A70       SysUtils.FileWrite
 0001:00008AA8       SysUtils.FileSeek
 0001:00008AFC       SysUtils.AnsiLastChar
 0001:00008B58       SysUtils.LastDelimiter
 0001:00008BD8       SysUtils.ExtractFilePath
 0001:00008C18       SysUtils.ExtractFileName
 0001:00008C5C       SysUtils.ExtractFileExt
 0001:00008CBC       SysUtils.ExpandFileName
 0001:00008D00       SysUtils.BackfillGetDiskFreeSpaceEx
 0001:00008D80       SysUtils.StrLen
 0001:00008D98       SysUtils.StrMove
 0001:00008DC4       SysUtils.StrCopy
 0001:00008DFC       SysUtils.StrLCopy
 0001:00008E30       SysUtils.StrComp
 0001:00008EBC       SysUtils.StrIComp
 0001:00008EFC       SysUtils.StrLComp
 0001:00008F24       SysUtils.StrLIComp
 0001:00008F68       SysUtils.StrScan
 0001:00008FA0       SysUtils.StrPos
 0001:00008FF4       SysUtils.StrPas
 0001:00009010       SysUtils.StrAlloc
 0001:0000903C       SysUtils.StrNew
 0001:0000907C       SysUtils.FormatError
 0001:000090E4       SysUtils.FormatVarToStr
 0001:0000911C       SysUtils.FormatClearStr
 0001:00009130       SysUtils.FormatBuf
 0001:000094A8       SysUtils.StrLFmt
 0001:00009500       SysUtils.Format
 0001:00009528       SysUtils.FmtStr
 0001:0000964C       SysUtils.PutExponent
 0001:00009690       SysUtils.FloatToText
 0001:00009964       SysUtils.FloatToDecimal
 0001:00009B90       SysUtils.TextToFloat
 0001:00009CA4       SysUtils.FloatToStr
 0001:00009CD4       SysUtils.CurrToStr
 0001:00009D04       SysUtils.FloatToStrF
 0001:00009D40       SysUtils.StrToFloat
 0001:00009D80       SysUtils.TryStrToFloat
 0001:00009DA8       SysUtils.TryStrToFloat
 0001:00009DE0       SysUtils.TryStrToFloat
 0001:00009E18       SysUtils.TryStrToCurr
 0001:00009E40       SysUtils.DateTimeToTimeStamp
 0001:00009E84       SysUtils.ValidateTimeStamp
 0001:00009ED0       SysUtils.TimeStampToDateTime
 0001:00009F0C       SysUtils.MSecsToTimeStamp
 0001:00009F2C       SysUtils.TimeStampToMSecs
 0001:00009F44       SysUtils.TryEncodeTime
 0001:00009FC4       SysUtils.EncodeTime
 0001:0000A008       SysUtils.DecodeTime
 0001:0000A068       SysUtils.IsLeapYear
 0001:0000A0AC       SysUtils.TryEncodeDate
 0001:0000A1B0       SysUtils.EncodeDate
 0001:0000A1EC       SysUtils.DecodeDateFully
 0001:0000A368       SysUtils.DecodeDate
 0001:0000A398       SysUtils.DayOfWeek
 0001:0000A3C8       SysUtils.CurrentYear
 0001:0000A3E8       SysUtils.AppendChars
 0001:0000A448       SysUtils.AppendString
 0001:0000A47C       SysUtils.AppendNumber
 0001:0000A4CC       SysUtils.GetCount
 0001:0000A504       SysUtils.GetDate
 0001:0000A53C       SysUtils.GetTime
 0001:0000A57C       SysUtils.ConvertEraString
 0001:0000A71C       SysUtils.ConvertYearString
 0001:0000A84C       SysUtils.AppendFormat
 0001:0000B054       SysUtils.DateTimeToString
 0001:0000B0C0       SysUtils.ScanBlanks
 0001:0000B100       SysUtils.ScanNumber
 0001:0000B1B4       SysUtils.ScanString
 0001:0000B2CC       SysUtils.ScanChar
 0001:0000B32C       SysUtils.GetDateOrder
 0001:0000B394       SysUtils.ScanToNumber
 0001:0000B3FC       SysUtils.GetEraYearOffset
 0001:0000B460       SysUtils.EraToYear
 0001:0000B4C8       SysUtils.ScanDate
 0001:0000B854       SysUtils.ScanTime
 0001:0000BA70       SysUtils.TryStrToDate
 0001:0000BACC       SysUtils.TryStrToTime
 0001:0000BB28       SysUtils.TryStrToDateTime
 0001:0000BBE8       SysUtils.SysErrorMessage
 0001:0000BC4C       SysUtils.GetLocaleStr
 0001:0000BCA8       SysUtils.GetLocaleChar
 0001:0000BCE4       SysUtils.LocalGetLocaleStr
 0001:0000BD28       SysUtils.GetMonthDayNames
 0001:0000BE5C       SysUtils.EnumEraNames
 0001:0000BEA8       SysUtils.EnumEraYearOffsets
 0001:0000BF34       SysUtils.GetEraNamesAndYearOffsets
 0001:0000BFF8       SysUtils.TranslateDateFormat
 0001:0000C29C       SysUtils.ConvertAddr
 0001:0000C2AC       SysUtils.ExceptionErrorMessage
 0001:0000C464       SysUtils.ShowException
 0001:0000C540       SysUtils.Exception.Create
 0001:0000C588       SysUtils.Exception.CreateFmt
 0001:0000C618       SysUtils.Exception.CreateRes
 0001:0000C660       SysUtils.Exception.CreateResFmt
 0001:0000C704       SysUtils.Exception.CreateHelp
 0001:0000C758       SysUtils.EHeapException.FreeInstance
 0001:0000C794       SysUtils.CreateInOutError
 0001:0000C838       SysUtils.ErrorHandler
 0001:0000C8A8       SysUtils.CreateAssertException
 0001:0000C960       SysUtils.RaiseAssertException
 0001:0000C970       SysUtils.AssertErrorHandler
 0001:0000C9A8       SysUtils.AbstractErrorHandler
 0001:0000C9C4       SysUtils.MapException
 0001:0000CA78       SysUtils.GetExceptionClass
 0001:0000CAA4       SysUtils.CreateAVObject
 0001:0000CC88       SysUtils.GetExceptionObject
 0001:0000CD68       SysUtils.ExceptHandler
 0001:0000CD90       SysUtils.InitExceptions
 0001:0000CE18       SysUtils.DoneExceptions
 0001:0000CE9C       SysUtils.InitPlatformId
 0001:0000CF1C       SysUtils.ByteTypeTest
 0001:0000CFC8       SysUtils.ByteType
 0001:0000CFFC       SysUtils.StrByteType
 0001:0000D02C       SysUtils.ByteToCharLen
 0001:0000D08C       SysUtils.ByteToCharIndex
 0001:0000D130       SysUtils.CountChars
 0001:0000D1F8       SysUtils.CharToByteIndex
 0001:0000D2B0       SysUtils.CharToByteLen
 0001:0000D370       SysUtils.StrCharLength
 0001:0000D3A4       SysUtils.StrNextChar
 0001:0000D3C0       SysUtils.CharLength
 0001:0000D410       SysUtils.NextCharIndex
 0001:0000D464       SysUtils.AnsiPos
 0001:0000D4B0       SysUtils.AnsiStrPos
 0001:0000D588       SysUtils.AnsiStrRScan
 0001:0000D5D8       SysUtils.AnsiStrScan
 0001:0000D630       SysUtils.InitLeadBytes
 0001:0000D6A8       SysUtils.InitSysLocale
 0001:0000D794       SysUtils.GetFormatSettings
 0001:0000DB28       SysUtils.StringReplace
 0001:0000DCF8       SysUtils.ModuleUnloaded
 0001:0000DF48       SysUtils.Sleep
 0001:0000DF50       SysUtils.RaiseLastOSError
 0001:0000DF60       SysUtils.RaiseLastOSError
 0001:0000E008       SysUtils.Win32Check
 0001:0000E02C       SysUtils.FreeTerminateProcs
 0001:0000E060       SysUtils.InitDriveSpacePtr
 0001:0000E0C4       SysUtils.InterlockedIncrement
 0001:0000E0D0       SysUtils.InterlockedDecrement
 0001:0000E0DC       SysUtils.InterlockedExchange
 0001:0000E0E4       SysUtils.InterlockedExchangeAdd
 0001:0000E0EC       SysUtils.TThreadLocalCounter.Destroy
 0001:0000E168       SysUtils.TThreadLocalCounter.HashIndex
 0001:0000E18C       SysUtils.TThreadLocalCounter.Open
 0001:0000E23C       SysUtils.TThreadLocalCounter.Delete
 0001:0000E260       SysUtils.TThreadLocalCounter.Recycle
 0001:0000E2C4       SysUtils.TMultiReadExclusiveWriteSynchronizer.Create
 0001:0000E354       SysUtils.TMultiReadExclusiveWriteSynchronizer.Destroy
 0001:0000E3B0       SysUtils.TMultiReadExclusiveWriteSynchronizer.BlockReaders
 0001:0000E3C8       SysUtils.TMultiReadExclusiveWriteSynchronizer.UnblockReaders
 0001:0000E3E0       SysUtils.TMultiReadExclusiveWriteSynchronizer.UnblockOneWriter
 0001:0000E3F8       SysUtils.TMultiReadExclusiveWriteSynchronizer.WaitForReadSignal
 0001:0000E418       SysUtils.TMultiReadExclusiveWriteSynchronizer.WaitForWriteSignal
 0001:0000E438       SysUtils.TMultiReadExclusiveWriteSynchronizer.BeginWrite
 0001:0000E514       SysUtils.TMultiReadExclusiveWriteSynchronizer.EndWrite
 0001:0000E580       SysUtils.TMultiReadExclusiveWriteSynchronizer.BeginRead
 0001:0000E608       SysUtils.TMultiReadExclusiveWriteSynchronizer.EndRead
 0001:0000E68C       SysUtils.FreeAndNil
 0001:0000E6B0       SysUtils.SafeLoadLibrary
 0001:0000E738       SysUtils.ClearHashTables
 0001:0000EA50       SysUtils.Finalization
 0001:0000EBE0       VarUtils.VariantInit
 0001:0000EBE8       VarUtils.VariantClear
 0001:0000EBF0       VarUtils.VariantCopy
 0001:0000EBF8       VarUtils.VariantCopyInd
 0001:0000EC00       VarUtils.VariantChangeType
 0001:0000EC08       VarUtils.BackupVariantChangeTypeEx
 0001:0000EC40       VarUtils.UniUnimplemented
 0001:0000EC54       VarUtils.BiUnimplemented
 0001:0000EC68       VarUtils.CmpUnimplemented
 0001:0000EC7C       VarUtils.BackupVarI4FromStr
 0001:0000ECF0       VarUtils.BackupVarR4FromStr
 0001:0000ED64       VarUtils.BackupVarR8FromStr
 0001:0000EDD8       VarUtils.BackupVarDateFromStr
 0001:0000EE4C       VarUtils.BackupVarCyFromStr
 0001:0000EEC0       VarUtils.BackupVarBoolFromStr
 0001:0000EF44       VarUtils.BackupVarBStrFromCy
 0001:0000EFC0       VarUtils.BackupVarBStrFromDate
 0001:0000F03C       VarUtils.BackupVarBStrFromBool
 0001:0000F0BC       VarUtils.SafeArrayCreate
 0001:0000F0C4       VarUtils.SafeArrayGetLBound
 0001:0000F0CC       VarUtils.SafeArrayGetUBound
 0001:0000F0D4       VarUtils.SafeArrayAccessData
 0001:0000F0DC       VarUtils.SafeArrayUnaccessData
 0001:0000F0E4       VarUtils.SafeArrayGetElement
 0001:0000F0EC       VarUtils.SafeArrayPutElement
 0001:0000F0F4       VarUtils.SafeArrayPtrOfIndex
 0001:0000F0FC       VarUtils.FindProc
 0001:0000F140       VarUtils.InitializeVarUtils
 0001:0000F44C       VarUtils.Finalization
 0001:0000F4CC       Variants..TCustomVariantType
 0001:0000F658       Variants..TInvokeableVariantType
 0001:0000F70C       Variants..EVariantInvalidOpError
 0001:0000F770       Variants..EVariantTypeCastError
 0001:0000F7D4       Variants..EVariantOverflowError
 0001:0000F838       Variants..EVariantInvalidArgError
 0001:0000F89C       Variants..EVariantBadVarTypeError
 0001:0000F900       Variants..EVariantBadIndexError
 0001:0000F964       Variants..EVariantArrayLockedError
 0001:0000F9CC       Variants..EVariantArrayCreateError
 0001:0000FA34       Variants..EVariantNotImplError
 0001:0000FA98       Variants..EVariantOutOfMemoryError
 0001:0000FB00       Variants..EVariantUnexpectedError
 0001:0000FB64       Variants..EVariantDispatchError
 0001:0000FBC8       Variants.VarCastError
 0001:0000FC1C       Variants.VarCastError
 0001:0000FCB8       Variants.VarInvalidOp
 0001:0000FD0C       Variants.VarOverflowError
 0001:0000FDA8       Variants.VarArrayCreateError
 0001:0000FDFC       Variants.TranslateResult
 0001:00010050       Variants.VarResultCheck
 0001:0001005C       Variants.VarResultCheck
 0001:00010090       Variants.HandleConversionException
 0001:00010114       Variants.@DispInvokeError
 0001:00010168       Variants.@VarNull
 0001:0001017C       Variants.InBounds
 0001:000101AC       Variants.Increment
 0001:00010208       Variants.VarArrayClear
 0001:00010384       Variants.VarClearDeep
 0001:00010400       Variants.@VarClear
 0001:00010414       Variants.@VarClr
 0001:0001041C       Variants.InBounds
 0001:0001044C       Variants.Increment
 0001:000104A8       Variants.VarArrayCopyForEach
 0001:00010674       Variants.VarCopyCopyProc
 0001:0001067C       Variants.VarCopyDeep
 0001:00010728       Variants.@VarCopy
 0001:0001076C       Variants.VarCopyNoIndViaOS
 0001:0001078C       Variants.VarCopyNoIndOleStr
 0001:00010794       Variants.VarCopyNoIndCopyProc
 0001:0001079C       Variants.VarCopyNoIndDeep
 0001:000107D0       Variants.VarCopyByRef
 0001:000109A8       Variants.@VarCopyNoInd
 0001:000109BC       Variants.@VarStringToOleStr
 0001:000109DC       Variants.VarStringToOleStr
 0001:000109E4       Variants.VarCastAsAny
 0001:00010A50       Variants.VarCastAsOleStr
 0001:00010A9C       Variants.VarCastAsString
 0001:00010AE8       Variants.VarCastAsDispatch
 0001:00010B34       Variants.VarCastAsInterface
 0001:00010B80       Variants.VarCastViaOS
 0001:00010C00       Variants.VarCastRare
 0001:00010C6C       Variants.@VarCast
 0001:00010E98       Variants.VarToIntAsString
 0001:00010F4C       Variants.VarToIntViaOS
 0001:00010F88       Variants.VarToIntAny
 0001:00010FEC       Variants.VarToIntCustom
 0001:00011030       Variants.@VarToInteger
 0001:00011480       Variants.@VarToShortInt
 0001:00011534       Variants.@VarToByte
 0001:000115DC       Variants.@VarToSmallInt
 0001:000116D4       Variants.@VarToWord
 0001:000117B0       Variants.@VarToLongWord
 0001:0001189C       Variants.VarToInt64ViaOS
 0001:00011948       Variants.VarToInt64AsString
 0001:00011A48       Variants.VarToInt64Any
 0001:00011AB4       Variants.VarToInt64Custom
 0001:00011B00       Variants.@VarToInt64
 0001:00011F44       Variants.VarToBoolAsString
 0001:00012008       Variants.VarToBoolViaOS
 0001:00012048       Variants.VarToBoolAny
 0001:000120AC       Variants.VarToBoolCustom
 0001:000120F8       Variants.@VarToBoolean
 0001:0001244C       Variants.@VarToBool
 0001:00012458       Variants.VarToDoubleAsString
 0001:0001251C       Variants.VarToDoubleViaOS
 0001:00012568       Variants.VarToDoubleAny
 0001:000125CC       Variants.VarToDoubleCustom
 0001:00012618       Variants.@VarToDouble
 0001:00012990       Variants.@VarToReal
 0001:000129AC       Variants.@VarToSingle
 0001:00012B3C       Variants.VarToDateAsString
 0001:00012C28       Variants.VarToDateAsDouble
 0001:00012C88       Variants.VarToDateViaOS
 0001:00012CD4       Variants.VarToDateAny
 0001:00012D38       Variants.VarToDateCustom
 0001:00012D84       Variants.@VarToDate
 0001:000130D4       Variants.VarToCurrencyAsString
 0001:00013190       Variants.VarToCurrencyAsDouble
 0001:000131F0       Variants.VarToCurrencyViaOS
 0001:0001323C       Variants.VarToCurrencyAny
 0001:000132A0       Variants.VarToCurrencyCustom
 0001:000132EC       Variants.@VarToCurrency
 0001:000136B4       Variants.CurrToWStrViaOS
 0001:000136EC       Variants.DateToWStrViaOS
 0001:00013724       Variants.BoolToWStrViaOS
 0001:000137EC       Variants.VarToLStrViaOS
 0001:000138B8       Variants.VarToLStrAny
 0001:0001391C       Variants.VarToLStrCustom
 0001:000139A4       Variants.@VarToLStr
 0001:00013EE0       Variants.VarToWStrViaOS
 0001:00013F98       Variants.VarToWStrAny
 0001:00013FFC       Variants.VarToWStrCustom
 0001:000140C4       Variants.@VarToWStr
 0001:00014618       Variants.AnyToIntf
 0001:00014690       Variants.@VarToIntf
 0001:0001475C       Variants.@VarToDisp
 0001:00014808       Variants.@VarFromInt
 0001:00014844       Variants.@VarFromInteger
 0001:00014864       Variants.@VarFromByte
 0001:00014884       Variants.@VarFromWord
 0001:000148A4       Variants.@VarFromLongWord
 0001:000148C4       Variants.@VarFromShortInt
 0001:000148E4       Variants.@VarFromSmallInt
 0001:00014904       Variants.@VarFromInt64
 0001:00014930       Variants.@VarFromSingle
 0001:00014954       Variants.@VarFromDouble
 0001:00014980       Variants.@VarFromCurrency
 0001:000149AC       Variants.@VarFromDate
 0001:000149D8       Variants.@VarFromBool
 0001:00014A00       Variants.@VarFromReal
 0001:00014A14       Variants.@VarFromCurr
 0001:00014A28       Variants.@VarFromLStr
 0001:00014A54       Variants.@VarFromPStr
 0001:00014AA4       Variants.@VarFromWStr
 0001:00014ADC       Variants.@VarFromIntf
 0001:00014B08       Variants.@VarFromDisp
 0001:00014B34       Variants.@VarAddRef
 0001:00014CB8       Variants.VarTypeAsText
 0001:00014E28       Variants.VarType
 0001:00014E2C       Variants.FindVarData
 0001:00014E3C       Variants.VarTypeIsCustom
 0001:00014E48       Variants.VarTypeIsStr
 0001:00014E5C       Variants.VarIsNull
 0001:00014E70       Variants.VarToStr
 0001:00014E88       Variants.VarToStrDef
 0001:00014EB4       Variants.VarToWideStr
 0001:00014F0C       Variants.VarToWideStrDef
 0001:00014F38       Variants.SetVarAsError
 0001:00014F50       Variants.SetClearVarToEmptyParam
 0001:00014F5C       Variants.GetVarDataArrayInfo
 0001:00014FA0       Variants.VarArrayCreate
 0001:00015048       Variants.VarArrayAsPSafeArray
 0001:00015070       Variants.VarArrayDimCount
 0001:00015098       Variants.VarArrayLowBound
 0001:000150BC       Variants.VarArrayHighBound
 0001:000150E0       Variants.VarArrayLock
 0001:00015100       Variants.VarArrayUnlock
 0001:00015118       Variants.VarTypeIsValidArrayType
 0001:00015138       Variants.VarTypeIsValidElementType
 0001:00015174       Variants.@VarArrayGet
 0001:00015240       Variants.VarArrayGet
 0001:00015264       Variants.@VarArrayPut
 0001:000153AC       Variants.VarArrayPut
 0001:000153D4       Variants.DynArrayIndex
 0001:00015418       Variants.DynArrayElTypeInfo
 0001:00015430       Variants.DynArrayDim
 0001:00015450       Variants.DynArraySize
 0001:00015458       Variants.IsDynArrayRectangular
 0001:000154C0       Variants.DynArrayBounds
 0001:00015514       Variants.DecIndices
 0001:00015580       Variants.DynArrayVariantBounds
 0001:000155E4       Variants.DynArrayVarType
 0001:0001562C       Variants.DynArrayToVariant
 0001:00015978       Variants.DynArrayFromVariant
 0001:00015CAC       Variants.ClearVariantTypeList
 0001:00015D18       Variants.TCustomVariantType.BinaryOp
 0001:00015D24       Variants.TCustomVariantType.Cast
 0001:00015D5C       Variants.TCustomVariantType.CastTo
 0001:00015DA4       Variants.TCustomVariantType.Compare
 0001:00015DB0       Variants.TCustomVariantType.CompareOp
 0001:00015DE8       Variants.TCustomVariantType.CastToOle
 0001:00015E24       Variants.TCustomVariantType.Create
 0001:00015E68       Variants.TCustomVariantType.Create
 0001:000160F0       Variants.TCustomVariantType.Destroy
 0001:0001617C       Variants.TCustomVariantType.IsClear
 0001:00016180       Variants.TCustomVariantType.LeftPromotion
 0001:00016194       Variants.TCustomVariantType.OlePromotion
 0001:0001619C       Variants.TCustomVariantType.RaiseCastError
 0001:000161A4       Variants.TCustomVariantType.RaiseInvalidOp
 0001:000161AC       Variants.TCustomVariantType.RaiseDispError
 0001:000161B4       Variants.TCustomVariantType.RightPromotion
 0001:000161C8       Variants.TCustomVariantType.UnaryOp
 0001:000161D0       Variants.TCustomVariantType.VarDataInit
 0001:000161D8       Variants.TCustomVariantType.VarDataClear
 0001:000161E0       Variants.TCustomVariantType.VarDataCopyNoInd
 0001:000161EC       Variants.TCustomVariantType.VarDataCastTo
 0001:00016200       Variants.TCustomVariantType.VarDataIsByRef
 0001:00016208       Variants.TCustomVariantType.DispInvoke
 0001:00016214       Variants.TCustomVariantType.VarDataFromStr
 0001:00016220       Variants.TCustomVariantType.VarDataFromOleStr
 0001:0001622C       Variants.TCustomVariantType._AddRef
 0001:00016238       Variants.TCustomVariantType._Release
 0001:00016244       Variants.TCustomVariantType.QueryInterface
 0001:0001626C       Variants.TCustomVariantType.VarDataIsStr
 0001:00016278       Variants.TCustomVariantType.VarDataToStr
 0001:0001628C       Variants.TInvokeableVariantType.FixupIdent
 0001:000162E8       Variants.ParseParam
 0001:0001659C       Variants.TInvokeableVariantType.DispInvoke
 0001:00016848       Variants.TInvokeableVariantType.GetProperty
 0001:00016854       Variants.TInvokeableVariantType.SetProperty
 0001:00016860       Variants.TInvokeableVariantType.DoFunction
 0001:0001686C       Variants.TInvokeableVariantType.DoProcedure
 0001:00016878       Variants.FindCustomVariantType
 0001:00016934       Variants.Null
 0001:0001693C       Variants.Finalization
 0001:000169E8       ActiveX.CoInitialize
 0001:000169F0       ActiveX.CoUninitialize
 0001:000169F8       ActiveX.SysFreeString
 0001:00016A00       ActiveX.GetErrorInfo
 0001:00016B04       TypInfo..TPublishableVariantType
 0001:00016BBC       TypInfo..EPropertyError
 0001:00016C18       TypInfo..EPropertyConvertError
 0001:00016CA8       TypInfo.PropertyNotFound
 0001:00016CDC       TypInfo.RangeError
 0001:00016CF8       TypInfo.GetPropInfo
 0001:00016D24       TypInfo.GetPropInfo
 0001:00016D50       TypInfo.GetPropValue
 0001:00016DA8       TypInfo.GetPropValue
 0001:0001701C       TypInfo.SetPropValue
 0001:00017068       TypInfo.RangedValue
 0001:000170C0       TypInfo.RangedCharValue
 0001:00017210       TypInfo.SetPropValue
 0001:00017528       TypInfo.TPublishableVariantType.GetProperty
 0001:000175A4       TypInfo.TPublishableVariantType.SetProperty
 0001:000175D8       TypInfo.GetTypeData
 0001:000175E4       TypInfo.GetEnumName
 0001:000176EC       TypInfo.GetEnumNameValue
 0001:00017738       TypInfo.GetEnumValue
 0001:000177C0       TypInfo.GetPropInfo
 0001:00017830       TypInfo.GetPropInfo
 0001:00017884       TypInfo.GetOrdProp
 0001:000178F8       TypInfo.SetOrdProp
 0001:00017954       TypInfo.GetEnumProp
 0001:00017984       TypInfo.SetEnumProp
 0001:000179E4       TypInfo.GetSetProp
 0001:00017A18       TypInfo.SetToString
 0001:00017B18       TypInfo.NextWord
 0001:00017B84       TypInfo.StringToSet
 0001:00017C9C       TypInfo.SetSetProp
 0001:00017CC8       TypInfo.GetShortStrProp
 0001:00017D0C       TypInfo.SetShortStrProp
 0001:00017D60       TypInfo.GetShortStrPropAsLongStr
 0001:00017D9C       TypInfo.SetShortStrPropAsLongStr
 0001:00017DD8       TypInfo.AssignLongStr
 0001:00017DF4       TypInfo.GetLongStrProp
 0001:00017E34       TypInfo.SetLongStrProp
 0001:00017E74       TypInfo.GetWideStrPropAsLongStr
 0001:00017ED4       TypInfo.SetWideStrPropAsLongStr
 0001:00017F34       TypInfo.GetStrProp
 0001:00017F98       TypInfo.SetStrProp
 0001:00017FF0       TypInfo.GetWideStrProp
 0001:00018100       TypInfo.SetWideStrProp
 0001:00018204       TypInfo.GetFloatProp
 0001:00018350       TypInfo.SetFloatProp
 0001:000185A0       TypInfo.AssignVariant
 0001:000185BC       TypInfo.GetVariantProp
 0001:000185FC       TypInfo.SetVariantProp
 0001:0001863C       TypInfo.GetInt64Prop
 0001:00018664       TypInfo.SetInt64Prop
 0001:000186A0       TypInfo.GetAccessToProperty
 0001:00018754       TypInfo.GetDynArrayProp
 0001:000187FC       TypInfo.SetDynArrayProp
 0001:00018864       TypInfo.Finalization
 0001:000188B4       Classes..EStreamError
 0001:00018910       Classes..EFileStreamError
 0001:00018970       Classes..EFCreateError
 0001:000189CC       Classes..EFOpenError
 0001:00018A24       Classes..EFilerError
 0001:00018A7C       Classes..EReadError
 0001:00018AD4       Classes..EWriteError
 0001:00018B2C       Classes..EListError
 0001:00018B84       Classes..EStringListError
 0001:00018BE4       Classes..TList
 0001:00018C48       Classes..TThreadList
 0001:00018CA0       Classes..TPersistent
 0001:00018D74       Classes..TStrings
 0001:00018EAC       Classes..TStringList
 0001:00018FC4       Classes..TStream
 0001:00019034       Classes..THandleStream
 0001:000190AC       Classes..TFileStream
 0001:00019134       Classes..TRegGroup
 0001:0001918C       Classes..TRegGroups
 0001:000191E4       Classes.TRegGroup.Create
 0001:00019248       Classes.TRegGroup.Destroy
 0001:0001929C       Classes.PointerInModule
 0001:000192CC       Classes.TRegGroup.UnregisterModuleClasses
 0001:000193BC       Classes.TRegGroups.Create
 0001:00019448       Classes.TRegGroups.Destroy
 0001:000194D0       Classes.TRegGroups.Lock
 0001:000194E8       Classes.TRegGroups.Unlock
 0001:00019500       Classes.TRegGroups.UnregisterModuleClasses
 0001:0001956C       Classes.UnRegisterModuleClasses
 0001:000195BC       Classes.TList.Destroy
 0001:000195E8       Classes.TList.Add
 0001:00019640       Classes.TList.Clear
 0001:00019660       Classes.TList.Delete
 0001:000196F4       Classes.ReturnAddr
 0001:000196FC       Classes.TList.Error
 0001:0001973C       Classes.TList.Error
 0001:0001979C       Classes.TList.Get
 0001:000197E4       Classes.TList.Grow
 0001:0001983C       Classes.TList.IndexOf
 0001:00019888       Classes.TList.Put
 0001:00019918       Classes.TList.Remove
 0001:0001994C       Classes.TList.SetCapacity
 0001:000199A8       Classes.TList.SetCount
 0001:00019A50       Classes.TList.Notify
 0001:00019A64       Classes.TThreadList.Create
 0001:00019ACC       Classes.TThreadList.Destroy
 0001:00019B48       Classes.TThreadList.LockList
 0001:00019B70       Classes.TThreadList.UnlockList
 0001:00019B88       Classes.TPersistent.Destroy
 0001:00019BC4       Classes.TPersistent.Assign
 0001:00019BF0       Classes.TPersistent.AssignError
 0001:00019CC8       Classes.TPersistent.AssignTo
 0001:00019CE4       Classes.TPersistent.DefineProperties
 0001:00019CF4       Classes.TPersistent.GetNamePath
 0001:00019DAC       Classes.TPersistent.GetOwner
 0001:00019DC4       Classes.TStrings.Destroy
 0001:00019E00       Classes.TStrings.Add
 0001:00019E30       Classes.TStrings.AddObject
 0001:00019E64       Classes.TStrings.AddStrings
 0001:00019F24       Classes.TStrings.Assign
 0001:00019FE8       Classes.TStrings.BeginUpdate
 0001:0001A00C       Classes.DoWrite
 0001:0001A06C       Classes.TStrings.DefineProperties
 0001:0001A0B8       Classes.TStrings.EndUpdate
 0001:0001A0DC       Classes.TStrings.Equals
 0001:0001A190       Classes.ReturnAddr
 0001:0001A198       Classes.TStrings.Error
 0001:0001A1D8       Classes.TStrings.Error
 0001:0001A238       Classes.TStrings.Exchange
 0001:0001A324       Classes.TStrings.GetCapacity
 0001:0001A340       Classes.TStrings.GetObject
 0001:0001A358       Classes.TStrings.GetText
 0001:0001A3B4       Classes.TStrings.GetTextStr
 0001:0001A540       Classes.TStrings.IndexOf
 0001:0001A5CC       Classes.TStrings.IndexOfName
 0001:0001A6A8       Classes.TStrings.IndexOfObject
 0001:0001A6F4       Classes.TStrings.InsertObject
 0001:0001A728       Classes.TStrings.LoadFromFile
 0001:0001A784       Classes.TStrings.LoadFromStream
 0001:0001A838       Classes.TStrings.Move
 0001:0001A8F4       Classes.TStrings.Put
 0001:0001A934       Classes.TStrings.PutObject
 0001:0001A948       Classes.TStrings.ReadData
 0001:0001A9F8       Classes.TStrings.SaveToFile
 0001:0001AA58       Classes.TStrings.SaveToStream
 0001:0001AAC8       Classes.TStrings.SetCapacity
 0001:0001AAD8       Classes.TStrings.SetStringsAdapter
 0001:0001AB24       Classes.TStrings.SetText
 0001:0001AB7C       Classes.TStrings.SetTextStr
 0001:0001AD5C       Classes.TStrings.SetUpdateState
 0001:0001AD6C       Classes.TStrings.WriteData
 0001:0001ADF8       Classes.TStrings.GetLineBreak
 0001:0001AE38       Classes.TStrings.SetLineBreak
 0001:0001AE78       Classes.TStrings.CompareStrings
 0001:0001AEF0       Classes.TStrings.GetNameValueSeparator
 0001:0001AF1C       Classes.TStrings.SetNameValueSeparator
 0001:0001AF50       Classes.TStringList.Destroy
 0001:0001AFCC       Classes.TStringList.Add
 0001:0001AFF4       Classes.TStringList.AddObject
 0001:0001B06C       Classes.TStringList.Changed
 0001:0001B098       Classes.TStringList.Changing
 0001:0001B0C4       Classes.TStringList.Clear
 0001:0001B118       Classes.TStringList.Delete
 0001:0001B1B8       Classes.TStringList.Exchange
 0001:0001B234       Classes.TStringList.ExchangeItems
 0001:0001B2A0       Classes.TStringList.Find
 0001:0001B338       Classes.TStringList.Get
 0001:0001B384       Classes.TStringList.GetCapacity
 0001:0001B3A0       Classes.TStringList.GetCount
 0001:0001B3BC       Classes.TStringList.GetObject
 0001:0001B404       Classes.TStringList.Grow
 0001:0001B45C       Classes.TStringList.IndexOf
 0001:0001B4A8       Classes.TStringList.Insert
 0001:0001B4D0       Classes.TStringList.InsertObject
 0001:0001B538       Classes.TStringList.InsertItem
 0001:0001B5E0       Classes.TStringList.Put
 0001:0001B658       Classes.TStringList.PutObject
 0001:0001B6B4       Classes.TStringList.QuickSort
 0001:0001B778       Classes.TStringList.SetCapacity
 0001:0001B7A4       Classes.TStringList.SetUpdateState
 0001:0001B7D4       Classes.StringListCompareStrings
 0001:0001B810       Classes.TStringList.Sort
 0001:0001B82C       Classes.TStringList.CustomSort
 0001:0001B87C       Classes.TStringList.CompareStrings
 0001:0001B960       Classes.TStream.GetPosition
 0001:0001B988       Classes.TStream.GetSize
 0001:0001B9D4       Classes.TStream.SetSize
 0001:0001B9E4       Classes.TStream.SetSize
 0001:0001BA3C       Classes.RaiseException
 0001:0001BA88       Classes.TStream.Seek
 0001:0001BB14       Classes.TStream.Seek
 0001:0001BB84       Classes.TStream.WriteBuffer
 0001:0001BBCC       Classes.THandleStream.Create
 0001:0001BC1C       Classes.THandleStream.Read
 0001:0001BC54       Classes.THandleStream.Write
 0001:0001BC8C       Classes.THandleStream.Seek
 0001:0001BCC0       Classes.THandleStream.SetSize
 0001:0001BCE0       Classes.THandleStream.SetSize
 0001:0001BD10       Classes.TFileStream.Create
 0001:0001BD60       Classes.TFileStream.Create
 0001:0001BEE4       Classes.TFileStream.Destroy
 0001:0001BF2C       Classes.RemoveFixupReferences
 0001:0001BFE8       Classes.RemoveFixups
 0001:0001C07C       Classes.ReadError
 0001:0001C09C       Classes.PropValueError
 0001:0001C0AC       Classes.TReader.CheckValue
 0001:0001C0DC       Classes.TReader.EndOfList
 0001:0001C100       Classes.TReader.NextValue
 0001:0001C124       Classes.TReader.Read
 0001:0001C170       Classes.TReader.ReadBuffer
 0001:0001C1C4       Classes.TReader.ReadListBegin
 0001:0001C1D8       Classes.TReader.ReadListEnd
 0001:0001C1EC       Classes.TReader.ReadStr
 0001:0001C234       Classes.TReader.ReadString
 0001:0001C2F8       Classes.TReader.ReadWideString
 0001:0001C3F0       Classes.TReader.ReadValue
 0001:0001C410       Classes.TReader.SkipSetBody
 0001:0001C460       Classes.SkipList
 0001:0001C48C       Classes.SkipBinary
 0001:0001C4C0       Classes.SkipCollection
 0001:0001C534       Classes.TReader.SkipValue
 0001:0001C6E4       Classes.TReader.SkipProperty
 0001:0001C734       Classes.TReader.SkipBytes
 0001:0001C790       Classes.TWriter.Write
 0001:0001C7DC       Classes.TWriter.WriteBuffer
 0001:0001C808       Classes.TWriter.WriteListBegin
 0001:0001C81C       Classes.TWriter.WriteListEnd
 0001:0001C830       Classes.TWriter.WriteMinStr
 0001:0001C904       Classes.TWriter.WriteString
 0001:0001C960       Classes.TWriter.WriteValue
 0001:0001C980       Classes.InitThreadSynchronization
 0001:0001C9B8       Classes.DoneThreadSynchronization
 0001:0001C9D4       Classes.FreeIntConstList
 0001:0001CA50       Classes.ModuleUnload
 0001:0001CA64       Classes.Finalization
 0001:0001CB34       DateUtils.DaysInAMonth
 0001:0001CB80       DateUtils.EncodeDateTime
 0001:0001CBF4       DateUtils.TryEncodeDateTime
 0001:0001CC84       DateUtils.Translate
 0001:0001CCE0       DateUtils.InvalidDateTimeError
 0001:0001CEA4       SqlTimSt..TSQLTimeStampVariantType
 0001:0001CF60       SqlTimSt..TSQLTimeStampData
 0001:0001D124       SqlTimSt.IsSQLTimeStampBlank
 0001:0001D184       SqlTimSt.TSQLTimeStampData.GetIsBlank
 0001:0001D1A4       SqlTimSt.TSQLTimeStampData.AdjustMonths
 0001:0001D1F4       SqlTimSt.TSQLTimeStampData.AdjustDays
 0001:0001D270       SqlTimSt.TSQLTimeStampData.AdjustHours
 0001:0001D2CC       SqlTimSt.TSQLTimeStampData.AdjustMinutes
 0001:0001D328       SqlTimSt.TSQLTimeStampData.AdjustSeconds
 0001:0001D384       SqlTimSt.TSQLTimeStampData.AdjustDate
 0001:0001D40C       SqlTimSt.TSQLTimeStampData.DaysInMonth
 0001:0001D438       SqlTimSt.TSQLTimeStampData.DoSubtract
 0001:0001D4B4       SqlTimSt.TSQLTimeStampData.DoAdd
 0001:0001D53C       SqlTimSt.TSQLTimeStampData.Compare
 0001:0001D62C       SqlTimSt.TSQLTimeStampData.GetAsString
 0001:0001D64C       SqlTimSt.TSQLTimeStampData.GetAsDateTime
 0001:0001D66C       SqlTimSt.TSQLTimeStampData.SetAsString
 0001:0001D698       SqlTimSt.TSQLTimeStampData.SetAsDateTime
 0001:0001D6C8       SqlTimSt.TSQLTimeStampData.Create
 0001:0001D72C       SqlTimSt.TSQLTimeStampData.Create
 0001:0001D78C       SqlTimSt.TSQLTimeStampData.Create
 0001:0001D7EC       SqlTimSt.TSQLTimeStampData.Create
 0001:0001D838       SqlTimSt.TSQLTimeStampData.SetDay
 0001:0001D854       SqlTimSt.TSQLTimeStampData.SetFractions
 0001:0001D870       SqlTimSt.TSQLTimeStampData.SetHour
 0001:0001D88C       SqlTimSt.TSQLTimeStampData.SetMinute
 0001:0001D8A8       SqlTimSt.TSQLTimeStampData.SetMonth
 0001:0001D8C4       SqlTimSt.TSQLTimeStampData.SetSecond
 0001:0001D8E0       SqlTimSt.TSQLTimeStampData.SetYear
 0001:0001D8FC       SqlTimSt.TSQLTimeStampVariantType.Clear
 0001:0001D920       SqlTimSt.TSQLTimeStampVariantType.Cast
 0001:0001DA50       SqlTimSt.TSQLTimeStampVariantType.CastTo
 0001:0001DB90       SqlTimSt.TSQLTimeStampVariantType.Copy
 0001:0001DBF0       SqlTimSt.TSQLTimeStampVariantType.GetInstance
 0001:0001DC0C       SqlTimSt.TSQLTimeStampVariantType.BinaryOp
 0001:0001DC5C       SqlTimSt.TSQLTimeStampVariantType.Compare
 0001:0001DC88       SqlTimSt.SQLTimeStampToStr
 0001:0001DCC4       SqlTimSt.IsSqlTimeStampValid
 0001:0001DD24       SqlTimSt.TryStrToSQLTimeStamp
 0001:0001DD88       SqlTimSt.StrToSQLTimeStamp
 0001:0001DDF8       SqlTimSt.DateTimeToSQLTimeStamp
 0001:0001DE58       SqlTimSt.SQLTimeStampToDateTime
 0001:0001DF08       SqlTimSt.CheckSqlTimeStamp
 0001:0001E060       SqlTimSt.Finalization
 0001:0001E09C       WideStrUtils.WStrLen
 0001:0001E0D4       WideStrUtils.WStrLCopy
 0001:0001E128       WideStrings.CharNextW95
 0001:0001E140       WideStrings.InitCharNextWFunc
 0001:0001E160       WideStrings.Finalization
 0001:0001E190       FMTBcd..EBcdException
 0001:0001E1EC       FMTBcd..EBcdOverflowException
 0001:0001E250       FMTBcd.EmptyBcd
 0001:0001E268       FMTBcd.PutTwoBcdDigits
 0001:0001E2A4       FMTBcd.GetBcdDigit
 0001:0001E2FC       FMTBcd.PutCurrencyDigit
 0001:0001E32C       FMTBcd..TFMTBcdVariantType
 0001:0001E3E0       FMTBcd..TFMTBcdData
 0001:0001E51C       FMTBcd.BcdErrorFmt
 0001:0001E58C       FMTBcd.BcdError
 0001:0001E5AC       FMTBcd.OverflowError
 0001:0001E5CC       FMTBcd.TFMTBcdData.DoAdd
 0001:0001E60C       FMTBcd.TFMTBcdData.DoAdd
 0001:0001E62C       FMTBcd.TFMTBcdData.DoSubtract
 0001:0001E66C       FMTBcd.TFMTBcdData.DoSubtract
 0001:0001E68C       FMTBcd.TFMTBcdData.DoMultiply
 0001:0001E6D0       FMTBcd.TFMTBcdData.DoDivide
 0001:0001E714       FMTBcd.TFMTBcdData.Compare
 0001:0001E73C       FMTBcd.TFMTBcdData.GetAsString
 0001:0001E75C       FMTBcd.TFMTBcdData.GetAsDouble
 0001:0001E7B8       FMTBcd.TFMTBcdData.GetAsInteger
 0001:0001E814       FMTBcd.TFMTBcdData.GetAsSmallInt
 0001:0001E834       FMTBcd.TFMTBcdData.GetAsCurrency
 0001:0001E854       FMTBcd.TFMTBcdData.SetAsString
 0001:0001E888       FMTBcd.TFMTBcdData.SetAsDouble
 0001:0001E8FC       FMTBcd.TFMTBcdData.SetAsInteger
 0001:0001E968       FMTBcd.TFMTBcdData.SetAsSmallInt
 0001:0001E988       FMTBcd.TFMTBcdData.SetAsCurrency
 0001:0001E9B0       FMTBcd.TFMTBcdData.Create
 0001:0001EA08       FMTBcd.TFMTBcdData.Create
 0001:0001EB14       FMTBcd.TFMTBcdData.Create
 0001:0001EBC8       FMTBcd.TFMTBcdData.Create
 0001:0001EC14       FMTBcd.TFMTBcdVariantType.Clear
 0001:0001EC38       FMTBcd.TFMTBcdVariantType.Cast
 0001:0001ED70       FMTBcd.TFMTBcdVariantType.CastTo
 0001:0001EEB0       FMTBcd.TFMTBcdVariantType.Copy
 0001:0001EF10       FMTBcd.TFMTBcdVariantType.BinaryOp
 0001:0001EF8C       FMTBcd.TFMTBcdVariantType.GetInstance
 0001:0001EFA8       FMTBcd.TFMTBcdVariantType.Compare
 0001:0001EFD4       FMTBcd.StrToBcd
 0001:0001F040       FMTBcd.BcdToDouble
 0001:0001F098       FMTBcd.RoundChar
 0001:0001F11C       FMTBcd.RoundAt
 0001:0001F400       FMTBcd.LeftTrim
 0001:0001F46C       FMTBcd.CompareDigits
 0001:0001F570       FMTBcd.GetValueAndMultiplyOrder
 0001:0001F738       FMTBcd.AddChars
 0001:0001F7B8       FMTBcd.SubtractChars
 0001:0001F818       FMTBcd.AddStrings
 0001:0001F9C0       FMTBcd.SubtractStrings
 0001:0001FC14       FMTBcd._ShortMultiply
 0001:0001FE5C       FMTBcd.StringMultiplyByByte
 0001:0001FF5C       FMTBcd._LongMultiply
 0001:00020258       FMTBcd.CanUseShort
 0001:000203EC       FMTBcd.BlankArgument
 0001:00020494       FMTBcd._Multiply
 0001:0002050C       FMTBcd.NextDigit
 0001:000205DC       FMTBcd.AdjustDecimalPosition
 0001:00020858       FMTBcd.ValueOverOne
 0001:00020B6C       FMTBcd._LongDivide
 0001:00020E54       FMTBcd._Divide
 0001:00020F88       FMTBcd.InvalidBcdString
 0001:000210A0       FMTBcd.ReverseNegative
 0001:000210C8       FMTBcd.ZeroBcd
 0001:00021104       FMTBcd.TryStrToBcd
 0001:00021460       FMTBcd.SignificantIntDigits
 0001:000214E4       FMTBcd.AddSubtractNormalizedFractions
 0001:0002164C       FMTBcd.SubtractNormalizedFractions
 0001:00021670       FMTBcd.AddNormalizedFractions
 0001:00021694       FMTBcd.CompareNormalizedFractions
 0001:00021814       FMTBcd.MoveBytesToRight
 0001:000218A4       FMTBcd.MoveNibblesToRight
 0001:0002195C       FMTBcd.LoadNibbleArray
 0001:00021A28       FMTBcd.CompareSignificantFractions
 0001:00021B30       FMTBcd.MoveNibblesToLeft
 0001:00021C68       FMTBcd.NormalizeBcd
 0001:00021E00       FMTBcd.NumberOfDigits
 0001:00021E40       FMTBcd.CompactBcd
 0001:00021F1C       FMTBcd.AdjustNibbles
 0001:00021FA0       FMTBcd.NormalizeBcdPair
 0001:00022198       FMTBcd.BcdCompare
 0001:0002226C       FMTBcd.BcdSubtract
 0001:000222B0       FMTBcd.BcdMultiply
 0001:000223D8       FMTBcd.BcdMultiply
 0001:0002244C       FMTBcd.BcdDivide
 0001:000225D8       FMTBcd.BcdDivide
 0001:0002264C       FMTBcd.BcdAdd
 0001:000227A4       FMTBcd.BcdToStr
 0001:00022A38       FMTBcd.BcdScale
 0001:00022A5C       FMTBcd.IsBcdNegative
 0001:00022A78       FMTBcd.GetNextByte
 0001:00022ADC       FMTBcd.CurrToBCD
 0001:00022C80       FMTBcd.BCDToCurr
 0001:00022DAC       FMTBcd.Finalization
 0001:00022E08       ComObj..EOleError
 0001:00022E60       ComObj..EOleSysError
 0001:00022EBC       ComObj..EOleException
 0001:00022F74       ComObj.TrimPunctuation
 0001:00022FE0       ComObj.EOleSysError.Create
 0001:000230BC       ComObj.EOleException.Create
 0001:00023168       ComObj.OleError
 0001:0002318C       ComObj.OleCheck
 0001:000231A4       ComObj.LoadComExProcs
 0001:000232C0       ComObj.SafeCallError
 0001:000233C4       ComObj.DispatchInvoke
 0001:00023780       ComObj.RaiseNameException
 0001:000237B4       ComObj.GetIDsOfNames
 0001:000238B8       ComObj.RaiseException
 0001:000238D4       ComObj.VarDispInvoke
 0001:00023980       ComObj.DispCallError
 0001:00023A78       ComObj.DispatchInvokeError
 0001:00023A9C       ComObj.ClearExcepInfo
 0001:00023AB8       ComObj.DispCall
 0001:00023B9C       ComObj.DispCallByID
 0001:00023C78       ComObj.InitComObj
 0001:00023D0C       ComObj.Finalization
 0001:00024128       DB..TDefaultDBScreenApplication
 0001:000241A4       DB.TDefaultDBScreenApplication.GetCursor
 0001:000241C0       DB.TDefaultDBScreenApplication.GetTitle
 0001:000241E0       DB.TDefaultDBScreenApplication.ProcessMessages
 0001:000241EC       DB.TDefaultDBScreenApplication.SetCursor
 0001:00024208       DB.TDefaultDBScreenApplication.SetTitle
 0001:00024228       DB.Finalization
 0001:00024284       DSIntf.Finalization
 0001:00024C04       DbxOpenOdbcInterface.DoRegisterDbXpressLibNull
 0001:00024C08       DbxOpenOdbcInterface.Finalization
 0001:00024C78       SyncObjs..TSynchroObject
 0001:00024CDC       SyncObjs..TCriticalSection
 0001:00024D44       SyncObjs.TSynchroObject.Acquire
 0001:00024D50       SyncObjs.TSynchroObject.Release
 0001:00024D5C       SyncObjs.TCriticalSection.Create
 0001:00024DAC       SyncObjs.TCriticalSection.Destroy
 0001:00024DEC       SyncObjs.TCriticalSection.Acquire
 0001:00024E04       SyncObjs.TCriticalSection.Release
 0001:00024E34       IniFiles.Finalization
 0001:00024E7C       Registry..ERegistryException
 0001:00024EDC       Registry..TRegistry
 0001:00024F44       Registry.ReadError
 0001:00024F78       Registry.IsRelative
 0001:00024FA0       Registry.DataTypeToRegData
 0001:00024FE4       Registry.TRegistry.Create
 0001:0002503C       Registry.TRegistry.Create
 0001:0002508C       Registry.TRegistry.Destroy
 0001:000250C8       Registry.TRegistry.CloseKey
 0001:00025110       Registry.TRegistry.SetRootKey
 0001:00025158       Registry.TRegistry.ChangeKey
 0001:0002518C       Registry.TRegistry.GetBaseKey
 0001:000251C4       Registry.TRegistry.OpenKey
 0001:000252FC       Registry.TRegistry.GetDataInfo
 0001:00025358       Registry.TRegistry.GetDataSize
 0001:0002538C       Registry.TRegistry.ReadString
 0001:00025418       Registry.TRegistry.GetData
 0001:00025498       Registry.TRegistry.ValueExists
 0001:000254D4       Registry.Finalization
 0001:0002551C       OdbcApi..EOdbcApi
 0001:00025574       OdbcApi..EOdbcApiNotImplemented
 0001:000255D8       OdbcApi..TOdbcApiProxy
 0001:00025B94       OdbcApi..TOdbcApiIntfImpl
 0001:00025C34       OdbcApi..TStringHash
 0001:00025CA4       OdbcApi.TStringHash.Create
 0001:00025D04       OdbcApi.TStringHash.Destroy
 0001:00025D3C       OdbcApi.TStringHash.Clear
 0001:00025DAC       OdbcApi.TStringHash.HashOf
 0001:00025DE0       OdbcApi.TStringHash.Add
 0001:00025E40       OdbcApi.TStringHash.Remove
 0001:00025E78       OdbcApi.TStringHash.ValueOf
 0001:00025E98       OdbcApi.TStringHash.Find
 0001:00025EE0       OdbcApi.TStringHash.BeginLock
 0001:00025EE8       OdbcApi.TStringHash.EndLock
 0001:00025EF4       OdbcApi.ExtractNextLibName
 0001:00025FA0       OdbcApi.GetProcAddressEx
 0001:00026060       OdbcApi.LoadOdbcDriverManager
 0001:00027CA8       OdbcApi.UnLoadOdbcDriverManager
 0001:00027D0C       OdbcApi.TOdbcApiProxy.Destroy
 0001:00027D74       OdbcApi.TOdbcApiProxy.NotImplemented
 0001:00027E7C       OdbcApi.TOdbcApiProxy.BeginLock
 0001:00027E88       OdbcApi.TOdbcApiProxy.EndLock
 0001:00027E94       OdbcApi.TOdbcApiProxy.SQLAllocConnect
 0001:00027EB0       OdbcApi.TOdbcApiProxy.SQLAllocEnv
 0001:00027ECC       OdbcApi.TOdbcApiProxy.SQLAllocHandleStd
 0001:00027F24       OdbcApi.TOdbcApiProxy.SQLAllocHandle
 0001:00027FC0       OdbcApi.TOdbcApiProxy.SQLAllocStmt
 0001:00027FDC       OdbcApi.TOdbcApiProxy.SQLBindCol
 0001:00028034       OdbcApi.TOdbcApiProxy.SQLBindParam
 0001:0002809C       OdbcApi.TOdbcApiProxy.SQLBindParameter
 0001:00028118       OdbcApi.TOdbcApiProxy.SQLBrowseConnect
 0001:0002829C       OdbcApi.TOdbcApiProxy.SQLBulkOperations
 0001:000282E4       OdbcApi.TOdbcApiProxy.SQLCancel
 0001:0002831C       OdbcApi.TOdbcApiProxy.SQLCloseCursor
 0001:0002836C       OdbcApi.TOdbcApiProxy.SQLColAttribute
 0001:00028550       OdbcApi.TOdbcApiProxy.SQLColAttributeInt
 0001:00028574       OdbcApi.TOdbcApiProxy.SQLColAttributeString
 0001:00028598       OdbcApi.TOdbcApiProxy.SQLColAttributes
 0001:00028728       OdbcApi.TOdbcApiProxy.SQLColumnPrivileges
 0001:000288A0       OdbcApi.TOdbcApiProxy.SQLColumns
 0001:00028A54       OdbcApi.TOdbcApiProxy.SQLConnect
 0001:00028BC4       OdbcApi.TOdbcApiProxy.SQLCopyDesc
 0001:00028BFC       OdbcApi.TOdbcApiProxy.SQLDataSources
 0001:00028DBC       OdbcApi.TOdbcApiProxy.SQLDescribeCol
 0001:00028F38       OdbcApi.TOdbcApiProxy.SQLDescribeParam
 0001:00028FA0       OdbcApi.TOdbcApiProxy.SQLDisconnect
 0001:00028FDC       OdbcApi.TOdbcApiProxy.SQLDriverConnect
 0001:00029188       OdbcApi.TOdbcApiProxy.SQLDrivers
 0001:000293A0       OdbcApi.TOdbcApiProxy.SQLEndTran
 0001:00029434       OdbcApi.TOdbcApiProxy.SQLError
 0001:000295D8       OdbcApi.TOdbcApiProxy.SQLExecDirect
 0001:000296A0       OdbcApi.TOdbcApiProxy.SQLExecute
 0001:000296D8       OdbcApi.TOdbcApiProxy.SQLExtendedFetch
 0001:0002973C       OdbcApi.TOdbcApiProxy.SQLFetch
 0001:00029774       OdbcApi.TOdbcApiProxy.SQLFetchScroll
 0001:000297C8       OdbcApi.TOdbcApiProxy.SQLForeignKeys
 0001:00029994       OdbcApi.TOdbcApiProxy.SQLFreeConnect
 0001:000299D4       OdbcApi.TOdbcApiProxy.SQLFreeEnv
 0001:00029A10       OdbcApi.DoSQLFreeHandle
 0001:00029ADC       OdbcApi.TOdbcApiProxy.SQLFreeHandle
 0001:00029B64       OdbcApi.TOdbcApiProxy.SQLFreeStmt
 0001:00029BA4       OdbcApi.TOdbcApiProxy.SQLGetConnectAttr
 0001:00029DD4       OdbcApi.TOdbcApiProxy.SQLGetConnectOption
 0001:00029EB4       OdbcApi.TOdbcApiProxy.SQLGetCursorName
 0001:0002A004       OdbcApi.TOdbcApiProxy.SQLGetData
 0001:0002A064       OdbcApi.TOdbcApiProxy.SQLGetDescField
 0001:0002A1DC       OdbcApi.TOdbcApiProxy.SQLGetDescRec
 0001:0002A354       OdbcApi.TOdbcApiProxy.SQLGetDiagField
 0001:0002A4AC       OdbcApi.TOdbcApiProxy.SQLGetDiagRec
 0001:0002A664       OdbcApi.TOdbcApiProxy.SQLGetEnvAttr
 0001:0002A6C0       OdbcApi.TOdbcApiProxy.SQLFunctionSupported
 0001:0002A6EC       OdbcApi.TOdbcApiProxy.SQLGetFunctions
 0001:0002B0DC       OdbcApi.TOdbcApiProxy.SQLGetInfo
 0001:0002B268       OdbcApi.TOdbcApiProxy.SQLGetInfoInt
 0001:0002B280       OdbcApi.TOdbcApiProxy.SQLGetInfoSmallint
 0001:0002B298       OdbcApi.TOdbcApiProxy.SQLGetInfoString
 0001:0002B2B4       OdbcApi.TOdbcApiProxy.SQLGetStmtAttr
 0001:0002B434       OdbcApi.TOdbcApiProxy.SQLGetStmtOption
 0001:0002B490       OdbcApi.TOdbcApiProxy.SQLGetTypeInfo
 0001:0002B4E8       OdbcApi.TOdbcApiProxy.SQLMoreResults
 0001:0002B500       OdbcApi.TOdbcApiProxy.SQLNativeSql
 0001:0002B668       OdbcApi.TOdbcApiProxy.SQLNumParams
 0001:0002B6AC       OdbcApi.TOdbcApiProxy.SQLNumResultCols
 0001:0002B6F4       OdbcApi.TOdbcApiProxy.SQLParamData
 0001:0002B738       OdbcApi.TOdbcApiProxy.SQLParamOptions
 0001:0002B78C       OdbcApi.TOdbcApiProxy.SQLPrepare
 0001:0002B858       OdbcApi.TOdbcApiProxy.SQLPrimaryKeys
 0001:0002B9BC       OdbcApi.TOdbcApiProxy.SQLProcedureColumns
 0001:0002BB60       OdbcApi.TOdbcApiProxy.SQLProcedures
 0001:0002BCC4       OdbcApi.TOdbcApiProxy.SQLPutData
 0001:0002BD14       OdbcApi.TOdbcApiProxy.SQLRowCount
 0001:0002BD54       OdbcApi.TOdbcApiProxy.SQLSetConnectAttr
 0001:0002BE7C       OdbcApi.TOdbcApiProxy.SQLSetConnectOption
 0001:0002BEF4       OdbcApi.TOdbcApiProxy.SQLSetCursorName
 0001:0002BFD0       OdbcApi.TOdbcApiProxy.SQLSetDescField
 0001:0002C0C4       OdbcApi.TOdbcApiProxy.SQLSetDescRec
 0001:0002C13C       OdbcApi.TOdbcApiProxy.SQLSetEnvAttr
 0001:0002C194       OdbcApi.TOdbcApiProxy.SQLSetParam
 0001:0002C1FC       OdbcApi.TOdbcApiProxy.SQLSetPos
 0001:0002C254       OdbcApi.TOdbcApiProxy.SQLSetScrollOptions
 0001:0002C2B4       OdbcApi.TOdbcApiProxy.SQLSetStmtAttr
 0001:0002C3D8       OdbcApi.TOdbcApiProxy.SQLSetStmtOption
 0001:0002C434       OdbcApi.TOdbcApiProxy.SQLSpecialColumns
 0001:0002C5C0       OdbcApi.TOdbcApiProxy.SQLStatistics
 0001:0002C760       OdbcApi.TOdbcApiProxy.SQLTablePrivileges
 0001:0002C8C4       OdbcApi.TOdbcApiProxy.SQLTables
 0001:0002CA98       OdbcApi.TOdbcApiProxy.SQLTransact
 0001:0002CAE8       OdbcApi.TOdbcApiProxy.TraceCloseLogFile
 0001:0002CB30       OdbcApi.TOdbcApiProxy.TraceOpenLogFile
 0001:0002CB8C       OdbcApi.TOdbcApiProxy.TraceReturn
 0001:0002CBC4       OdbcApi.TOdbcApiProxy.TraceVersion
 0001:0002CC08       OdbcApi.TOdbcApiProxy.TraceVSControl
 0001:0002CC4C       OdbcApi.TOdbcApiProxy.FireVSDebugEvent
 0001:0002CC8C       OdbcApi.TOdbcApiProxy.ODBCGetTryWaitValue
 0001:0002CCD4       OdbcApi.TOdbcApiProxy.ODBCSetTryWaitValue
 0001:0002CD1C       OdbcApi.TOdbcApiProxy.SQL_ADD_RECORD
 0001:0002CD28       OdbcApi.TOdbcApiProxy.SQL_DELETE_RECORD
 0001:0002CD34       OdbcApi.TOdbcApiProxy.SQL_FUNC_EXISTS
 0001:0002CD60       OdbcApi.TOdbcApiProxy.SQL_LEN_BINARY_ATTR
 0001:0002CD68       OdbcApi.TOdbcApiProxy.SQL_LEN_DATA_AT_EXEC
 0001:0002CD70       OdbcApi.TOdbcApiProxy.SQL_LOCK_RECORD
 0001:0002CD88       OdbcApi.TOdbcApiProxy.SQL_POSITION_TO
 0001:0002CD94       OdbcApi.TOdbcApiProxy.SQL_REFRESH_RECORD
 0001:0002CDAC       OdbcApi.TOdbcApiProxy.SQL_UPDATE_RECORD
 0001:0002CDB8       OdbcApi.TOdbcApiProxy.SetOdbcDriverLevel
 0001:0002CE68       OdbcApi.TOdbcApiProxy.GetOdbcApiIntf
 0001:0002CEA8       OdbcApi.TOdbcApiIntfImpl.FireVSDebugEvent
 0001:0002CF00       OdbcApi.TOdbcApiIntfImpl.ODBCGetTryWaitValue
 0001:0002CF58       OdbcApi.TOdbcApiIntfImpl.ODBCSetTryWaitValue
 0001:0002CFB0       OdbcApi.TOdbcApiIntfImpl.SQL_ADD_RECORD
 0001:0002D008       OdbcApi.TOdbcApiIntfImpl.SQL_DELETE_RECORD
 0001:0002D060       OdbcApi.TOdbcApiIntfImpl.SQL_FUNC_EXISTS
 0001:0002D0B8       OdbcApi.TOdbcApiIntfImpl.SQL_LEN_BINARY_ATTR
 0001:0002D110       OdbcApi.TOdbcApiIntfImpl.SQL_LEN_DATA_AT_EXEC
 0001:0002D168       OdbcApi.TOdbcApiIntfImpl.SQL_LOCK_RECORD
 0001:0002D1CC       OdbcApi.TOdbcApiIntfImpl.SQL_POSITION_TO
 0001:0002D224       OdbcApi.TOdbcApiIntfImpl.SQL_REFRESH_RECORD
 0001:0002D288       OdbcApi.TOdbcApiIntfImpl.SQL_UPDATE_RECORD
 0001:0002D2E0       OdbcApi.TOdbcApiIntfImpl.SQLAllocConnect
 0001:0002D338       OdbcApi.TOdbcApiIntfImpl.SQLAllocEnv
 0001:0002D390       OdbcApi.TOdbcApiIntfImpl.SQLAllocHandle
 0001:0002D3F4       OdbcApi.TOdbcApiIntfImpl.SQLAllocHandleStd
 0001:0002D458       OdbcApi.TOdbcApiIntfImpl.SQLAllocStmt
 0001:0002D4B0       OdbcApi.TOdbcApiIntfImpl.SQLBindCol
 0001:0002D520       OdbcApi.TOdbcApiIntfImpl.SQLBindParam
 0001:0002D598       OdbcApi.TOdbcApiIntfImpl.SQLBindParameter
 0001:0002D61C       OdbcApi.TOdbcApiIntfImpl.SQLBrowseConnect
 0001:0002D68C       OdbcApi.TOdbcApiIntfImpl.SQLBulkOperations
 0001:0002D6E4       OdbcApi.TOdbcApiIntfImpl.SQLCancel
 0001:0002D73C       OdbcApi.TOdbcApiIntfImpl.SQLCloseCursor
 0001:0002D794       OdbcApi.TOdbcApiIntfImpl.SQLColAttribute
 0001:0002D808       OdbcApi.TOdbcApiIntfImpl.SQLColAttributeInt
 0001:0002D87C       OdbcApi.TOdbcApiIntfImpl.SQLColAttributes
 0001:0002D8F0       OdbcApi.TOdbcApiIntfImpl.SQLColAttributeString
 0001:0002D964       OdbcApi.TOdbcApiIntfImpl.SQLColumnPrivileges
 0001:0002D9E4       OdbcApi.TOdbcApiIntfImpl.SQLColumns
 0001:0002DA64       OdbcApi.TOdbcApiIntfImpl.SQLConnect
 0001:0002DAD8       OdbcApi.TOdbcApiIntfImpl.SQLCopyDesc
 0001:0002DB30       OdbcApi.TOdbcApiIntfImpl.SQLDataSources
 0001:0002DBA8       OdbcApi.TOdbcApiIntfImpl.SQLDescribeCol
 0001:0002DC24       OdbcApi.TOdbcApiIntfImpl.SQLDescribeParam
 0001:0002DC94       OdbcApi.TOdbcApiIntfImpl.SQLDisconnect
 0001:0002DCEC       OdbcApi.TOdbcApiIntfImpl.SQLDriverConnect
 0001:0002DD64       OdbcApi.TOdbcApiIntfImpl.SQLDrivers
 0001:0002DDDC       OdbcApi.TOdbcApiIntfImpl.SQLEndTran
 0001:0002DE40       OdbcApi.TOdbcApiIntfImpl.SQLError
 0001:0002DEB8       OdbcApi.TOdbcApiIntfImpl.SQLExecDirect
 0001:0002DF1C       OdbcApi.TOdbcApiIntfImpl.SQLExecute
 0001:0002DF74       OdbcApi.TOdbcApiIntfImpl.SQLExtendedFetch
 0001:0002DFE0       OdbcApi.TOdbcApiIntfImpl.SQLFetch
 0001:0002E038       OdbcApi.TOdbcApiIntfImpl.SQLFetchScroll
 0001:0002E09C       OdbcApi.TOdbcApiIntfImpl.SQLForeignKeys
 0001:0002E12C       OdbcApi.TOdbcApiIntfImpl.SQLFreeConnect
 0001:0002E184       OdbcApi.TOdbcApiIntfImpl.SQLFreeEnv
 0001:0002E1DC       OdbcApi.TOdbcApiIntfImpl.SQLFreeHandle
 0001:0002E234       OdbcApi.TOdbcApiIntfImpl.SQLFreeStmt
 0001:0002E28C       OdbcApi.TOdbcApiIntfImpl.SQLFunctionSupported
 0001:0002E2E4       OdbcApi.TOdbcApiIntfImpl.SQLGetConnectAttr
 0001:0002E350       OdbcApi.TOdbcApiIntfImpl.SQLGetConnectOption
 0001:0002E3B4       OdbcApi.TOdbcApiIntfImpl.SQLGetCursorName
 0001:0002E41C       OdbcApi.TOdbcApiIntfImpl.SQLGetData
 0001:0002E48C       OdbcApi.TOdbcApiIntfImpl.SQLGetDescField
 0001:0002E4FC       OdbcApi.TOdbcApiIntfImpl.SQLGetDescRec
 0001:0002E580       OdbcApi.TOdbcApiIntfImpl.SQLGetDiagField
 0001:0002E5F4       OdbcApi.TOdbcApiIntfImpl.SQLGetDiagRec
 0001:0002E66C       OdbcApi.TOdbcApiIntfImpl.SQLGetEnvAttr
 0001:0002E6D8       OdbcApi.TOdbcApiIntfImpl.SQLGetFunctions
 0001:0002E73C       OdbcApi.TOdbcApiIntfImpl.SQLGetInfo
 0001:0002E7A8       OdbcApi.TOdbcApiIntfImpl.SQLGetInfoInt
 0001:0002E814       OdbcApi.TOdbcApiIntfImpl.SQLGetInfoSmallint
 0001:0002E880       OdbcApi.TOdbcApiIntfImpl.SQLGetInfoString
 0001:0002E8EC       OdbcApi.TOdbcApiIntfImpl.SQLGetStmtAttr
 0001:0002E958       OdbcApi.TOdbcApiIntfImpl.SQLGetStmtOption
 0001:0002E9BC       OdbcApi.TOdbcApiIntfImpl.SQLGetTypeInfo
 0001:0002EA14       OdbcApi.TOdbcApiIntfImpl.SQLMoreResults
 0001:0002EA6C       OdbcApi.TOdbcApiIntfImpl.SQLNativeSql
 0001:0002EADC       OdbcApi.TOdbcApiIntfImpl.SQLNumParams
 0001:0002EB34       OdbcApi.TOdbcApiIntfImpl.SQLNumResultCols
 0001:0002EB8C       OdbcApi.TOdbcApiIntfImpl.SQLParamData
 0001:0002EBE4       OdbcApi.TOdbcApiIntfImpl.SQLParamOptions
 0001:0002EC48       OdbcApi.TOdbcApiIntfImpl.SQLPrepare
 0001:0002ECAC       OdbcApi.TOdbcApiIntfImpl.SQLPrimaryKeys
 0001:0002ED20       OdbcApi.TOdbcApiIntfImpl.SQLProcedureColumns
 0001:0002EDA0       OdbcApi.TOdbcApiIntfImpl.SQLProcedures
 0001:0002EE14       OdbcApi.TOdbcApiIntfImpl.SQLPutData
 0001:0002EE78       OdbcApi.TOdbcApiIntfImpl.SQLRowCount
 0001:0002EED0       OdbcApi.TOdbcApiIntfImpl.SQLSetConnectAttr
 0001:0002EF38       OdbcApi.TOdbcApiIntfImpl.SQLSetConnectOption
 0001:0002EF9C       OdbcApi.TOdbcApiIntfImpl.SQLSetCursorName
 0001:0002F000       OdbcApi.TOdbcApiIntfImpl.SQLSetDescField
 0001:0002F06C       OdbcApi.TOdbcApiIntfImpl.SQLSetDescRec
 0001:0002F0F0       OdbcApi.TOdbcApiIntfImpl.SQLSetEnvAttr
 0001:0002F158       OdbcApi.TOdbcApiIntfImpl.SQLSetParam
 0001:0002F1D0       OdbcApi.TOdbcApiIntfImpl.SQLSetPos
 0001:0002F238       OdbcApi.TOdbcApiIntfImpl.SQLSetScrollOptions
 0001:0002F2A0       OdbcApi.TOdbcApiIntfImpl.SQLSetStmtAttr
 0001:0002F308       OdbcApi.TOdbcApiIntfImpl.SQLSetStmtOption
 0001:0002F36C       OdbcApi.TOdbcApiIntfImpl.SQLSpecialColumns
 0001:0002F3F0       OdbcApi.TOdbcApiIntfImpl.SQLStatistics
 0001:0002F470       OdbcApi.TOdbcApiIntfImpl.SQLTablePrivileges
 0001:0002F4E4       OdbcApi.TOdbcApiIntfImpl.SQLTables
 0001:0002F564       OdbcApi.TOdbcApiIntfImpl.SQLTransact
 0001:0002F5C8       OdbcApi.TOdbcApiIntfImpl.TraceCloseLogFile
 0001:0002F620       OdbcApi.TOdbcApiIntfImpl.TraceOpenLogFile
 0001:0002F684       OdbcApi.TOdbcApiIntfImpl.TraceReturn
 0001:0002F6DC       OdbcApi.TOdbcApiIntfImpl.TraceVersion
 0001:0002F734       OdbcApi.TOdbcApiIntfImpl.TraceVSControl
 0001:0002F78C       OdbcApi.Finalization
 0001:0002F838       RegExpr..TRegExpr
 0001:0002F8B8       RegExpr..ERegExpr
 0001:0002F928       RegExpr.TRegExpr.ErrorMsg
 0001:00030468       RegExpr.TRegExpr.Create
 0001:0003057C       RegExpr.TRegExpr.Destroy
 0001:000305C4       RegExpr.TRegExpr.InvertCaseFunction
 0001:000305E0       RegExpr.TRegExpr.ParseModifiersStr
 0001:000307BC       RegExpr.TRegExpr.GetModifier
 0001:00030830       RegExpr.TRegExpr.SetModifier
 0001:000308A8       RegExpr.TRegExpr.InvalidateProgramm
 0001:000308C4       RegExpr.TRegExpr.Compile
 0001:000308E4       RegExpr.TRegExpr.IsProgrammOk
 0001:0003099C       RegExpr.TRegExpr.Tail
 0001:000309D8       RegExpr.TRegExpr.OpTail
 0001:000309F8       RegExpr.TRegExpr.EmitNode
 0001:00030A34       RegExpr.TRegExpr.EmitC
 0001:00030A58       RegExpr.TRegExpr.InsertOperator
 0001:00030ABC       RegExpr.strcspn
 0001:00030AE0       RegExpr.TRegExpr.CompileRegExpr
 0001:00030D88       RegExpr.TRegExpr.ParseReg
 0001:00030F50       RegExpr.TRegExpr.ParseBranch
 0001:00030FF0       RegExpr.parsenum
 0001:00031050       RegExpr.EmitComplexBraces
 0001:00031148       RegExpr.EmitSimpleBraces
 0001:000311BC       RegExpr.TRegExpr.ParsePiece
 0001:000316C4       RegExpr.EmitExactly
 0001:00031734       RegExpr.HexDig
 0001:00031778       RegExpr.EmitRange
 0001:00031830       RegExpr.EmitRangeCPrim
 0001:00031874       RegExpr.EmitRangeC
 0001:00031B70       RegExpr.EmitSimpleRangeC
 0001:00031B8C       RegExpr.EmitRangeStr
 0001:00031BC4       RegExpr.UnQuoteChar
 0001:00031D14       RegExpr.TRegExpr.ParseAtom
 0001:00032800       RegExpr.TRegExpr.GetCompilerErrorPos
 0001:00032820       RegExpr.TRegExpr.regrepeat
 0001:00032B18       RegExpr.TRegExpr.regnext
 0001:00032B34       RegExpr.TRegExpr.MatchPrim
 0001:00033710       RegExpr.TRegExpr.FillFirstCharSet
 0001:00033B6C       RegExpr.TRegExpr.Exec
 0001:00033B84       RegExpr.ClearMatchs
 0001:00033BAC       RegExpr.RegMatch
 0001:00033BFC       RegExpr.TRegExpr.ExecPrim
 0001:00033DD8       RegExpr.TRegExpr.SetInputString
 0001:00033EA0       RegExpr.TRegExpr.SetLinePairedSeparator
 0001:00033F44       RegExpr.ReturnAddr
 0001:00033F48       RegExpr.TRegExpr.Error
 0001:0003403C       RegExpr.Finalization
 0001:000340F8       DbxObjectParser..TObjectNameParser
 0001:000342B8       DbxObjectParser.TObjectNameParser.Create
 0001:00034670       DbxObjectParser.TObjectNameParser.Destroy
 0001:000346A0       DbxObjectParser.TObjectNameParser.DecodeObjectFullName
 0001:00034B4C       DbxObjectParser.TObjectNameParser.EncodeObjectFullName
 0001:00034E60       DbxObjectParser.TObjectNameParser.GetQuotedObjectName
 0001:00034ECC       DbxObjectParser.Finalization
 0001:00034F44       DbxOpenOdbcASA.ASA_MESSAGE_INIT
 0001:00034F5C       DbxOpenOdbcASA.ASA_MESSAGE_CALLBACK
 0001:00034FD0       DbxOpenOdbcASA.Finalization
 0001:000350F4       SqlExpr..TISQLConnection
 0001:00035194       SqlExpr..TISQLCommand
 0001:0003522C       SqlExpr..TISQLCursor
 0001:00035310       SqlExpr..TISQLMetaData
 0001:000353A0       SqlExpr..TFLDDesc
 0001:00035458       SqlExpr..TISQLConnection30
 0001:0003550C       SqlExpr..TISQLCommand30
 0001:000355B8       SqlExpr..TISQLCursor30
 0001:000356B0       SqlExpr..TISQLMetaData30
 0001:00035754       SqlExpr..TFLDDesc30
 0001:0003580C       SqlExpr.TISQLConnection30.Create
 0001:00035888       SqlExpr.TISQLConnection30.Destroy
 0001:000358C4       SqlExpr.TISQLConnection30.connect
 0001:000358E8       SqlExpr.TISQLConnection30.connect
 0001:00035920       SqlExpr.TISQLConnection30.disconnect
 0001:00035944       SqlExpr.TISQLConnection30.getSQLCommand
 0001:000359C4       SqlExpr.TISQLConnection30.getSQLMetaData
 0001:00035A44       SqlExpr.TISQLConnection30.SetOption
 0001:00035A74       SqlExpr.TISQLConnection30.SetStringOption
 0001:00035AA8       SqlExpr.TISQLConnection30.GetOption
 0001:00035AE4       SqlExpr.TISQLConnection30.GetStringOption
 0001:00035B64       SqlExpr.TISQLConnection30.beginTransaction
 0001:00035B8C       SqlExpr.TISQLConnection30.commit
 0001:00035BB4       SqlExpr.TISQLConnection30.rollback
 0001:00035BDC       SqlExpr.TISQLConnection30.getErrorMessage
 0001:00035C04       SqlExpr.TISQLConnection30.getErrorMessageLen
 0001:00035C2C       SqlExpr.TISQLConnection30.getErrorMessage
 0001:00035CB4       SqlExpr.TISQLConnection30.getFldDescClass
 0001:00035CCC       SqlExpr.TISQLCommand.Destroy
 0001:00035D14       SqlExpr.TISQLCommand30.Create
 0001:00035D90       SqlExpr.TISQLCommand30.Destroy
 0001:00035DCC       SqlExpr.TISQLCommand30.SetOption
 0001:00035DFC       SqlExpr.TISQLCommand30.SetStringOption
 0001:00035E30       SqlExpr.TISQLCommand30.GetOption
 0001:00035E6C       SqlExpr.TISQLCommand30.GetStringOption
 0001:00035EEC       SqlExpr.TISQLCommand30.setParameter
 0001:00035F44       SqlExpr.TISQLCommand30.getParameter
 0001:00035F88       SqlExpr.TISQLCommand30.prepare
 0001:00035FBC       SqlExpr.TISQLCommand30.execute
 0001:00036038       SqlExpr.TISQLCommand30.executeImmediate
 0001:000360BC       SqlExpr.TISQLCommand30.getNextCursor
 0001:00036138       SqlExpr.TISQLCommand30.getRowsAffected
 0001:00036160       SqlExpr.TISQLCommand30.close
 0001:00036184       SqlExpr.TISQLCommand30.getErrorMessage
 0001:000361AC       SqlExpr.TISQLCommand30.getErrorMessageLen
 0001:000361D4       SqlExpr.TISQLCommand30.getErrorMessage
 0001:0003625C       SqlExpr.TISQLCursor30.Create
 0001:000362D8       SqlExpr.TISQLCursor30.Destroy
 0001:00036314       SqlExpr.TISQLCursor30.SetOption
 0001:00036344       SqlExpr.TISQLCursor30.SetStringOption
 0001:00036378       SqlExpr.TISQLCursor30.GetOption
 0001:000363B4       SqlExpr.TISQLCursor30.GetStringOption
 0001:00036434       SqlExpr.TISQLCursor30.getCurObjectTypeName
 0001:00036498       SqlExpr.TISQLCursor30.getErrorMessage
 0001:000364C0       SqlExpr.TISQLCursor30.getErrorMessageLen
 0001:000364E8       SqlExpr.TISQLCursor30.getErrorMessage
 0001:00036570       SqlExpr.TISQLCursor30.getColumnCount
 0001:00036598       SqlExpr.TISQLCursor30.getColumnNameLength
 0001:000365CC       SqlExpr.TISQLCursor30.getColumnName
 0001:00036600       SqlExpr.TISQLCursor30.getColumnName
 0001:00036654       SqlExpr.TISQLCursor30.getColumnType
 0001:0003668C       SqlExpr.TISQLCursor30.getColumnLength
 0001:000366C0       SqlExpr.TISQLCursor30.getColumnPrecision
 0001:000366F4       SqlExpr.TISQLCursor30.getColumnScale
 0001:00036728       SqlExpr.TISQLCursor30.isNullable
 0001:0003675C       SqlExpr.TISQLCursor30.isAutoIncrement
 0001:00036790       SqlExpr.TISQLCursor30.isReadOnly
 0001:000367C4       SqlExpr.TISQLCursor30.isSearchable
 0001:000367F8       SqlExpr.TISQLCursor30.isBlobSizeExact
 0001:0003682C       SqlExpr.TISQLCursor30.next
 0001:00036850       SqlExpr.TISQLCursor30.getString
 0001:00036888       SqlExpr.TISQLCursor30.getWideString
 0001:000368C0       SqlExpr.TISQLCursor30.getShort
 0001:000368F8       SqlExpr.TISQLCursor30.getLong
 0001:00036930       SqlExpr.TISQLCursor30.getInt64
 0001:00036968       SqlExpr.TISQLCursor30.getDouble
 0001:000369A0       SqlExpr.TISQLCursor30.getBcd
 0001:000369D8       SqlExpr.TISQLCursor30.getTimeStamp
 0001:00036A10       SqlExpr.TISQLCursor30.getTime
 0001:00036A48       SqlExpr.TISQLCursor30.getDate
 0001:00036A80       SqlExpr.TISQLCursor30.getBytes
 0001:00036AB8       SqlExpr.TISQLCursor30.getBlobSize
 0001:00036AF0       SqlExpr.TISQLCursor30.getBlob
 0001:00036B30       SqlExpr.TISQLMetaData30.Create
 0001:00036BAC       SqlExpr.TISQLMetaData30.Destroy
 0001:00036BE8       SqlExpr.TISQLMetaData30.SetOption
 0001:00036C18       SqlExpr.TISQLMetaData30.SetStringOption
 0001:00036C4C       SqlExpr.TISQLMetaData30.GetOption
 0001:00036C88       SqlExpr.TISQLMetaData30.GetStringOption
 0001:00036D08       SqlExpr.TISQLMetaData30.getObjectList
 0001:00036D94       SqlExpr.TISQLMetaData30.getTables
 0001:00036E24       SqlExpr.TISQLMetaData30.getProcedures
 0001:00036EB4       SqlExpr.TISQLMetaData30.getColumns
 0001:00036F48       SqlExpr.TISQLMetaData30.getProcedureParams
 0001:00036FD8       SqlExpr.TISQLMetaData30.getIndices
 0001:00037068       SqlExpr.TISQLMetaData30.getErrorMessage
 0001:00037090       SqlExpr.TISQLMetaData30.getErrorMessageLen
 0001:000370B8       SqlExpr.TISQLMetaData30.getErrorMessage
 0001:00037140       SqlExpr.TFLDDesc30.GetiFldNum
 0001:0003715C       SqlExpr.TFLDDesc30.GetszName
 0001:00037180       SqlExpr.TFLDDesc30.GetiFldType
 0001:000371A0       SqlExpr.TFLDDesc30.GetiSubType
 0001:000371C0       SqlExpr.TFLDDesc30.GetiUnits1
 0001:000371E0       SqlExpr.TFLDDesc30.GetiUnits2
 0001:00037200       SqlExpr.TFLDDesc30.GetiOffset
 0001:00037220       SqlExpr.TFLDDesc30.GetiLen
 0001:0003723C       SqlExpr.TFLDDesc30.GetiNullOffset
 0001:0003725C       SqlExpr.TFLDDesc30.GetefldvVchk
 0001:00037278       SqlExpr.TFLDDesc30.GetefldrRights
 0001:00037294       SqlExpr.TFLDDesc30.GetbCalcField
 0001:000372B4       SqlExpr.TFLDDesc30.SetiFldNum
 0001:000372D0       SqlExpr.TFLDDesc30.SetszName
 0001:00037330       SqlExpr.TFLDDesc30.SetiFldType
 0001:00037350       SqlExpr.TFLDDesc30.SetiSubType
 0001:00037370       SqlExpr.TFLDDesc30.SetiUnits1
 0001:00037390       SqlExpr.TFLDDesc30.SetiUnits2
 0001:000373B0       SqlExpr.TFLDDesc30.SetiOffset
 0001:000373D0       SqlExpr.TFLDDesc30.SetiLen
 0001:000373EC       SqlExpr.TFLDDesc30.SetiNullOffset
 0001:0003740C       SqlExpr.TFLDDesc30.SetefldvVchk
 0001:00037428       SqlExpr.TFLDDesc30.SetefldrRights
 0001:00037444       SqlExpr.TFLDDesc30.SetbCalcField
 0001:0003749C       SqlExpr.RegisterDbXpressLib
 0001:000374C4       SqlExpr.Finalization
 0001:00037684       DbxOpenOdbc3..TSqlDriverOdbc3
 0001:00037804       DbxOpenOdbc3..TSqlConnectionOdbc3
 0001:0003797C       DbxOpenOdbc3..TSqlCommandOdbc3
 0001:00037BCC       DbxOpenOdbc3..TSqlCursorOdbc3
 0001:00037D04       DbxOpenOdbc3..TSQLMetaDataOdbc3
 0001:00037F58       DbxOpenOdbc3..TSqlCursorMetaDataTables3
 0001:000381B4       DbxOpenOdbc3..TSqlCursorMetaDataColumns3
 0001:0003840C       DbxOpenOdbc3..TSqlCursorMetaDataIndexes3
 0001:00038664       DbxOpenOdbc3..TSqlCursorMetaDataProcedures3
 0001:000388C4       DbxOpenOdbc3..TSqlCursorMetaDataProcedureParams3
 0001:00038934       DbxOpenOdbc3.StringToWideChar
 0001:00038974       DbxOpenOdbc3.getSQLDriverODBCW
 0001:00038A6C       DbxOpenOdbc3.getSQLDriverODBCWA
 0001:00038B64       DbxOpenOdbc3.Create_ISQLCursor30
 0001:00038BC4       DbxOpenOdbc3.Get_ISQLMetaData30
 0001:00038C18       DbxOpenOdbc3.Get_ISQLMetaData30
 0001:00038C6C       DbxOpenOdbc3.Get_ISQLMetaData30
 0001:00038CC0       DbxOpenOdbc3.Get_ISQLMetaData30
 0001:00038D14       DbxOpenOdbc3.Get_ISQLMetaData30
 0001:00038D68       DbxOpenOdbc3.TSqlDriverOdbc3.Create
 0001:00038DB0       DbxOpenOdbc3.TSqlDriverOdbc3.getSQLConnection
 0001:00038DEC       DbxOpenOdbc3.TSqlConnectionOdbc3.connect
 0001:00038E80       DbxOpenOdbc3.TSqlConnectionOdbc3.connect
 0001:00038F40       DbxOpenOdbc3.TSqlConnectionOdbc3.getErrorMessage
 0001:00039028       DbxOpenOdbc3.TSqlConnectionOdbc3.getErrorMessageLen
 0001:000390A8       DbxOpenOdbc3.TSqlConnectionOdbc3.GetOption
 0001:00039190       DbxOpenOdbc3.TSqlConnectionOdbc3.SetOption
 0001:00039230       DbxOpenOdbc3.TSqlConnectionOdbc3.getSQLCommand
 0001:000392C4       DbxOpenOdbc3.TSqlConnectionOdbc3.getSQLMetaData
 0001:00039358       DbxOpenOdbc3.TSqlCommandOdbc3.prepare
 0001:00039414       DbxOpenOdbc3.TSqlCommandOdbc3.execute
 0001:00039430       DbxOpenOdbc3.TSqlCommandOdbc3.executeImmediate
 0001:000394D4       DbxOpenOdbc3.TSqlCommandOdbc3.getErrorMessage
 0001:000394EC       DbxOpenOdbc3.TSqlCommandOdbc3.getErrorMessageLen
 0001:00039504       DbxOpenOdbc3.TSqlCommandOdbc3.getNextCursor
 0001:00039518       DbxOpenOdbc3.TSqlCommandOdbc3.GetOption
 0001:00039600       DbxOpenOdbc3.TSqlCommandOdbc3.SetOption
 0001:000396A0       DbxOpenOdbc3.TSqlCursorOdbc3.getErrorMessage
 0001:000396B8       DbxOpenOdbc3.TSqlCursorOdbc3.getErrorMessageLen
 0001:000396D0       DbxOpenOdbc3.TSqlCursorOdbc3.getColumnNameLength
 0001:00039758       DbxOpenOdbc3.TSqlCursorOdbc3.getColumnName
 0001:000397C0       DbxOpenOdbc3.TSqlCursorOdbc3.getInt64
 0001:00039844       DbxOpenOdbc3.TSqlCursorOdbc3.getString
 0001:00039864       DbxOpenOdbc3.TSqlCursorOdbc3.getWideString
 0001:000399C0       DbxOpenOdbc3.TSQLMetaDataOdbc3.getErrorMessage
 0001:00039AA8       DbxOpenOdbc3.TSQLMetaDataOdbc3.getErrorMessageLen
 0001:00039B28       DbxOpenOdbc3.TSQLMetaDataOdbc3.GetOption
 0001:00039C10       DbxOpenOdbc3.TSQLMetaDataOdbc3.SetOption
 0001:00039CB0       DbxOpenOdbc3.TSQLMetaDataOdbc3.getObjectList
 0001:00039CC8       DbxOpenOdbc3.TSQLMetaDataOdbc3.getTables
 0001:00039D98       DbxOpenOdbc3.TSQLMetaDataOdbc3.getProcedures
 0001:00039E68       DbxOpenOdbc3.TSQLMetaDataOdbc3.getColumns
 0001:00039F2C       DbxOpenOdbc3.TSQLMetaDataOdbc3.getIndices
 0001:00039FBC       DbxOpenOdbc3.TSQLMetaDataOdbc3.getProcedureParams
 0001:0003A07C       DbxOpenOdbc3.TSqlCursorMetaDataTables3.getErrorMessage
 0001:0003A164       DbxOpenOdbc3.TSqlCursorMetaDataTables3.getErrorMessageLen
 0001:0003A1E4       DbxOpenOdbc3.TSqlCursorMetaDataTables3.getColumnName
 0001:0003A2BC       DbxOpenOdbc3.TSqlCursorMetaDataTables3.getInt64
 0001:0003A2C8       DbxOpenOdbc3.TSqlCursorMetaDataTables3.getString
 0001:0003A2E8       DbxOpenOdbc3.TSqlCursorMetaDataTables3.getWideString
 0001:0003A3A4       DbxOpenOdbc3.TSqlCursorMetaDataColumns3.getColumnName
 0001:0003A47C       DbxOpenOdbc3.TSqlCursorMetaDataColumns3.getErrorMessage
 0001:0003A564       DbxOpenOdbc3.TSqlCursorMetaDataColumns3.getErrorMessageLen
 0001:0003A5E4       DbxOpenOdbc3.TSqlCursorMetaDataColumns3.getInt64
 0001:0003A5F0       DbxOpenOdbc3.TSqlCursorMetaDataColumns3.getString
 0001:0003A610       DbxOpenOdbc3.TSqlCursorMetaDataColumns3.getWideString
 0001:0003A6CC       DbxOpenOdbc3.TSqlCursorMetaDataIndexes3.getColumnName
 0001:0003A7A4       DbxOpenOdbc3.TSqlCursorMetaDataIndexes3.getErrorMessage
 0001:0003A88C       DbxOpenOdbc3.TSqlCursorMetaDataIndexes3.getErrorMessageLen
 0001:0003A90C       DbxOpenOdbc3.TSqlCursorMetaDataIndexes3.getInt64
 0001:0003A918       DbxOpenOdbc3.TSqlCursorMetaDataIndexes3.getString
 0001:0003A938       DbxOpenOdbc3.TSqlCursorMetaDataIndexes3.getWideString
 0001:0003A9F4       DbxOpenOdbc3.TSqlCursorMetaDataProcedures3.getColumnName
 0001:0003AACC       DbxOpenOdbc3.TSqlCursorMetaDataProcedures3.getErrorMessage
 0001:0003ABB4       DbxOpenOdbc3.TSqlCursorMetaDataProcedures3.getErrorMessageLen
 0001:0003AC34       DbxOpenOdbc3.TSqlCursorMetaDataProcedures3.getInt64
 0001:0003AC40       DbxOpenOdbc3.TSqlCursorMetaDataProcedures3.getString
 0001:0003AC60       DbxOpenOdbc3.TSqlCursorMetaDataProcedures3.getWideString
 0001:0003AD1C       DbxOpenOdbc3.TSqlCursorMetaDataProcedureParams3.getColumnName
 0001:0003ADF4       DbxOpenOdbc3.TSqlCursorMetaDataProcedureParams3.getErrorMessage
 0001:0003AEDC       DbxOpenOdbc3.TSqlCursorMetaDataProcedureParams3.getErrorMessageLen
 0001:0003AF5C       DbxOpenOdbc3.TSqlCursorMetaDataProcedureParams3.getInt64
 0001:0003AF68       DbxOpenOdbc3.TSqlCursorMetaDataProcedureParams3.getString
 0001:0003AF88       DbxOpenOdbc3.TSqlCursorMetaDataProcedureParams3.getWideString
 0001:0003B044       DbxOpenOdbc3.DoRegisterDbXpressLibW
 0001:0003B050       DbxOpenOdbc3.DoRegisterDbXpressLibWA
 0001:0003B05C       DbxOpenOdbc3.Finalization
 0001:0003B08C       DbxOpenOdbc..EDbxErrorCustom
 0001:0003B0E8       DbxOpenOdbc..EDbxOdbcWarning
 0001:0003B144       DbxOpenOdbc..EDbxError
 0001:0003B19C       DbxOpenOdbc..EDbxOdbcError
 0001:0003B1F8       DbxOpenOdbc..EDbxNotSupported
 0001:0003B258       DbxOpenOdbc..EDbxInvalidCall
 0001:0003B2B4       DbxOpenOdbc..EDbxInternalError
 0001:0003B314       DbxOpenOdbc..EDbxInvalidParam
 0001:0003B448       DbxOpenOdbc..TSqlDriverOdbc
 0001:0003B764       DbxOpenOdbc..TSqlConnectionOdbc
 0001:0003B9A0       DbxOpenOdbc..TSqlCommandOdbc
 0001:0003BB1C       DbxOpenOdbc..TSQLMetaDataOdbc
 0001:0003BD9C       DbxOpenOdbc..TSqlCursorOdbc
 0001:0003BE0C       DbxOpenOdbc..TMetaTable
 0001:0003BE64       DbxOpenOdbc..TMetaColumn
 0001:0003BEBC       DbxOpenOdbc..TMetaIndexColumn
 0001:0003BF1C       DbxOpenOdbc..TMetaProcedure
 0001:0003BF78       DbxOpenOdbc..TMetaProcedureParam
 0001:0003C1B0       DbxOpenOdbc..TSqlCursorMetaData
 0001:0003C3E8       DbxOpenOdbc..TSqlCursorMetaDataTables
 0001:0003C628       DbxOpenOdbc..TSqlCursorMetaDataColumns
 0001:0003C864       DbxOpenOdbc..TSqlCursorMetaDataIndexes
 0001:0003CAA0       DbxOpenOdbc..TSqlCursorMetaDataProcedures
 0001:0003CCE4       DbxOpenOdbc..TSqlCursorMetaDataProcedureParams
 0001:0003CDDC       DbxOpenOdbc..TBlobChunkCollection
 0001:0003CE40       DbxOpenOdbc..TOdbcBindCol
 0001:0003CE9C       DbxOpenOdbc..TOdbcBindParam
 0001:0003CEF8       DbxOpenOdbc.getSQLDriverODBC
 0001:0003D028       DbxOpenOdbc.getSQLDriverODBCAW
 0001:0003D120       DbxOpenOdbc.IsRestrictedConnectionOptionValue
 0001:0003D1AC       DbxOpenOdbc.SetConnectionOption
 0001:0003D554       DbxOpenOdbc.ExtractCatalog
 0001:0003D61C       DbxOpenOdbc.Str2BCD
 0001:0003D7C4       DbxOpenOdbc.GetOptionValue
 0001:0003DB48       DbxOpenOdbc.OdbcDataTypeToDbxType
 0001:0003DDAC       DbxOpenOdbc.FormatParameter
 0001:0003E6CC       DbxOpenOdbc.CheckMaxLines
 0001:0003E6F4       DbxOpenOdbc.AllocateDbxHStmtNodes
 0001:0003F050       DbxOpenOdbc.MakeStringExceptionFromInfo
 0001:0003F2F8       DbxOpenOdbc.GetStringOptions
 0001:0003F410       DbxOpenOdbc.TSqlDriverOdbc.Create
 0001:0003F4B4       DbxOpenOdbc.TSqlDriverOdbc.Destroy
 0001:0003F4F0       DbxOpenOdbc.TSqlDriverOdbc.OdbcCheck
 0001:0003F77C       DbxOpenOdbc.IsConnection
 0001:0003F7DC       DbxOpenOdbc.ClearNewErrors
 0001:0003F88C       DbxOpenOdbc.SQLGetDiagRecLevel2
 0001:0003F930       DbxOpenOdbc.TSqlDriverOdbc.RetrieveOdbcErrorInfo
 0001:00040920       DbxOpenOdbc.TSqlDriverOdbc.AllocHCon
 0001:00040980       DbxOpenOdbc.TSqlDriverOdbc.FreeHCon
 0001:00040A08       DbxOpenOdbc.TSqlDriverOdbc.AllocHEnv
 0001:00040BB0       DbxOpenOdbc.TSqlDriverOdbc.FreeHEnv
 0001:00040C50       DbxOpenOdbc.TSqlDriverOdbc.GetOption
 0001:00040DEC       DbxOpenOdbc.TSqlDriverOdbc.getSQLConnection
 0001:00040E60       DbxOpenOdbc.TSqlDriverOdbc.SetOption
 0001:00040F60       DbxOpenOdbc.TSqlConnectionOdbc.Create
 0001:00040FFC       DbxOpenOdbc.TSqlConnectionOdbc.Destroy
 0001:00041060       DbxOpenOdbc.TSqlConnectionOdbc.SynchronizeInTransaction
 0001:000412D0       DbxOpenOdbc.TSqlConnectionOdbc.CloneOdbcConnection
 0001:0004172C       DbxOpenOdbc.TSqlConnectionOdbc.SetLoginTimeout
 0001:000417CC       DbxOpenOdbc.TSqlConnectionOdbc.SetNetworkTimeout
 0001:0004186C       DbxOpenOdbc.TSqlConnectionOdbc.GetDefaultConnectionOptions
 0001:00041884       DbxOpenOdbc.IsFreeDbxConStmt
 0001:000419F4       DbxOpenOdbc.TSqlConnectionOdbc.FindFreeConnection
 0001:00041AC8       DbxOpenOdbc.TSqlConnectionOdbc.AllocHStmt
 0001:00041C88       DbxOpenOdbc.DoRelaseDbxConStmt
 0001:00041F70       DbxOpenOdbc.TSqlConnectionOdbc.FreeHStmt
 0001:000420BC       DbxOpenOdbc.TSqlConnectionOdbc.GetCurrentDbxConStmt
 0001:0004217C       DbxOpenOdbc.TSqlConnectionOdbc.OdbcCheck
 0001:000421BC       DbxOpenOdbc.TSqlConnectionOdbc.GetCatalog
 0001:000422CC       DbxOpenOdbc.TSqlConnectionOdbc.GetCurrentCatalog
 0001:0004233C       DbxOpenOdbc.TSqlConnectionOdbc.beginTransaction
 0001:00042874       DbxOpenOdbc.CompactNullConn
 0001:000428E0       DbxOpenOdbc.TSqlConnectionOdbc.commit
 0001:00042B28       DbxOpenOdbc.CompactNullConn
 0001:00042B94       DbxOpenOdbc.TSqlConnectionOdbc.rollback
 0001:00042DE0       DbxOpenOdbc.TSqlConnectionOdbc.ClearConnectionOptions
 0001:00042F04       DbxOpenOdbc.HidePassword
 0001:00042FFC       DbxOpenOdbc.MergeAndSetConnOptions
 0001:000430D8       DbxOpenOdbc.ParseConnectionOptions
 0001:000431B4       DbxOpenOdbc.TSqlConnectionOdbc.connect
 0001:0004549C       DbxOpenOdbc.TSqlConnectionOdbc.RetrieveDbmsOptions
 0001:00045760       DbxOpenOdbc.VersionStringToNumeric
 0001:00045890       DbxOpenOdbc.TSqlConnectionOdbc.RetrieveDriverName
 0001:00046DC4       DbxOpenOdbc.TSqlConnectionOdbc.disconnect
 0001:0004749C       DbxOpenOdbc.TSqlConnectionOdbc.getErrorMessage
 0001:00047510       DbxOpenOdbc.TSqlConnectionOdbc.getErrorMessageLen
 0001:00047578       DbxOpenOdbc.TSqlConnectionOdbc.CheckTransactionSupport
 0001:000476D4       DbxOpenOdbc.TSqlConnectionOdbc.GetMetaDataOption
 0001:00048164       DbxOpenOdbc.GetConnectionCustomOptions
 0001:00048320       DbxOpenOdbc.GetDatabaseNameOption
 0001:000484AC       DbxOpenOdbc.TSqlConnectionOdbc.GetOption
 0001:0004956C       DbxOpenOdbc.TSqlConnectionOdbc.getSQLCommand
 0001:0004965C       DbxOpenOdbc.TSqlConnectionOdbc.getSQLMetaData
 0001:0004974C       DbxOpenOdbc.GetValueAsAnsiStr
 0001:0004978C       DbxOpenOdbc.SetConnectionCustomOptions
 0001:00049BEC       DbxOpenOdbc.TSqlConnectionOdbc.SetOption
 0001:0004AF8C       DbxOpenOdbc.TSqlConnectionOdbc.TransactionCheck
 0001:0004B12C       DbxOpenOdbc.TSqlConnectionOdbc.GetDbmsType
 0001:0004B134       DbxOpenOdbc.TSqlConnectionOdbc.GetOdbcDriverType
 0001:0004B13C       DbxOpenOdbc.TSqlConnectionOdbc.GetOdbcConnectStrings
 0001:0004B218       DbxOpenOdbc.TSqlConnectionOdbc.GetLastOdbcSqlState
 0001:0004B220       DbxOpenOdbc.TSqlConnectionOdbc.GetDbmsName
 0001:0004B234       DbxOpenOdbc.TSqlConnectionOdbc.GetDbmsVersionMajor
 0001:0004B238       DbxOpenOdbc.TSqlConnectionOdbc.GetDbmsVersionMinor
 0001:0004B23C       DbxOpenOdbc.TSqlConnectionOdbc.GetDbmsVersionRelease
 0001:0004B240       DbxOpenOdbc.TSqlConnectionOdbc.GetDbmsVersionBuild
 0001:0004B244       DbxOpenOdbc.TSqlConnectionOdbc.GetDbmsVersionString
 0001:0004B258       DbxOpenOdbc.TSqlConnectionOdbc.GetOdbcDriverName
 0001:0004B26C       DbxOpenOdbc.TSqlConnectionOdbc.GetOdbcDriverVersionMajor
 0001:0004B274       DbxOpenOdbc.TSqlConnectionOdbc.GetOdbcDriverVersionMinor
 0001:0004B27C       DbxOpenOdbc.TSqlConnectionOdbc.GetOdbcDriverVersionRelease
 0001:0004B284       DbxOpenOdbc.TSqlConnectionOdbc.GetOdbcDriverVersionBuild
 0001:0004B28C       DbxOpenOdbc.TSqlConnectionOdbc.GetOdbcDriverVersionString
 0001:0004B2A4       DbxOpenOdbc.TSqlConnectionOdbc.GetCursorPreserved
 0001:0004B2AC       DbxOpenOdbc.TSqlConnectionOdbc.GetIsSystemODBCManager
 0001:0004B2B8       DbxOpenOdbc.TSqlConnectionOdbc.GetOdbcDriverLevel
 0001:0004B2C0       DbxOpenOdbc.TSqlConnectionOdbc.GetSupportsSqlPrimaryKeys
 0001:0004B2C8       DbxOpenOdbc.TSqlConnectionOdbc.GetStatementsPerConnection
 0001:0004B2D0       DbxOpenOdbc.TSqlConnectionOdbc.GetEnvironmentHandle
 0001:0004B2D8       DbxOpenOdbc.TSqlConnectionOdbc.GetConnectionHandle
 0001:0004B2DC       DbxOpenOdbc.TSqlConnectionOdbc.GetOdbcApiIntf
 0001:0004B2F4       DbxOpenOdbc.TSqlConnectionOdbc.GetDecimalSeparator
 0001:0004B2FC       DbxOpenOdbc.TSqlCommandOdbc.Create
 0001:0004B38C       DbxOpenOdbc.TSqlCommandOdbc.DoAllocateStmt
 0001:0004B500       DbxOpenOdbc.TSqlCommandOdbc.CloseStmt
 0001:0004B640       DbxOpenOdbc.TSqlCommandOdbc.ClearParams
 0001:0004B688       DbxOpenOdbc.TSqlCommandOdbc.Destroy
 0001:0004B6D0       DbxOpenOdbc.TSqlCommandOdbc.AddError
 0001:0004B6F4       DbxOpenOdbc.TSqlCommandOdbc.close
 0001:0004B700       DbxOpenOdbc.TSqlCommandOdbc.BuildStoredProcSQL
 0001:0004B89C       DbxOpenOdbc.TSqlCommandOdbc.DoSQLMoreResults
 0001:0004B944       DbxOpenOdbc.DoReBindParams
 0001:0004BA2C       DbxOpenOdbc.DoPrepareNow
 0001:0004BADC       DbxOpenOdbc.TSqlCommandOdbc.DoExecute
 0001:0004C044       DbxOpenOdbc.TSqlCommandOdbc.execute
 0001:0004C058       DbxOpenOdbc.TSqlCommandOdbc.DoUnprepareStmt
 0001:0004C088       DbxOpenOdbc.TSqlCommandOdbc.DoExecuteImmediate
 0001:0004C600       DbxOpenOdbc.TSqlCommandOdbc.ExecuteImmediate
 0001:0004C624       DbxOpenOdbc.TSqlCommandOdbc.Cancel
 0001:0004C674       DbxOpenOdbc.TSqlCommandOdbc.SetLockTimeout
 0001:0004C710       DbxOpenOdbc.TSqlCommandOdbc.GetLockTimeout
 0001:0004C774       DbxOpenOdbc.TSqlCommandOdbc.getErrorMessage
 0001:0004C7EC       DbxOpenOdbc.TSqlCommandOdbc.getErrorMessageLen
 0001:0004C858       DbxOpenOdbc.TSqlCommandOdbc.getNextCursor
 0001:0004CA28       DbxOpenOdbc.TSqlCommandOdbc.GetOption
 0001:0004D170       DbxOpenOdbc.TSqlCommandOdbc.getParameter
 0001:0004D530       DbxOpenOdbc.TSqlCommandOdbc.getRowsAffected
 0001:0004D548       DbxOpenOdbc.TSqlCommandOdbc.DoAllocateParams
 0001:0004D5D4       DbxOpenOdbc.TSqlCommandOdbc.DoPrepare
 0001:0004D8D4       DbxOpenOdbc.TSqlCommandOdbc.prepare
 0001:0004D904       DbxOpenOdbc.MakeStoredProcParams
 0001:0004D980       DbxOpenOdbc.TSqlCommandOdbc.SetOption
 0001:0004E148       DbxOpenOdbc.ProcessVarDataLength
 0001:0004E1D8       DbxOpenOdbc.SetVarData
 0001:0004E268       DbxOpenOdbc.WideCharToUtf8
 0001:0004E2D4       DbxOpenOdbc.TSqlCommandOdbc.setParameter
 0001:0004F3F4       DbxOpenOdbc.TSQLMetaDataOdbc.Create
 0001:0004F440       DbxOpenOdbc.TSQLMetaDataOdbc.Destroy
 0001:0004F470       DbxOpenOdbc.TSQLMetaDataOdbc.getColumns
 0001:0004F590       DbxOpenOdbc.TSQLMetaDataOdbc.getErrorMessage
 0001:0004F604       DbxOpenOdbc.TSQLMetaDataOdbc.getErrorMessageLen
 0001:0004F66C       DbxOpenOdbc.TSQLMetaDataOdbc.getIndices
 0001:0004F790       DbxOpenOdbc.TSQLMetaDataOdbc.getObjectList
 0001:0004F7A8       DbxOpenOdbc.TSQLMetaDataOdbc.GetOption
 0001:0004F8BC       DbxOpenOdbc.TSQLMetaDataOdbc.getProcedureParams
 0001:0004F9D8       DbxOpenOdbc.TSQLMetaDataOdbc.getProcedures
 0001:0004FAD8       DbxOpenOdbc.TSQLMetaDataOdbc.getTables
 0001:0004FBC8       DbxOpenOdbc.TSQLMetaDataOdbc.SetOption
 0001:00050358       DbxOpenOdbc.TSqlCursorOdbc.Create
 0001:000503F0       DbxOpenOdbc.TSqlCursorOdbc.ClearCursor
 0001:0005045C       DbxOpenOdbc.TSqlCursorOdbc.Destroy
 0001:000504F8       DbxOpenOdbc.CheckAutoIncSubType
 0001:000505C8       DbxOpenOdbc.TSqlCursorOdbc.BindResultSet
 0001:0005245C       DbxOpenOdbc.TSqlCursorOdbc.FetchLateBoundData
 0001:0005254C       DbxOpenOdbc.OptimizeNextChunkSize
 0001:00052618       DbxOpenOdbc.CalculateBlobFixSize
 0001:00052688       DbxOpenOdbc.TSqlCursorOdbc.FetchLongData
 0001:00052CF4       DbxOpenOdbc.TSqlCursorOdbc.getBcd
 0001:00052E6C       DbxOpenOdbc.TSqlCursorOdbc.getBlob
 0001:0005304C       DbxOpenOdbc.TSqlCursorOdbc.getBlobSize
 0001:000531D8       DbxOpenOdbc.TSqlCursorOdbc.getBytes
 0001:00053360       DbxOpenOdbc.TSqlCursorOdbc.getColumnCount
 0001:00053378       DbxOpenOdbc.TSqlCursorOdbc.getColumnLength
 0001:0005373C       DbxOpenOdbc.TSqlCursorOdbc.getColumnName
 0001:00053768       DbxOpenOdbc.TSqlCursorOdbc.getColumnNameLength
 0001:000537A4       DbxOpenOdbc.TSqlCursorOdbc.getColumnPrecision
 0001:00053868       DbxOpenOdbc.TSqlCursorOdbc.getColumnScale
 0001:000538F0       DbxOpenOdbc.TSqlCursorOdbc.getColumnType
 0001:00053920       DbxOpenOdbc.TSqlCursorOdbc.getDate
 0001:00053AD0       DbxOpenOdbc.TSqlCursorOdbc.getDouble
 0001:00053C3C       DbxOpenOdbc.TSqlCursorOdbc.getErrorMessage
 0001:00053CBC       DbxOpenOdbc.TSqlCursorOdbc.getErrorMessageLen
 0001:00053D2C       DbxOpenOdbc.TSqlCursorOdbc.getLong
 0001:00053E90       DbxOpenOdbc.TSqlCursorOdbc.GetOption
 0001:00053F38       DbxOpenOdbc.TSqlCursorOdbc.getShort
 0001:000540B4       DbxOpenOdbc.TSqlCursorOdbc.getString
 0001:000543A0       DbxOpenOdbc.TSqlCursorOdbc.getTime
 0001:00054520       DbxOpenOdbc.TSqlCursorOdbc.getTimeStamp
 0001:000546D4       DbxOpenOdbc.TSqlCursorOdbc.isAutoIncrement
 0001:000547DC       DbxOpenOdbc.TSqlCursorOdbc.isBlobSizeExact
 0001:000547F0       DbxOpenOdbc.TSqlCursorOdbc.isNullable
 0001:00054830       DbxOpenOdbc.TSqlCursorOdbc.isReadOnly
 0001:000548B0       DbxOpenOdbc.TSqlCursorOdbc.isSearchable
 0001:000549A4       DbxOpenOdbc.TSqlCursorOdbc.next
 0001:000550C8       DbxOpenOdbc.TSqlCursorOdbc.SetOption
 0001:00055164       DbxOpenOdbc.TSqlCursorMetaData.Create
 0001:000551CC       DbxOpenOdbc.TSqlCursorMetaData.Destroy
 0001:00055200       DbxOpenOdbc.TSqlCursorMetaData.ClearMetaData
 0001:00055244       DbxOpenOdbc.TSqlCursorMetaData.ParseTableNameBase
 0001:000553E4       DbxOpenOdbc.TSqlCursorMetaData.ParseTableName
 0001:0005547C       DbxOpenOdbc.TSqlCursorMetaData.DescribeAllocBindString
 0001:000555F8       DbxOpenOdbc.TSqlCursorMetaData.BindSmallint
 0001:00055900       DbxOpenOdbc.TSqlCursorMetaData.BindInteger
 0001:00055BF4       DbxOpenOdbc.TSqlCursorMetaData.getBcd
 0001:00055CA0       DbxOpenOdbc.TSqlCursorMetaData.getBlob
 0001:00055D4C       DbxOpenOdbc.TSqlCursorMetaData.getBlobSize
 0001:00055DFC       DbxOpenOdbc.TSqlCursorMetaData.getBytes
 0001:00055EA8       DbxOpenOdbc.TSqlCursorMetaData.getColumnCount
 0001:00055EC0       DbxOpenOdbc.TSqlCursorMetaData.getColumnLength
 0001:00055F74       DbxOpenOdbc.TSqlCursorMetaData.getColumnName
 0001:00055F9C       DbxOpenOdbc.TSqlCursorMetaData.getColumnNameLength
 0001:00055FC4       DbxOpenOdbc.TSqlCursorMetaData.getColumnPrecision
 0001:0005607C       DbxOpenOdbc.TSqlCursorMetaData.getColumnScale
 0001:00056090       DbxOpenOdbc.TSqlCursorMetaData.getColumnType
 0001:000560B0       DbxOpenOdbc.TSqlCursorMetaData.getDate
 0001:0005615C       DbxOpenOdbc.TSqlCursorMetaData.getDouble
 0001:00056208       DbxOpenOdbc.TSqlCursorMetaData.getErrorMessage
 0001:0005627C       DbxOpenOdbc.TSqlCursorMetaData.getErrorMessageLen
 0001:000562E4       DbxOpenOdbc.TSqlCursorMetaData.getLong
 0001:00056390       DbxOpenOdbc.TSqlCursorMetaData.GetOption
 0001:0005643C       DbxOpenOdbc.TSqlCursorMetaData.getShort
 0001:000564E8       DbxOpenOdbc.TSqlCursorMetaData.getString
 0001:00056594       DbxOpenOdbc.TSqlCursorMetaData.getTime
 0001:00056640       DbxOpenOdbc.TSqlCursorMetaData.getTimeStamp
 0001:000566F0       DbxOpenOdbc.TSqlCursorMetaData.isAutoIncrement
 0001:00056748       DbxOpenOdbc.TSqlCursorMetaData.isBlobSizeExact
 0001:000567A0       DbxOpenOdbc.TSqlCursorMetaData.isNullable
 0001:000567B0       DbxOpenOdbc.TSqlCursorMetaData.isReadOnly
 0001:000567C4       DbxOpenOdbc.TSqlCursorMetaData.isSearchable
 0001:000567D4       DbxOpenOdbc.TSqlCursorMetaData.next
 0001:000567E4       DbxOpenOdbc.TSqlCursorMetaData.SetOption
 0001:00056890       DbxOpenOdbc.TSqlCursorMetaData.OdbcCheck
 0001:000569DC       DbxOpenOdbc.TOdbcBindCol.Create
 0001:00056A14       DbxOpenOdbc.TOdbcBindCol.Destroy
 0001:00056A7C       DbxOpenOdbc.TOdbcBindParam.Create
 0001:00056AB8       DbxOpenOdbc.TOdbcBindParam.Destroy
 0001:00056AF4       DbxOpenOdbc.TMetaTable.Create
 0001:00056D74       DbxOpenOdbc.TMetaTable.Destroy
 0001:00056DF4       DbxOpenOdbc.TMetaColumn.Create
 0001:00056E78       DbxOpenOdbc.TMetaColumn.Destroy
 0001:00056EC8       DbxOpenOdbc.TMetaIndexColumn.Create
 0001:00056FB4       DbxOpenOdbc.TMetaIndexColumn.Destroy
 0001:00057054       DbxOpenOdbc.TMetaProcedure.Create
 0001:00057118       DbxOpenOdbc.TMetaProcedure.Destroy
 0001:0005717C       DbxOpenOdbc.TMetaProcedureParam.Create
 0001:000571D8       DbxOpenOdbc.TMetaProcedureParam.Destroy
 0001:0005728C       DbxOpenOdbc.TSqlCursorMetaDataTables.Create
 0001:000572D8       DbxOpenOdbc.TSqlCursorMetaDataTables.Destroy
 0001:00057304       DbxOpenOdbc.TSqlCursorMetaDataTables.Clear
 0001:00057338       DbxOpenOdbc.TSqlCursorMetaDataTables.FetchTables
 0001:00057C24       DbxOpenOdbc.TSqlCursorMetaDataTables.getColumnLength
 0001:00057D9C       DbxOpenOdbc.TSqlCursorMetaDataTables.getColumnPrecision
 0001:00057DC4       DbxOpenOdbc.TSqlCursorMetaDataTables.getLong
 0001:00057EF8       DbxOpenOdbc.TSqlCursorMetaDataTables.getString
 0001:000580A8       DbxOpenOdbc.TSqlCursorMetaDataTables.next
 0001:0005821C       DbxOpenOdbc.TSqlCursorMetaDataColumns.Create
 0001:00058268       DbxOpenOdbc.TSqlCursorMetaDataColumns.Destroy
 0001:00058294       DbxOpenOdbc.TSqlCursorMetaDataColumns.Clear
 0001:000582F8       DbxOpenOdbc.TSqlCursorMetaDataColumns.FetchColumns
 0001:00059194       DbxOpenOdbc.TSqlCursorMetaDataColumns.getColumnLength
 0001:000593CC       DbxOpenOdbc.TSqlCursorMetaDataColumns.getColumnPrecision
 0001:00059404       DbxOpenOdbc.TSqlCursorMetaDataColumns.getLong
 0001:000595C0       DbxOpenOdbc.TSqlCursorMetaDataColumns.getShort
 0001:000597A4       DbxOpenOdbc.TSqlCursorMetaDataColumns.getString
 0001:000599B4       DbxOpenOdbc.TSqlCursorMetaDataColumns.next
 0001:00059ADC       DbxOpenOdbc.TSqlCursorMetaDataIndexes.Create
 0001:00059B44       DbxOpenOdbc.TSqlCursorMetaDataIndexes.Destroy
 0001:00059BC8       DbxOpenOdbc.TSqlCursorMetaDataIndexes.FetchIndexes
 0001:0005B50C       DbxOpenOdbc.TSqlCursorMetaDataIndexes.getColumnLength
 0001:0005B708       DbxOpenOdbc.TSqlCursorMetaDataIndexes.getColumnPrecision
 0001:0005B740       DbxOpenOdbc.TSqlCursorMetaDataIndexes.getLong
 0001:0005B874       DbxOpenOdbc.TSqlCursorMetaDataIndexes.getShort
 0001:0005B9D0       DbxOpenOdbc.TSqlCursorMetaDataIndexes.getString
 0001:0005BD24       DbxOpenOdbc.TSqlCursorMetaDataIndexes.next
 0001:0005BDE8       DbxOpenOdbc.TSqlCursorMetaDataProcedures.Create
 0001:0005BE34       DbxOpenOdbc.TSqlCursorMetaDataProcedures.Destroy
 0001:0005BE88       DbxOpenOdbc.TSqlCursorMetaDataProcedures.FetchProcedures
 0001:0005C400       DbxOpenOdbc.TSqlCursorMetaDataProcedures.getColumnLength
 0001:0005C5B0       DbxOpenOdbc.TSqlCursorMetaDataProcedures.getColumnPrecision
 0001:0005C5F0       DbxOpenOdbc.TSqlCursorMetaDataProcedures.getLong
 0001:0005C738       DbxOpenOdbc.TSqlCursorMetaDataProcedures.getShort
 0001:0005C87C       DbxOpenOdbc.TSqlCursorMetaDataProcedures.getString
 0001:0005CA2C       DbxOpenOdbc.TSqlCursorMetaDataProcedures.next
 0001:0005CB98       DbxOpenOdbc.TSqlCursorMetaDataProcedureParams.Create
 0001:0005CBE4       DbxOpenOdbc.TSqlCursorMetaDataProcedureParams.Destroy
 0001:0005CC68       DbxOpenOdbc.TSqlCursorMetaDataProcedureParams.FetchProcedureParams
 0001:0005DF18       DbxOpenOdbc.TSqlCursorMetaDataProcedureParams.getColumnLength
 0001:0005E14C       DbxOpenOdbc.TSqlCursorMetaDataProcedureParams.getColumnPrecision
 0001:0005E18C       DbxOpenOdbc.TSqlCursorMetaDataProcedureParams.getLong
 0001:0005E300       DbxOpenOdbc.TSqlCursorMetaDataProcedureParams.getShort
 0001:0005E4F4       DbxOpenOdbc.TSqlCursorMetaDataProcedureParams.getString
 0001:0005E764       DbxOpenOdbc.TSqlCursorMetaDataProcedureParams.next
 0001:0005E79C       DbxOpenOdbc.TBlobChunkCollection.AddFragment
 0001:0005E7DC       DbxOpenOdbc.TBlobChunkCollection.Clear
 0001:0005E810       DbxOpenOdbc.TBlobChunkCollection.Destroy
 0001:0005E83C       DbxOpenOdbc.TBlobChunkCollection.GetSize
 0001:0005E858       DbxOpenOdbc.TBlobChunkCollection.Read
 0001:0005E884       DbxOpenOdbc.TBlobChunkCollection.ReadBlobToVariant
 0001:0005E8C8       DbxOpenOdbc.TBlobChunkCollection.ReadBlobToStream
 0001:0005E988       DbxOpenOdbc.DoRegisterDbXpressLibA
 0001:0005E994       DbxOpenOdbc.DoRegisterDbXpressLibAW
 0001:0005E9A0       DbxOpenOdbc.Finalization
 0001:0005EA50       dbxoodbc.Finalization
 0002:00000000       System.System
 0002:00000098       Windows.Windows
 0002:000000B0       FastMM4.FastMM4
 0002:000000D0       SysUtils.SysUtils
 0002:00000158       VarUtils.VarUtils
 0002:0000016C       Variants.Variants
 0002:00000218       TypInfo.TypInfo
 0002:00000220       Classes.Classes
 0002:000002B4       SqlTimSt.SqlTimSt
 0002:000002D4       WideStrings.WideStrings
 0002:000002E8       FMTBcd.FMTBcd
 0002:00000308       ComObj.ComObj
 0002:00000364       DB.DB
 0002:000003F0       DSIntf.DSIntf
 0002:00000408       DbxOpenOdbcInterface.DbxOpenOdbcInterface
 0002:0000043C       IniFiles.IniFiles
 0002:00000444       Registry.Registry
 0002:0000044C       OdbcApi.OdbcApi
 0002:0000046C       RegExpr.RegExpr
 0002:00000474       DbxObjectParser.DbxObjectParser
 0002:0000047C       DbxOpenOdbcASA.DbxOpenOdbcASA
 0002:0000049C       SqlExpr.SqlExpr
 0002:000004B0       DbxOpenOdbc3.DbxOpenOdbc3
 0002:00000500       DbxOpenOdbc.DbxOpenOdbc
 0002:00000528       dbxoodbc.dbxoodbc
 0003:00000000       System.ExitCode
 0003:00000004       System.ErrorAddr
 0003:00000008       System.FileMode
 0003:0000000C       System.VarClearProc
 0003:00000010       System.VarAddRefProc
 0003:00000014       System.VarCopyProc
 0003:00000018       System.VarToLStrProc
 0003:0000001C       System.VarToWStrProc
 0003:00000020       System.Default8087CW
 0003:00000024       System.DebugHook
 0003:00000028       System.JITEnable
 0003:0000002C       System.NoErrMsg
 0003:00000030       System.LibModuleList
 0003:00000034       System.ModuleUnloadList
 0003:00000038       System.Copyright
 0003:0000003C       System.SmallBlockTypes
 0003:0000071C       System.MemoryManager
 0003:00000734       System.reMap
 0003:00000750       System.errCaption
 0003:00000758       System.runErrMsg
 0003:00000778       System.dig
 0003:00000788       SysInit.TlsIndex
 0003:0000078C       SysInit.PtrToNil
 0003:00000790       SysInit.Module
 0003:000007A8       SysInit.TlsProc
 0003:000007B8       FastMM4.Copyright
 0003:000007BC       FastMM4.SmallBlockTypes
 0003:00000E9C       SysUtils.EmptyStr
 0003:00000EA0       SysUtils.EmptyWideStr
 0003:00000EA4       SysUtils.Win32Platform
 0003:00000EA8       SysUtils.Win32MajorVersion
 0003:00000EAC       SysUtils.Win32MinorVersion
 0003:00000EB0       SysUtils.Win32BuildNumber
 0003:00000EB4       SysUtils.Win32CSDVersion
 0003:00000EB8       SysUtils.TwoDigitYearCenturyWindow
 0003:00000EBC       SysUtils.MonthDays
 0003:00000EEC       SysUtils.LeadBytes
 0003:00000F0C       SysUtils.HexDisplayPrefix
 0003:00000F10       SysUtils.GetDiskFreeSpaceEx
 0003:00000F14       SysUtils.cSimpleBoolStrs
 0003:00000F1C       SysUtils.AccessMode
 0003:00000F28       SysUtils.ShareMode
 0003:00000F3C       SysUtils.FormatErrorStrs
 0003:00000F44       SysUtils.FCon1E18
 0003:00000F50       SysUtils.DCon10
 0003:00000F54       SysUtils.CWNear
 0003:00000F58       SysUtils.FMSecsPerDay
 0003:00000F5C       SysUtils.IMSecsPerDay
 0003:00000F60       SysUtils.Format
 0003:00000F64       SysUtils.DefShortMonthNames
 0003:00000F94       SysUtils.DefLongMonthNames
 0003:00000FC4       SysUtils.DefShortDayNames
 0003:00000FE0       SysUtils.DefLongDayNames
 0003:00000FFC       SysUtils.ErrorMap
 0003:00001034       SysUtils.ExceptMap
 0003:000010E4       SysUtils.TerminateProcList
 0003:000010E8       VarUtils.CVarTypeToElementInfo
 0003:000011F0       VarUtils.CResult
 0003:000011F8       Variants.NullStrictConvert
 0003:000011FC       Variants.NullAsStringValue
 0003:00001200       Variants.PackVarCreation
 0003:00001204       Variants.BooleanToStringRule
 0003:00001208       Variants.CInvalidCustomVariantType
 0003:0000120C       Variants.CRangeToType
 0003:00001220       Variants.CText
 0003:00001274       Variants.LNextVarType
 0003:00001278       Variants.CRelationshipToBoolean
 0003:0000128C       ActiveX.GUID_NULL
 0003:0000129C       TypInfo.BooleanIdents
 0003:000012A4       TypInfo.DotSep
 0003:000012A8       Classes.SyncList
 0003:000012AC       SqlTimSt.NullSQLTimeStamp
 0003:000012BC       SqlTimSt.IncrementAmount
 0003:000012C4       SqlTimSt.SQLTimeStampVariantType
 0003:000012C8       SqlTimSt.AdjustAmt
 0003:000012D0       SqlTimSt.AdjustAmt
 0003:000012D8       SqlTimSt.AdjustAmt
 0003:000012E0       SqlTimSt.AdjustAmt
 0003:000012E8       FMTBcd.NullBcd
 0003:0000130C       FMTBcd.DValue
 0003:00001404       FMTBcd.FMTBcdVariantType
 0003:00001408       ComObj.CoCreateInstanceEx
 0003:0000140C       ComObj.CoInitializeEx
 0003:00001410       ComObj.CoAddRefServerProcess
 0003:00001414       ComObj.CoReleaseServerProcess
 0003:00001418       ComObj.CoResumeClassObjects
 0003:0000141C       ComObj.CoSuspendClassObjects
 0003:00001420       ComObj.CoInitFlags
 0003:00001424       ComObj.ThreadStrs
 0003:00001438       DB.FieldTypeNames
 0003:000014E0       DSIntf.DbClientHandle
 0003:000014E4       DbxOpenOdbcInterface.cConnectionOptionsNames
 0003:00001560       DbxOpenOdbcInterface.cConnectionOptionsTypes
 0003:00001580       DbxOpenOdbcInterface.cConnectionOptionsDescs
 0003:000015FC       DbxOpenOdbcInterface.cOptionSwitchesNames
 0003:00001608       DbxOpenOdbcInterface.cXSQLConnectionOptionStringTypes
 0003:00001610       DbxOpenOdbcInterface.cXSQLCommandOptionStringTypes
 0003:00001614       DbxOpenOdbcInterface.cXSQLMetaDataOptionStringTypes
 0003:00001618       IniFiles.Values
 0003:00001620       Registry.Values
 0003:00001628       RegExpr.RegExprModifierI
 0003:0000162C       RegExpr.RegExprModifierR
 0003:00001630       RegExpr.RegExprModifierS
 0003:00001634       RegExpr.RegExprModifierG
 0003:00001638       RegExpr.RegExprModifierM
 0003:0000163C       RegExpr.RegExprSpaceChars
 0003:00001640       RegExpr.RegExprWordChars
 0003:00001644       RegExpr.RegExprLineSeparators
 0003:00001648       RegExpr.RegExprLinePairedSeparator
 0003:0000164C       RegExpr.RegExprInvertCaseFunction
 0003:00001654       RegExpr.RegExprMetaSet
 0003:00001658       RegExpr.META
 0003:00001668       DbxObjectParser.DefaultMathesIndexes
 0003:00001690       DbxObjectParser.DefaultObjectNameTemplateInfo
 0003:000016B0       DbxObjectParser.InformixMathesIndexes
 0003:000016CC       DbxObjectParser.InformixObjectNameTemplateInfo
 0003:000016EC       DbxObjectParser.TextMathesIndexes
 0003:00001704       DbxObjectParser.TextObjectNameTemplateInfo
 0003:00001724       DbxObjectParser.DbmsObjectNameTemplateInfo
 0003:0000179C       DbxOpenOdbcASA.AsaCallbackMessage
 0003:000017A0       DbxOpenOdbcASA.aWindow
 0003:000017A4       SqlExpr.DbxError
 0003:00001818       SqlExpr.DBXDrvMap
 0003:00001824       DbxOpenOdbc3.DefaultSystemCodePage
 0003:00001828       DbxOpenOdbc.cConnectionOptionsDefault
 0003:00001848       DbxOpenOdbc.cConnectionOptionsRestrictions
 0003:00001868       DbxOpenOdbc.cBindMapDateTimeOdbc2
 0003:00001874       DbxOpenOdbc.cBindMapDateTimeOdbc3
 0003:00001880       DbxOpenOdbc.cNullAnsiChar
 0003:00001884       DbxOpenOdbc.cNullWideChar
 0003:00001888       DbxOpenOdbc.cDecimalSeparatorDefault
 0003:0000188C       DbxOpenOdbc.MaxCount
 0003:00001890       DbxOpenOdbc.cGetOptionExceptionInfos
 0003:000019A4       DbxOpenOdbc.cBoolOptionSwitches
 0003:000019A8       DbxOpenOdbc.TableColumnNames
 0003:000019BC       DbxOpenOdbc.TableColumnTypes
 0003:000019C8       DbxOpenOdbc.ColumnColumnNames
 0003:00001A00       DbxOpenOdbc.ColumnColumnTypes
 0003:00001A1C       DbxOpenOdbc.IndexColumnNames
 0003:00001A48       DbxOpenOdbc.IndexColumnTypes
 0003:00001A60       DbxOpenOdbc.ProcedureColumnNames
 0003:00001A7C       DbxOpenOdbc.ProcedureColumnTypes
 0003:00001A8C       DbxOpenOdbc.ProcedureParamColumnNames
 0003:00001AC4       DbxOpenOdbc.ProcedureParamColumnTypes
 0004:00000000       System.DispCallByIDProc
 0004:00000004       System.ExceptProc
 0004:00000008       System.ErrorProc
 0004:0000000C       System.ExceptClsProc
 0004:00000010       System.ExceptObjProc
 0004:00000014       System.RaiseExceptionProc
 0004:00000018       System.RTLUnwindProc
 0004:0000001C       System.ExceptionClass
 0004:00000020       System.SafeCallErrorProc
 0004:00000024       System.AssertErrorProc
 0004:00000028       System.ExitProcessProc
 0004:0000002C       System.AbstractErrorProc
 0004:00000030       System.MainInstance
 0004:00000034       System.MainThreadID
 0004:00000038       System.IsLibrary
 0004:0000003C       System.CmdShow
 0004:00000040       System.CmdLine
 0004:00000044       System.InitProc
 0004:00000048       System.ExitProc
 0004:0000004C       System.IsConsole
 0004:0000004D       System.IsMultiThread
 0004:0000004E       System.Test8086
 0004:00000050       System.Input
 0004:0000021C       System.Output
 0004:000003E8       System.ErrOutput
 0004:000005B4       System.ReportMemoryLeaksOnShutdown
 0004:000005B8       System..6
 0004:000005BC       System.DefaultSystemCodePage
 0004:000005C0       System.AllocSize2SmallBlockTypeIndX4
 0004:00000706       System.MinimumBlockAlignment
 0004:00000708       System.MediumBlockPoolsCircularList
 0004:00000718       System.MediumBlocksLocked
 0004:0000071C       System.LastSequentiallyFedMediumBlock
 0004:00000720       System.MediumSequentialFeedBytesLeft
 0004:00000724       System.MediumBlockBinGroupBitmap
 0004:00000728       System.MediumBlockBinBitmaps
 0004:000007A8       System.MediumBlockBins
 0004:000027A8       System.LargeBlocksLocked
 0004:000027AC       System.LargeBlocksCircularList
 0004:000027BC       System.ExpectedMemoryLeaks
 0004:000027C0       System.ExpectedMemoryLeaksListLocked
 0004:000027C4       System.MMSharingWindow
 0004:000027C8       System.InitContext
 0004:000027F4       SysInit.ModuleIsLib
 0004:000027F5       SysInit.ModuleIsCpp
 0004:000027F8       SysInit.HInstance
 0004:000027FC       SysInit.DllProc
 0004:00002800       SysInit.tlsBuffer
 0004:00002804       Windows..3
 0004:00002808       Windows.HtmlHelpModule
 0004:0000280C       FastMM4..1
 0004:00002810       FastMM4.AllocSize2SmallBlockTypeIndX4
 0004:00002958       FastMM4.MediumBlockPoolsCircularList
 0004:00002968       FastMM4.MediumBlocksLocked
 0004:0000296C       FastMM4.LastSequentiallyFedMediumBlock
 0004:00002970       FastMM4.MediumSequentialFeedBytesLeft
 0004:00002974       FastMM4.MediumBlockBinGroupBitmap
 0004:00002978       FastMM4.MediumBlockBinBitmaps
 0004:000029F8       FastMM4.MediumBlockBins
 0004:000049F8       FastMM4.LargeBlocksLocked
 0004:000049FC       FastMM4.LargeBlocksCircularList
 0004:00004A0C       FastMM4.OldMemoryManager
 0004:00004A24       FastMM4.NewMemoryManager
 0004:00004A3C       FastMM4.FastMMIsInstalled
 0004:00004A3D       FastMM4.IsMemoryManagerOwner
 0004:00004A3E       FastMM4.ShowingMessageBox
 0004:00004A40       SysUtils.CurrencyString
 0004:00004A44       SysUtils.CurrencyFormat
 0004:00004A45       SysUtils.NegCurrFormat
 0004:00004A46       SysUtils.ThousandSeparator
 0004:00004A47       SysUtils.DecimalSeparator
 0004:00004A48       SysUtils.CurrencyDecimals
 0004:00004A49       SysUtils.DateSeparator
 0004:00004A4C       SysUtils.ShortDateFormat
 0004:00004A50       SysUtils.LongDateFormat
 0004:00004A54       SysUtils.TimeSeparator
 0004:00004A58       SysUtils.TimeAMString
 0004:00004A5C       SysUtils.TimePMString
 0004:00004A60       SysUtils.ShortTimeFormat
 0004:00004A64       SysUtils.LongTimeFormat
 0004:00004A68       SysUtils.ShortMonthNames
 0004:00004A98       SysUtils.LongMonthNames
 0004:00004AC8       SysUtils.ShortDayNames
 0004:00004AE4       SysUtils.LongDayNames
 0004:00004B00       SysUtils.SysLocale
 0004:00004B0E       SysUtils.ListSeparator
 0004:00004B10       SysUtils.EraNames
 0004:00004B2C       SysUtils.EraYearOffsets
 0004:00004B48       SysUtils.TrueBoolStrs
 0004:00004B4C       SysUtils.FalseBoolStrs
 0004:00004B50       SysUtils..35
 0004:00004B54       SysUtils.OutOfMemory
 0004:00004B58       SysUtils.InvalidPointer
 0004:00004B5C       SysUtils.CharHash
 0004:00004C5C       SysUtils.ValidatedUnitHashBuckets
 0004:0000505C       SysUtils.UnitHashBuckets
 0004:0000545C       SysUtils.FLanguages
 0004:00005460       VarUtils.VariantChangeTypeEx
 0004:00005464       VarUtils.VarNeg
 0004:00005468       VarUtils.VarNot
 0004:0000546C       VarUtils.VarAdd
 0004:00005470       VarUtils.VarSub
 0004:00005474       VarUtils.VarMul
 0004:00005478       VarUtils.VarDiv
 0004:0000547C       VarUtils.VarIDiv
 0004:00005480       VarUtils.VarMod
 0004:00005484       VarUtils.VarAnd
 0004:00005488       VarUtils.VarOr
 0004:0000548C       VarUtils.VarXor
 0004:00005490       VarUtils.VarCmp
 0004:00005494       VarUtils.VarI4FromStr
 0004:00005498       VarUtils.VarR4FromStr
 0004:0000549C       VarUtils.VarR8FromStr
 0004:000054A0       VarUtils.VarDateFromStr
 0004:000054A4       VarUtils.VarCyFromStr
 0004:000054A8       VarUtils.VarBoolFromStr
 0004:000054AC       VarUtils.VarBstrFromCy
 0004:000054B0       VarUtils.VarBstrFromDate
 0004:000054B4       VarUtils.VarBstrFromBool
 0004:000054B8       VarUtils..5
 0004:000054BC       Variants.EmptyParam
 0004:000054CC       Variants.VarDispProc
 0004:000054D0       Variants.ClearAnyProc
 0004:000054D4       Variants.ChangeAnyProc
 0004:000054D8       Variants.RefAnyProc
 0004:000054DC       Variants..81
 0004:000054E0       Variants.LVarTypes
 0004:000054E4       Variants.LVarTypeSync
 0004:000054FC       TypInfo..6
 0004:00005500       Classes.GlobalNameSpace
 0004:00005504       Classes.SyncEvent
 0004:00005508       Classes..95
 0004:0000550C       Classes.IntConstList
 0004:00005510       Classes.RegGroups
 0004:00005514       Classes.FindGlobalComponentProcs
 0004:00005518       Classes.GlobalFixupList
 0004:0000551C       Classes.ThreadLock
 0004:00005534       SqlTimSt..1
 0004:00005538       WideStrings..4
 0004:0000553C       WideStrings.CharNextW
 0004:00005540       FMTBcd..3
 0004:00005544       ComObj..41
 0004:00005548       ComObj.OleUninitializing
 0004:0000554C       ComObj.ComClassManagerVar
 0004:00005550       ComObj.SaveInitProc
 0004:00005554       ComObj.NeedToUninitialize
 0004:00005558       DB.DBScreen
 0004:0000555C       DB.DBApplication
 0004:00005560       DB..66
 0004:00005564       DSIntf..2
 0004:00005568       DSIntf.Loading
 0004:00005580       DbxOpenOdbcInterface.RegisterDbXpressLibA
 0004:00005584       DbxOpenOdbcInterface.RegisterDbXpressLibAW
 0004:00005588       DbxOpenOdbcInterface.RegisterDbXpressLibW
 0004:0000558C       DbxOpenOdbcInterface.RegisterDbXpressLibWA
 0004:00005590       DbxOpenOdbcInterface..1
 0004:00005594       IniFiles..8
 0004:00005598       Registry..5
 0004:0000559C       OdbcApi..5
 0004:000055A0       OdbcApi.fOdbcApiCache
 0004:000055A4       RegExpr..3
 0004:000055A8       DbxObjectParser..2
 0004:000055AC       DbxOpenOdbcASA.WM_AsaCallback
 0004:000055AE       DbxOpenOdbcASA.WM_AsaCallback_Supported
 0004:000055B0       DbxOpenOdbcASA..1
 0004:000055B4       SqlExpr..51
 0004:000055B8       DbxOpenOdbc3.cConnectionOptionsDefault3
 0004:000055D8       DbxOpenOdbc3..11
 0004:000055DC       DbxOpenOdbc..03
 0005:00000000       System.RaiseListPtr
 0005:00000004       System.InOutRes
 0005:00000008       Classes.GlobalLists
 0005:0000000C       SqlExpr.GetDriver
 0005:00000010       SqlExpr.DllHandle
 0005:00000014       SysInit.TlsLast


Line numbers for System(system.pas) segment .text

  2309 0001:00000260  2312 0001:00000268  2316 0001:00000270  2323 0001:00000278
  2326 0001:00000280  2329 0001:00000288  2344 0001:00000290  2347 0001:00000298
  2353 0001:000002A0  2356 0001:000002A8  2359 0001:000002B0  2362 0001:000002B8
  2374 0001:000002C0  2378 0001:000002C8  2381 0001:000002D0  2384 0001:000002D8
  2387 0001:000002E0  2390 0001:000002E8  2393 0001:000002F0  2397 0001:000002F8
  2407 0001:00000300  2410 0001:00000308  2414 0001:00000310  2417 0001:00000318
  2421 0001:00000320  2425 0001:00000328  2436 0001:00000330  2440 0001:00000338
  2446 0001:00000340  2450 0001:00000348  2453 0001:00000350  2459 0001:00000358
  2462 0001:00000360  2465 0001:00000368  2480 0001:00000370  2481 0001:00000374
  2482 0001:00000379  2483 0001:0000037F  2484 0001:00000386  2485 0001:0000038B

Line numbers for System(GETMEM.INC) segment .text

    73 0001:00000394    75 0001:0000039C    77 0001:000003A4    85 0001:000003AC
   501 0001:00000414   502 0001:00000418   522 0001:0000041C   523 0001:0000041E
   524 0001:00000420   525 0001:00000423   526 0001:00000426   527 0001:00000429
   528 0001:0000042C   532 0001:00000430   533 0001:00000432   534 0001:00000434
   535 0001:00000437   536 0001:0000043A   537 0001:0000043D   538 0001:00000440
   539 0001:00000443   540 0001:00000446   541 0001:00000449   542 0001:0000044C
   546 0001:00000450   547 0001:00000452   548 0001:00000454   549 0001:00000457
   550 0001:0000045A   551 0001:0000045D   552 0001:00000460   553 0001:00000463
   554 0001:00000466   555 0001:00000469   556 0001:0000046C   557 0001:0000046F
   558 0001:00000472   559 0001:00000475   560 0001:00000478   564 0001:0000047C
   565 0001:0000047E   566 0001:00000481   567 0001:00000484   568 0001:00000487
   569 0001:0000048A   570 0001:0000048D   571 0001:00000490   572 0001:00000493
   573 0001:00000496   574 0001:00000498   578 0001:0000049C   579 0001:0000049E
   580 0001:000004A1   581 0001:000004A4   582 0001:000004A7   583 0001:000004AA
   584 0001:000004AD   585 0001:000004B0   586 0001:000004B3   587 0001:000004B6
   588 0001:000004B9   589 0001:000004BC   590 0001:000004BE   594 0001:000004C0
   595 0001:000004C2   596 0001:000004C5   597 0001:000004C8   598 0001:000004CB
   599 0001:000004CE   600 0001:000004D1   601 0001:000004D4   602 0001:000004D7
   603 0001:000004DA   604 0001:000004DD   605 0001:000004E0   606 0001:000004E3
   607 0001:000004E6   608 0001:000004E8   612 0001:000004EC   613 0001:000004EE
   614 0001:000004F1   615 0001:000004F4   616 0001:000004F7   617 0001:000004FA
   618 0001:000004FD   619 0001:00000500   620 0001:00000503   621 0001:00000506
   622 0001:00000509   623 0001:0000050C   624 0001:0000050F   625 0001:00000512
   626 0001:00000515   627 0001:00000518   628 0001:0000051A   632 0001:0000051C
   633 0001:0000051E   634 0001:00000521   635 0001:00000524   636 0001:00000527
   637 0001:0000052A   638 0001:0000052D   639 0001:00000530   640 0001:00000533
   641 0001:00000536   642 0001:00000539   643 0001:0000053C   644 0001:0000053F
   645 0001:00000542   646 0001:00000545   647 0001:00000548   648 0001:0000054B
   649 0001:0000054E   650 0001:00000550   659 0001:00000554   660 0001:00000557
   661 0001:00000559   662 0001:0000055B   663 0001:0000055D   666 0001:0000055F
   667 0001:00000562   668 0001:00000566   669 0001:0000056A   671 0001:0000056D
   672 0001:00000570   675 0001:00000572   676 0001:00000575   677 0001:00000578
   678 0001:0000057C   679 0001:00000580   686 0001:00000584   687 0001:00000587
   688 0001:00000589   689 0001:0000058B   692 0001:0000058D   693 0001:00000590
   695 0001:00000593   696 0001:00000596   698 0001:00000598   699 0001:0000059B
   700 0001:0000059E   709 0001:000005A0   710 0001:000005A2   712 0001:000005AB
   716 0001:000005B7   717 0001:000005BE   719 0001:000005CD   714 0001:000005D4
   721 0001:000005E3   712 0001:000005E6   723 0001:000005E9   731 0001:000005EC
   735 0001:000005F7   736 0001:000005FE   738 0001:00000610   733 0001:00000617
   741 0001:00000629   782 0001:0000062C   783 0001:0000062F   786 0001:00000631
   788 0001:00000633   789 0001:00000635   792 0001:00000638   794 0001:0000063A
   796 0001:0000063B   799 0001:0000063C   800 0001:00000642   801 0001:00000644
   803 0001:00000647   805 0001:0000064A   806 0001:0000064F   807 0001:00000651
   808 0001:00000658   810 0001:0000065A   811 0001:0000065F   812 0001:00000661
   813 0001:00000663   814 0001:00000669   856 0001:0000066C   857 0001:00000672
   859 0001:00000675   860 0001:0000067B   861 0001:0000067D   862 0001:0000067F
   864 0001:00000685   866 0001:0000068C   868 0001:0000068F   869 0001:00000691
   870 0001:00000693   871 0001:00000696   872 0001:00000698   874 0001:0000069B
   875 0001:0000069D   877 0001:0000069E   878 0001:0000069F   881 0001:000006A0
   882 0001:000006A6   883 0001:000006A8   885 0001:000006AB   887 0001:000006AE
   888 0001:000006B3   889 0001:000006B5   891 0001:000006BC   892 0001:000006C1
   893 0001:000006C3   894 0001:000006C5   895 0001:000006CB   942 0001:000006CC
   943 0001:000006D3   945 0001:000006D5   947 0001:000006D6   948 0001:000006D7
   951 0001:000006D8   953 0001:000006DD   954 0001:000006E1   956 0001:000006E3
   958 0001:000006E7   960 0001:000006ED   964 0001:000006EF   965 0001:000006F2
   967 0001:000006F5   969 0001:000006F9   970 0001:000006FF   971 0001:00000705
   973 0001:00000706   974 0001:00000707   977 0001:00000708   978 0001:0000070D
   980 0001:00000710   981 0001:00000716   983 0001:00000718   985 0001:0000071D
   986 0001:00000722   987 0001:00000727   990 0001:0000072A   992 0001:00000730
   994 0001:00000732   995 0001:00000734   996 0001:00000736  1006 0001:00000738
  1008 0001:0000073B  1010 0001:00000740  1011 0001:00000753  1014 0001:00000757
  1015 0001:0000075D  1016 0001:00000765  1017 0001:0000076A  1018 0001:0000076D
  1020 0001:0000076F  1022 0001:00000782  1024 0001:0000078F  1025 0001:00000793
  1027 0001:00000798  1032 0001:000007A4  1033 0001:000007AB  1035 0001:000007AD
  1057 0001:000007B0  1061 0001:000007BB  1062 0001:000007C2  1064 0001:000007D4
  1059 0001:000007DB  1067 0001:000007ED  1077 0001:000007F0  1081 0001:000007F6
  1084 0001:00000806  1087 0001:00000817  1090 0001:0000081B  1091 0001:00000820
  1093 0001:00000826  1094 0001:0000082B  1095 0001:00000830  1096 0001:00000836
  1097 0001:0000083C  1098 0001:0000083F  1099 0001:00000841  1101 0001:00000848
  1103 0001:0000084B  1109 0001:00000854  1111 0001:00000859  1113 0001:0000085C
  1114 0001:00000861  1115 0001:00000865  1117 0001:00000868  1120 0001:00000879
  1121 0001:0000087B  1123 0001:0000087E  1126 0001:00000882  1127 0001:00000885
  1128 0001:0000088C  1458 0001:00000890  1459 0001:00000893  1461 0001:00000896
  1463 0001:0000089B  1465 0001:0000089C  1467 0001:000008A2  1469 0001:000008A8
  1471 0001:000008AA  1472 0001:000008B1  1474 0001:000008B8  1477 0001:000008BA
  1479 0001:000008BD  1481 0001:000008C0  1483 0001:000008C5  1484 0001:000008C7
  1486 0001:000008C9  1488 0001:000008CD  1490 0001:000008D0  1492 0001:000008D3
  1494 0001:000008D6  1496 0001:000008D8  1498 0001:000008DB  1500 0001:000008DC
  1502 0001:000008DD  1503 0001:000008DE  1504 0001:000008DF  1507 0001:000008E0
  1509 0001:000008E3  1510 0001:000008E7  1512 0001:000008E9  1514 0001:000008EC
  1516 0001:000008EE  1518 0001:000008F2  1520 0001:000008F5  1522 0001:000008F8
  1524 0001:000008FB  1526 0001:000008FC  1528 0001:000008FD  1529 0001:000008FE
  1530 0001:000008FF  1533 0001:00000900  1534 0001:00000903  1535 0001:00000906
  1537 0001:00000909  1539 0001:0000090C  1541 0001:0000090D  1543 0001:0000090E
  1544 0001:0000090F  1546 0001:00000910  1548 0001:00000915  1549 0001:00000919
  1551 0001:0000091B  1552 0001:0000091E  1553 0001:00000923  1554 0001:00000927
  1556 0001:00000929  1557 0001:0000092C  1558 0001:00000931  1559 0001:00000935
  1561 0001:00000937  1563 0001:0000093A  1564 0001:0000093C  1566 0001:00000941
  1568 0001:00000946  1569 0001:0000094A  1571 0001:00000950  1572 0001:00000952
  1574 0001:00000957  1576 0001:00000959  1577 0001:0000095A  1578 0001:0000095B
  1581 0001:0000095C  1582 0001:0000095D  1584 0001:0000095E  1585 0001:00000965
  1587 0001:00000967  1589 0001:0000096C  1590 0001:00000974  1592 0001:00000976
  1593 0001:00000978  1595 0001:0000097D  1597 0001:00000982  1598 0001:0000098A
  1600 0001:0000098C  1601 0001:0000098E  1603 0001:00000993  1605 0001:00000995
  1606 0001:00000996  1607 0001:00000997  1610 0001:00000998  1611 0001:0000099C
  1612 0001:000009A2  1614 0001:000009A4  1616 0001:000009A7  1617 0001:000009AE
  1618 0001:000009B5  1619 0001:000009B8  1621 0001:000009BB  1623 0001:000009C2
  1625 0001:000009C5  1626 0001:000009C8  1627 0001:000009CB  1629 0001:000009CD
  1630 0001:000009CF  1633 0001:000009D1  1634 0001:000009D6  1635 0001:000009D8
  1636 0001:000009DF  1638 0001:000009E1  1642 0001:000009E8  1643 0001:000009ED
  1644 0001:000009F0  1645 0001:000009F6  1648 0001:000009F8  1649 0001:000009FA
  1650 0001:000009FE  1652 0001:00000A00  1653 0001:00000A03  1654 0001:00000A06
  1656 0001:00000A09  1658 0001:00000A0D  1659 0001:00000A12  1663 0001:00000A14
  1664 0001:00000A18  1665 0001:00000A1E  1666 0001:00000A20  1668 0001:00000A22
  1670 0001:00000A28  1671 0001:00000A2C  1672 0001:00000A32  1673 0001:00000A34
  1674 0001:00000A36  1676 0001:00000A38  1678 0001:00000A3A  1679 0001:00000A40
  1681 0001:00000A46  1686 0001:00000A48  1687 0001:00000A4C  1689 0001:00000A4E
  1690 0001:00000A53  1691 0001:00000A55  1692 0001:00000A57  1693 0001:00000A59
  1694 0001:00000A5E  1695 0001:00000A60  1696 0001:00000A61  1697 0001:00000A62
  1698 0001:00000A63  1703 0001:00000A64  1707 0001:00000A69  1708 0001:00000A6C
  1710 0001:00000A6F  1711 0001:00000A71  1713 0001:00000A76  1714 0001:00000A78
  1715 0001:00000A7B  1717 0001:00000A82  1719 0001:00000A85  1720 0001:00000A88
  1721 0001:00000A8C  1722 0001:00000A8F  1723 0001:00000A92  1724 0001:00000A94
  1725 0001:00000A96  1727 0001:00000A99  1729 0001:00000A9C  1731 0001:00000A9F
  1732 0001:00000AA0  1733 0001:00000AA1  1735 0001:00000AA2  1738 0001:00000AA3
  1740 0001:00000AA4  1742 0001:00000AA9  1743 0001:00000AB1  1745 0001:00000AB3
  1746 0001:00000AB5  1748 0001:00000ABA  1750 0001:00000ABF  1751 0001:00000AC7
  1753 0001:00000AC9  1754 0001:00000ACB  1756 0001:00000AD0  1758 0001:00000AD2
  1759 0001:00000AD3  1761 0001:00000AD4  1762 0001:00000AD9  1765 0001:00000ADF
  1766 0001:00000AE5  1767 0001:00000AEB  1769 0001:00000AEE  1770 0001:00000AF0
  1773 0001:00000AF2  1774 0001:00000AF8  1775 0001:00000AFA  1776 0001:00000AFD
  1778 0001:00000B00  1779 0001:00000B05  1780 0001:00000B07  1781 0001:00000B0E
  1783 0001:00000B10  1784 0001:00000B13  1785 0001:00000B16  1786 0001:00000B18
  1788 0001:00000B1A  1789 0001:00000B1B  1792 0001:00000B1C  1793 0001:00000B21
  1794 0001:00000B23  1795 0001:00000B25  1796 0001:00000B2B  1798 0001:00000B2D
  1800 0001:00000B30  1801 0001:00000B37  1802 0001:00000B3A  1803 0001:00000B3C
  1804 0001:00000B3F  1805 0001:00000B41  1807 0001:00000B43  1809 0001:00000B44
  1811 0001:00000B4A  1812 0001:00000B4C  1814 0001:00000B4E  1815 0001:00000B53
  1816 0001:00000B55  1818 0001:00000B5A  1820 0001:00000B60  1821 0001:00000B63
  1822 0001:00000B66  1825 0001:00000B68  1826 0001:00000B6A  1828 0001:00000B6F
  1829 0001:00000B76  1830 0001:00000B77  1834 0001:00000B78  1835 0001:00000B79
  1837 0001:00000B7A  1839 0001:00000B81  1841 0001:00000B84  1842 0001:00000B87
  1843 0001:00000B8A  1845 0001:00000B8C  1846 0001:00000B8E  1849 0001:00000B90
  1850 0001:00000B95  1851 0001:00000B97  1852 0001:00000B9E  1854 0001:00000BA0
  1858 0001:00000BA7  1859 0001:00000BAC  1861 0001:00000BAF  1862 0001:00000BB1
  1863 0001:00000BB3  1865 0001:00000BB5  1866 0001:00000BB8  1867 0001:00000BBB
  1869 0001:00000BBE  1871 0001:00000BC2  1872 0001:00000BC8  1873 0001:00000BCA
  1874 0001:00000BCF  1876 0001:00000BD1  1877 0001:00000BD2  1878 0001:00000BD3
  1881 0001:00000BD4  1884 0001:00000BD9  1885 0001:00000BDC  1887 0001:00000BDF
  1888 0001:00000BE6  1889 0001:00000BE8  1890 0001:00000BE9  1891 0001:00000BEA
  1892 0001:00000BEB  1896 0001:00000BEC  1897 0001:00000BED  1898 0001:00000BEF
  1899 0001:00000BF5  1900 0001:00000BF7  2101 0001:00000BF8  2103 0001:00000BFB
  2105 0001:00000BFE  2107 0001:00000C00  2109 0001:00000C01  2111 0001:00000C07
  2113 0001:00000C0D  2115 0001:00000C0F  2117 0001:00000C11  2121 0001:00000C13
  2123 0001:00000C17  2125 0001:00000C1A  2127 0001:00000C1C  2129 0001:00000C1E
  2131 0001:00000C21  2132 0001:00000C24  2134 0001:00000C27  2136 0001:00000C29
  2138 0001:00000C2B  2140 0001:00000C2D  2142 0001:00000C2E  2144 0001:00000C2F
  2147 0001:00000C30  2148 0001:00000C33  2149 0001:00000C36  2150 0001:00000C39
  2151 0001:00000C3C  2153 0001:00000C3F  2155 0001:00000C42  2157 0001:00000C44
  2159 0001:00000C45  2161 0001:00000C46  2162 0001:00000C47  2167 0001:00000C48
  2168 0001:00000C4A  2170 0001:00000C4C  2171 0001:00000C4F  2173 0001:00000C52
  2174 0001:00000C55  2176 0001:00000C58  2178 0001:00000C5A  2179 0001:00000C5D
  2181 0001:00000C5F  2184 0001:00000C62  2186 0001:00000C64  2187 0001:00000C66
  2188 0001:00000C69  2189 0001:00000C6F  2191 0001:00000C71  2192 0001:00000C72
  2193 0001:00000C73  2195 0001:00000C74  2197 0001:00000C79  2198 0001:00000C7D
  2200 0001:00000C7F  2201 0001:00000C80  2202 0001:00000C81  2203 0001:00000C83
  2204 0001:00000C88  2205 0001:00000C89  2207 0001:00000C8A  2209 0001:00000C8F
  2210 0001:00000C93  2212 0001:00000C99  2213 0001:00000C9A  2214 0001:00000C9B
  2215 0001:00000C9D  2216 0001:00000CA2  2217 0001:00000CA3  2219 0001:00000CA4
  2221 0001:00000CA6  2222 0001:00000CA7  2225 0001:00000CA8  2227 0001:00000CAD
  2228 0001:00000CB5  2230 0001:00000CB7  2231 0001:00000CB9  2233 0001:00000CBE
  2235 0001:00000CC3  2236 0001:00000CCB  2238 0001:00000CCD  2239 0001:00000CCF
  2241 0001:00000CD4  2243 0001:00000CD6  2244 0001:00000CD7  2247 0001:00000CD8
  2248 0001:00000CDB  2251 0001:00000CE1  2254 0001:00000CE4  2256 0001:00000CE6
  2258 0001:00000CE8  2260 0001:00000CE9  2262 0001:00000CEB  2265 0001:00000CED
  2267 0001:00000CF5  2268 0001:00000CF9  2270 0001:00000CFB  2271 0001:00000CFE
  2276 0001:00000D02  2277 0001:00000D06  2281 0001:00000D08  2282 0001:00000D0E
  2285 0001:00000D10  2286 0001:00000D13  2288 0001:00000D16  2292 0001:00000D1A
  2293 0001:00000D1C  2295 0001:00000D1E  2297 0001:00000D23  2299 0001:00000D2A
  2301 0001:00000D2C  2302 0001:00000D2D  2304 0001:00000D2E  2306 0001:00000D2F
  2309 0001:00000D30  2311 0001:00000D33  2312 0001:00000D36  2314 0001:00000D38
  2315 0001:00000D3E  2316 0001:00000D40  2317 0001:00000D45  2319 0001:00000D47
  2322 0001:00000D48  2324 0001:00000D4B  2326 0001:00000D4D  2328 0001:00000D4F
  2329 0001:00000D55  2330 0001:00000D57  2331 0001:00000D59  2332 0001:00000D5E
  2338 0001:00000D60  2339 0001:00000D6A  2341 0001:00000D6C  2343 0001:00000D6F
  2344 0001:00000D71  2345 0001:00000D74  2346 0001:00000D77  2348 0001:00000D79
  2350 0001:00000D80  2351 0001:00000D85  2352 0001:00000D87  2353 0001:00000D88
  2355 0001:00000D8D  2357 0001:00000D90  2359 0001:00000D92  2360 0001:00000D93
  2361 0001:00000D94  2363 0001:00000D95  2364 0001:00000D96  2365 0001:00000D97
  2368 0001:00000D98  2370 0001:00000D9E  2373 0001:00000DA3  2375 0001:00000DAA
  2377 0001:00000DB4  2379 0001:00000DBA  2381 0001:00000DC1  2383 0001:00000DC3
  2384 0001:00000DC4  2385 0001:00000DC5  2387 0001:00000DC6  2388 0001:00000DC7
  2391 0001:00000DC8  2393 0001:00000DC9  2394 0001:00000DCC  2396 0001:00000DD2
  2397 0001:00000DD7  2813 0001:00000DD8  2815 0001:00000DDB  2817 0001:00000DDE
  2819 0001:00000DDF  2821 0001:00000DE0  2823 0001:00000DE2  2826 0001:00000DE8
  2828 0001:00000DEA  2829 0001:00000DEE  2831 0001:00000DF1  2832 0001:00000DF3
  2836 0001:00000DF5  2837 0001:00000DFC  2838 0001:00000DFE  2840 0001:00000E00
  2841 0001:00000E01  2842 0001:00000E02  2844 0001:00000E03  2847 0001:00000E04
  2849 0001:00000E06  2850 0001:00000E08  2852 0001:00000E0D  2853 0001:00000E0F
  2855 0001:00000E11  2857 0001:00000E13  2859 0001:00000E15  2861 0001:00000E17
  2864 0001:00000E19  2869 0001:00000E1E  2870 0001:00000E20  2872 0001:00000E25
  2874 0001:00000E27  2875 0001:00000E28  2876 0001:00000E29  2878 0001:00000E2A
  2879 0001:00000E2B  2887 0001:00000E2C  2889 0001:00000E30  2891 0001:00000E31
  2894 0001:00000E33  2895 0001:00000E35  2896 0001:00000E37  2897 0001:00000E3A
  2898 0001:00000E3C  2900 0001:00000E3E  2902 0001:00000E43  2903 0001:00000E45
  2906 0001:00000E47  2907 0001:00000E4D  2909 0001:00000E4F  2912 0001:00000E52
  2913 0001:00000E56  2915 0001:00000E59  2917 0001:00000E5B  2919 0001:00000E5D
  2922 0001:00000E5F  2927 0001:00000E62  2928 0001:00000E64  2930 0001:00000E69
  2932 0001:00000E6B  2933 0001:00000E6C  2934 0001:00000E6D  2935 0001:00000E6E
  2941 0001:00000E6F  2944 0001:00000E70  2945 0001:00000E73  2949 0001:00000E79
  2951 0001:00000E7B  2953 0001:00000E7E  2955 0001:00000E7F  2957 0001:00000E82
  2959 0001:00000E85  2961 0001:00000E88  2963 0001:00000E8A  2965 0001:00000E8B
  2969 0001:00000E91  2970 0001:00000E94  2971 0001:00000E96  2974 0001:00000E98
  2975 0001:00000E99  2976 0001:00000E9A  2977 0001:00000E9B  2979 0001:00000E9C
  2981 0001:00000E9D  2982 0001:00000E9E  2983 0001:00000E9F  2988 0001:00000EA0
  2989 0001:00000EA6  2994 0001:00000EA8  2995 0001:00000EAE  2999 0001:00000EB4
  3001 0001:00000EB9  3002 0001:00000EBB  3005 0001:00000EBD  3006 0001:00000EC3
  3007 0001:00000EC9  3009 0001:00000ECC  3010 0001:00000ECF  3012 0001:00000ED1
  3013 0001:00000ED8  3017 0001:00000EDA  3019 0001:00000EDF  3020 0001:00000EE7
  3022 0001:00000EE9  3023 0001:00000EEA  3024 0001:00000EEC  3025 0001:00000EF1
  3027 0001:00000EF2  3029 0001:00000EF7  3030 0001:00000EFF  3032 0001:00000F01
  3033 0001:00000F02  3034 0001:00000F04  3035 0001:00000F09  3037 0001:00000F0A
  3040 0001:00000F0C  3041 0001:00000F11  3044 0001:00000F14  3045 0001:00000F16
  3047 0001:00000F19  3049 0001:00000F1B  3050 0001:00000F1E  3051 0001:00000F21
  3053 0001:00000F23  3054 0001:00000F26  3055 0001:00000F29  3057 0001:00000F2B
  3060 0001:00000F2C  3061 0001:00000F2E  3062 0001:00000F31  3063 0001:00000F33
  3064 0001:00000F35  3065 0001:00000F3B  3066 0001:00000F3D  3069 0001:00000F42
  3071 0001:00000F45  3072 0001:00000F48  3074 0001:00000F4C  3075 0001:00000F52
  3076 0001:00000F54  3077 0001:00000F57  3078 0001:00000F59  3081 0001:00000F5E
  3083 0001:00000F65  3085 0001:00000F67  3086 0001:00000F68  3087 0001:00000F69
  3088 0001:00000F6A  3090 0001:00000F6B  3094 0001:00000F6C  3095 0001:00000F6E
  3097 0001:00000F70  3098 0001:00000F75  3099 0001:00000F77  3101 0001:00000F79
  3102 0001:00000F7B  3103 0001:00000F7D  3104 0001:00000F7F  3107 0001:00000F81
  3111 0001:00000F86  3112 0001:00000F88  3114 0001:00000F8D  3116 0001:00000F8F
  3117 0001:00000F90  3118 0001:00000F91  3119 0001:00000F92  3120 0001:00000F93
  3126 0001:00000F94  3127 0001:00000F97  3128 0001:00000F99  3130 0001:00000F9F
  3132 0001:00000FA2  3134 0001:00000FA5  3135 0001:00000FA7  3138 0001:00000FAD
  3139 0001:00000FB4  3142 0001:00000FB6  3144 0001:00000FBB  3145 0001:00000FC3
  3147 0001:00000FC5  3148 0001:00000FC6  3149 0001:00000FC7  3150 0001:00000FC9
  3151 0001:00000FCE  3152 0001:00000FCF  3154 0001:00000FD0  3156 0001:00000FD5
  3157 0001:00000FDD  3159 0001:00000FDF  3160 0001:00000FE0  3161 0001:00000FE1
  3162 0001:00000FE3  3163 0001:00000FE8  3164 0001:00000FE9  3166 0001:00000FEA
  3170 0001:00000FEC  3171 0001:00000FF1  3173 0001:00000FF4  3175 0001:00000FF7
  3176 0001:00000FF9  3178 0001:00000FFB  3180 0001:00000FFE  3182 0001:00001001
  3183 0001:00001003  3186 0001:00001005  3188 0001:0000100A  3189 0001:0000100C
  3190 0001:0000100E  3191 0001:0000100F  3192 0001:00001010  3193 0001:00001015
  3194 0001:00001016  3197 0001:00001017  3198 0001:00001019  3199 0001:0000101C
  3201 0001:0000101E  3202 0001:00001020  3203 0001:00001022  3204 0001:00001025
  3206 0001:00001027  3207 0001:0000102E  3208 0001:00001033  3210 0001:00001036
  3211 0001:00001039  3213 0001:0000103B  3215 0001:0000103D  3217 0001:00001041
  3219 0001:00001044  3221 0001:00001046  3222 0001:00001047  3225 0001:00001048
  3227 0001:0000104C  3228 0001:0000104F  3229 0001:00001053  3230 0001:00001055
  3231 0001:0000105B  3232 0001:0000105D  3233 0001:0000105F  3236 0001:00001064
  3237 0001:00001066  3239 0001:00001069  3241 0001:00001070  3244 0001:00001072
  3245 0001:00001073  3246 0001:00001074  3247 0001:00001075  3249 0001:00001076
  3251 0001:00001077  3252 0001:00001078  3255 0001:00001079  3260 0001:00001080
  3261 0001:00001082  3262 0001:00001085  3264 0001:00001087  3265 0001:00001089
  3266 0001:0000108B  3267 0001:0000108E  3268 0001:00001090  3270 0001:00001092
  3272 0001:00001094  3274 0001:00001096  3275 0001:00001097  3276 0001:0000109C
  3278 0001:0000109D  3279 0001:0000109F  3281 0001:000010A1  3282 0001:000010A7
  3283 0001:000010A9  3286 0001:000010AC  3288 0001:000010AE  3289 0001:000010B0
  3290 0001:000010B2  3292 0001:000010B4  3297 0001:000010B9  3298 0001:000010BB
  3300 0001:000010C0  3302 0001:000010C2  3303 0001:000010C3  3304 0001:000010C4
  3305 0001:000010C5  3307 0001:000010C6  3309 0001:000010C7  3312 0001:000010C8
  3313 0001:000010CB  3317 0001:000010D1  3319 0001:000010D4  3320 0001:000010D6
  3326 0001:000010D8  3327 0001:000010DA  3328 0001:000010DD  3330 0001:000010DF
  3331 0001:000010E1  3332 0001:000010E3  3333 0001:000010E6  3334 0001:000010E8
  3336 0001:000010EA  3338 0001:000010EC  3340 0001:000010ED  3342 0001:000010F2
  3344 0001:000010F3  3345 0001:000010F5  3349 0001:000010F7  3350 0001:000010FD
  3351 0001:000010FF  3354 0001:00001102  3356 0001:00001105  3358 0001:00001107
  3360 0001:00001109  3362 0001:0000110B  3367 0001:00001110  3368 0001:00001112
  3370 0001:00001117  3373 0001:00001119  3374 0001:0000111A  3376 0001:0000111B
  3381 0001:0000111C  3382 0001:0000111E  3383 0001:00001120  3385 0001:00001122
  3387 0001:00001125  3388 0001:00001126  3390 0001:00001127  3396 0001:00001128
  3398 0001:0000112A  3399 0001:0000112C  3400 0001:00001131  3401 0001:00001133
  3403 0001:00001135  3404 0001:0000113B  3405 0001:0000113D  3408 0001:00001140
  3410 0001:00001142  3412 0001:00001144  3414 0001:00001146  3416 0001:00001148
  3421 0001:0000114D  3422 0001:0000114F  3424 0001:00001154  3426 0001:00001156
  3427 0001:00001157  3429 0001:00001158  3431 0001:00001159  3432 0001:0000115A
  3433 0001:0000115B  3436 0001:0000115C  3437 0001:0000115E  3438 0001:0000115F
  3439 0001:00001160  3454 0001:00001164  3456 0001:00001165  3457 0001:00001168
  3459 0001:0000116B  3461 0001:00001170  3462 0001:00001173  3464 0001:00001175
  3467 0001:00001178  3469 0001:0000117A  3470 0001:00001180  3472 0001:00001182
  3474 0001:00001184  3478 0001:00001186  3479 0001:00001189  3480 0001:0000118C
  3482 0001:0000118E  3484 0001:00001190  3486 0001:00001192  3487 0001:00001193
  3499 0001:00001194  3501 0001:000011A0  3503 0001:000011A4  3504 0001:000011AE
  3505 0001:000011B2  3506 0001:000011B4  3511 0001:000011B8  3515 0001:000011DB
  3520 0001:000011DF  3521 0001:000011EB  3523 0001:000011F2  3525 0001:000011F4
  3532 0001:000011F8  3534 0001:000011FA  3536 0001:00001201  3540 0001:00001210
  3541 0001:0000121C  3546 0001:00001229  3548 0001:0000122F  3558 0001:00001234
  3559 0001:00001235  3561 0001:00001237  3562 0001:0000123A  3563 0001:0000123F
  3564 0001:00001241  3565 0001:00001244  3566 0001:00001246  3567 0001:0000124C
  3568 0001:0000124F  3569 0001:00001252  3570 0001:00001254  3571 0001:00001256
  3572 0001:00001259  3574 0001:0000125B  3575 0001:0000125D  3576 0001:00001260
  3577 0001:00001263  3578 0001:00001266  3579 0001:0000126C  3580 0001:0000126E
  3581 0001:00001271  3583 0001:00001273  3584 0001:00001276  3585 0001:00001279
  3586 0001:0000127C  3587 0001:0000127F  3588 0001:00001282  3589 0001:00001288
  3590 0001:0000128A  3591 0001:0000128D  3593 0001:0000128F  3594 0001:00001292
  3595 0001:00001295  3596 0001:00001298  3597 0001:0000129B  3598 0001:0000129E
  3599 0001:000012A4  3600 0001:000012A6  3601 0001:000012A9  3603 0001:000012AB
  3604 0001:000012AE  3605 0001:000012B1  3606 0001:000012B4  3607 0001:000012B7
  3608 0001:000012BA  3609 0001:000012C0  3610 0001:000012C2  3611 0001:000012C5
  3613 0001:000012C7  3614 0001:000012CA  3615 0001:000012CD  3616 0001:000012D0
  3617 0001:000012D3  3618 0001:000012D6  3619 0001:000012DC  3620 0001:000012DE
  3621 0001:000012E1  3623 0001:000012E3  3624 0001:000012E6  3625 0001:000012E9
  3626 0001:000012EC  3627 0001:000012EF  3628 0001:000012F2  3629 0001:000012F8
  3630 0001:000012FA  3631 0001:000012FD  3633 0001:000012FF  3634 0001:00001302
  3635 0001:00001305  3636 0001:00001308  3637 0001:0000130B  3638 0001:0000130E
  3639 0001:00001314  3640 0001:00001316  3641 0001:00001319  3643 0001:0000131B
  3644 0001:0000131E  3645 0001:00001321  3646 0001:00001324  3647 0001:00001327
  3648 0001:0000132A  3649 0001:00001330  3650 0001:00001332  3651 0001:00001335
  3653 0001:00001337  3654 0001:0000133A  3655 0001:0000133D  3656 0001:00001340
  3657 0001:00001343  3658 0001:00001346  3660 0001:00001348  3662 0001:0000134B
  3663 0001:0000134C  3668 0001:00001350  3669 0001:00001356  3670 0001:0000135F
  3671 0001:00001363  3681 0001:00001368  3683 0001:00001371  3687 0001:00001392
  3691 0001:000013A6  3705 0001:000013F0  3707 0001:000013F4  3709 0001:000013F9
  3712 0001:00001419  3714 0001:00001420  3716 0001:00001427  3718 0001:00001429
  3720 0001:0000142E  3723 0001:00001445  3725 0001:00001447  3733 0001:00001450
  3737 0001:0000145B  3738 0001:00001462  3740 0001:00001474  3735 0001:0000147B
  3744 0001:0000148D  3745 0001:00001496  3747 0001:000014AE  3748 0001:000014B8
  3754 0001:000014BC  3756 0001:000014BF  3759 0001:000014D5  3760 0001:000014E6
  3761 0001:000014ED  3764 0001:000014F1  3765 0001:000014F3  3769 0001:000014FA
  3776 0001:000014FC  3778 0001:00001506  3780 0001:00001508  3782 0001:00001516
  3784 0001:00001522  3786 0001:0000152A  3788 0001:00001539  3789 0001:0000153D
  3790 0001:0000153F  3792 0001:00001541  3782 0001:00001542  3793 0001:00001545
  3796 0001:0000154C  3839 0001:00001554  3841 0001:00001560  3842 0001:0000156E
  3844 0001:0000157B  3849 0001:0000158E  3852 0001:000015AD  3854 0001:000015B7
  3856 0001:000015B9  3858 0001:000015C3  3861 0001:000015CB  3863 0001:000015DA
  3865 0001:000015E5  3869 0001:00001600  3870 0001:00001609  3871 0001:0000160D
  3873 0001:00001617  3874 0001:00001636  3871 0001:00001639  3877 0001:0000163E
  3879 0001:0000164C  3886 0001:00001653  3889 0001:00001658  3894 0001:00001663
  3887 0001:00001664  3896 0001:0000166C  3897 0001:00001674  3899 0001:00001679
  3902 0001:0000167B  3905 0001:0000167F  3846 0001:0000168B  3907 0001:00001697
  3909 0001:000016A0  3911 0001:000016BF  3912 0001:000016D1  3914 0001:000016E3
  3916 0001:000016EB  3918 0001:000016F2  3921 0001:000016FD  3922 0001:00001706
  3924 0001:0000170A  3926 0001:00001711  3928 0001:00001719  3931 0001:00001721
  3935 0001:0000172C  3937 0001:00001738  3939 0001:00001744  3941 0001:0000174F
  3943 0001:00001756  3944 0001:00001769  3950 0001:0000176F  3922 0001:00001778
  3953 0001:0000177C  3919 0001:0000177F  3956 0001:0000178B  3961 0001:00001793
  3964 0001:000017A1  3965 0001:000017A8  3967 0001:000017B4  3968 0001:000017C1
  3971 0001:000017C7  3957 0001:000017CA  3974 0001:000017DE  3977 0001:000017EB
  3978 0001:000017F2  3980 0001:000017FA  3982 0001:00001811  3984 0001:00001831
  3985 0001:00001843  3987 0001:0000184A  3991 0001:00001857  3994 0001:00001865
  3997 0001:0000186E  3999 0001:00001877  4000 0001:0000188A  4003 0001:00001891
  4005 0001:0000189A  4006 0001:0000189D  4007 0001:0000189E  4008 0001:000018A1
  4009 0001:000018A2  4010 0001:000018B2  4011 0001:000018B5  4012 0001:000018B6
  4013 0001:000018B9  4014 0001:000018BA  4015 0001:000018BD  4016 0001:000018BE
  4017 0001:000018CD  4018 0001:000018E0  4022 0001:000018E9  4023 0001:000018EC
  4024 0001:000018ED  4025 0001:000018F0  4028 0001:000018F1  4032 0001:000018FC
  4037 0001:00001911  4042 0001:00001926  4043 0001:00001934  4047 0001:0000194A
  4048 0001:0000194D  4049 0001:0000194E  4050 0001:00001951  4051 0001:00001952
  4052 0001:00001955  4053 0001:00001956  4055 0001:00001961  3987 0001:00001965
  4056 0001:0000196E  4057 0001:0000197A  3982 0001:0000198B  4059 0001:00001997
  4062 0001:000019A0  4064 0001:000019A9  4065 0001:000019AC  4066 0001:000019AD
  4067 0001:000019B0  4068 0001:000019B1  4069 0001:000019B4  4070 0001:000019B5
  4071 0001:000019B8  4074 0001:000019B9  4076 0001:000019CC  4078 0001:000019E8
  4080 0001:000019F1  4081 0001:000019F4  4082 0001:000019F5  4083 0001:000019F8
  4085 0001:000019F9  4088 0001:00001A04  4090 0001:00001A0E  4076 0001:00001A17
  4093 0001:00001A1A  4095 0001:00001A2B  4098 0001:00001A43  4250 0001:00001B18
  4252 0001:00001B21  4254 0001:00001B2F  4256 0001:00001B34  4258 0001:00001B39
  4262 0001:00001B46  4263 0001:00001B4C  4265 0001:00001B53  4268 0001:00001B57
  4269 0001:00001B61  4272 0001:00001B69  4274 0001:00001B70  4276 0001:00001B75
  4278 0001:00001B7D  4281 0001:00001B85  4284 0001:00001B94  4287 0001:00001BAD
  4290 0001:00001BB8  4291 0001:00001BC2  4292 0001:00001BCC  4297 0001:00001BD9
  4298 0001:00001BDF  4304 0001:00001BE5  4307 0001:00001BE8  4269 0001:00001BF1
  4310 0001:00001BF9  4259 0001:00001C02  4313 0001:00001C10  4315 0001:00001C18
  4317 0001:00001C1F  4318 0001:00001C29  4317 0001:00001C2F  4320 0001:00001C32
  4321 0001:00001C37  4324 0001:00001C3E  4325 0001:00001C44  4326 0001:00001C46
  4327 0001:00001C49  4328 0001:00001C4F  4330 0001:00001C55  4322 0001:00001C58
  4332 0001:00001C5F  4334 0001:00001C66  4335 0001:00001C72  4475 0001:00001C7C
  4476 0001:00001C7E  4477 0001:00001C80  4480 0001:00001C87  4483 0001:00001C95
  4485 0001:00001C9B  4486 0001:00001CA1  4488 0001:00001CA5  4489 0001:00001CAB
  4486 0001:00001CAC  4492 0001:00001CB0  4494 0001:00001CB2  4477 0001:00001CB6
  4495 0001:00001CBB  4517 0001:00001CC0  4519 0001:00001CC3  4525 0001:00001CCD
  4527 0001:00001CD2  4535 0001:00001CD8  4536 0001:00001CDE  4539 0001:00001CE4
  4540 0001:00001CE9  4542 0001:00001CF0  4546 0001:00001D08  4547 0001:00001D0F
  4549 0001:00001D14  4552 0001:00001D1C  4553 0001:00001D21  4555 0001:00001D26
  4557 0001:00001D2F  4559 0001:00001D3A  4563 0001:00001D58  4564 0001:00001D60
  4565 0001:00001D65  4566 0001:00001D6D  4568 0001:00001D72  4571 0001:00001D80
  4574 0001:00001D93  4519 0001:00001D96  4576 0001:00001D9D  4579 0001:00001DA2
  4580 0001:00001DAC  4582 0001:00001DB6  4584 0001:00001DC0  4585 0001:00001DC2
  4586 0001:00001DC4  4587 0001:00001DC7  4582 0001:00001DCA  4589 0001:00001DCD
  4590 0001:00001DD7  4591 0001:00001DE1  4600 0001:00001DE8  4602 0001:00001DF6
  4606 0001:00001DFB  4608 0001:00001DFE  4610 0001:00001E0B  4603 0001:00001E0D
  4613 0001:00001E11  4615 0001:00001E1B  4616 0001:00001E20  4617 0001:00001E25
  4618 0001:00001E2C  4619 0001:00001E31  4613 0001:00001E34  4621 0001:00001E37
  4622 0001:00001E39  4624 0001:00001E3C  4626 0001:00001E46  4627 0001:00001E48
  4628 0001:00001E4A  4629 0001:00001E4D  4624 0001:00001E50  4631 0001:00001E53
  4635 0001:00001E58  4637 0001:00001E5B  4639 0001:00001E68  4632 0001:00001E6A
  4642 0001:00001E6E  4643 0001:00001E70  4644 0001:00001E73  4649 0001:00001E78
  4651 0001:00001E81  4652 0001:00001E8C  4656 0001:00001E93  4657 0001:00001E9C
  4659 0001:00001EA1  4661 0001:00001EAA  4662 0001:00001EBC  4668 0001:00001EC3
  4669 0001:00001EC8

Line numbers for System(system.pas) segment .text

  2544 0001:00001ECC  2545 0001:00001ECE  2546 0001:00001ED0  2547 0001:00001ED6
  2548 0001:00001ED8  2550 0001:00001EDA  2551 0001:00001EDB  2553 0001:00001EDC
  2554 0001:00001EDE  2555 0001:00001EE3  2559 0001:00001EE4  2560 0001:00001EE7
  2561 0001:00001EFD  2564 0001:00001F00  2565 0001:00001F03  2566 0001:00001F19
  2646 0001:00001F1C  2647 0001:00001F1E  2648 0001:00001F20  2649 0001:00001F26
  2650 0001:00001F28  2651 0001:00001F2A  2652 0001:00001F2B  2654 0001:00001F2C
  2655 0001:00001F2E  2657 0001:00001F33  2658 0001:00001F35  2659 0001:00001F36
  2691 0001:00001F38  2692 0001:00001F3A  2693 0001:00001F3C  2694 0001:00001F42
  2695 0001:00001F44  2697 0001:00001F46  2698 0001:00001F47  2700 0001:00001F48
  2701 0001:00001F4A  2702 0001:00001F4F  2748 0001:00001F50  2749 0001:00001F52
  2750 0001:00001F54  2751 0001:00001F56  2752 0001:00001F58  2754 0001:00001F5A
  2755 0001:00001F5B  2756 0001:00001F5D  2757 0001:00001F63  2758 0001:00001F64
  2759 0001:00001F66  2760 0001:00001F68  2761 0001:00001F6A  2763 0001:00001F6B
  2764 0001:00001F6D  2766 0001:00001F72  2767 0001:00001F74  2768 0001:00001F76
  2769 0001:00001F7C  2770 0001:00001F7E  2771 0001:00001F80  2773 0001:00001F81
  2774 0001:00001F83  2776 0001:00001F88  2777 0001:00001F8A  2778 0001:00001F8C
  2779 0001:00001F8D  2780 0001:00001F8F  2781 0001:00001F95  2782 0001:00001F96
  2783 0001:00001F98  2784 0001:00001F9A  2786 0001:00001F9C  2827 0001:00001FA0
  2828 0001:00001FA2  2829 0001:00001FB0  2832 0001:00001FB4  2833 0001:00001FB6
  2834 0001:00001FC4  2837 0001:00001FC8  2838 0001:00001FCD  2843 0001:0000200D
  3174 0001:00002010  3175 0001:0000201E  3177 0001:0000202D  3178 0001:0000202F
  3192 0001:00002030  3193 0001:00002032  3195 0001:00002040  3196 0001:0000204E
  3199 0001:0000205A  3200 0001:0000205C  3238 0001:00002064  3239 0001:0000206A
  3240 0001:0000206F  3282 0001:00002070  3283 0001:00002076  3284 0001:00002079
  3285 0001:00002082  3286 0001:0000208C  3287 0001:00002090  3288 0001:0000209D
  3289 0001:000020A2  3290 0001:000020AC  3291 0001:000020B6  3295 0001:000020BC
  3296 0001:000020BF  3297 0001:000020C2  3298 0001:000020C7  3302 0001:000020C8
  3303 0001:000020C9  3304 0001:000020CA  3305 0001:000020CB  3306 0001:000020D0
  3307 0001:000020D7  3308 0001:000020D8  3309 0001:000020D9  3310 0001:000020DA
  3311 0001:000020DC  3313 0001:000020DD  3314 0001:000020DF  3315 0001:000020E4
  3318 0001:000020E8  3319 0001:000020EB  3320 0001:000020F6  3350 0001:000020F8
  3351 0001:000020F9  3353 0001:000020FA  3354 0001:000020FC  3356 0001:00002100
  3357 0001:00002102  3358 0001:00002104  3362 0001:00002106  3363 0001:00002108
  3364 0001:0000210A  3365 0001:0000210C  3370 0001:0000210E  3371 0001:00002110
  3372 0001:00002111  3373 0001:00002113  3374 0001:00002115  3375 0001:00002117
  3378 0001:00002119  3380 0001:0000211B  3381 0001:0000211D  3382 0001:0000211E
  3383 0001:00002120  3386 0001:00002122  3387 0001:00002127  3392 0001:00002129
  3393 0001:0000212B  3395 0001:0000212D  3396 0001:0000212F  3398 0001:00002131
  3400 0001:00002133  3401 0001:00002134  3402 0001:00002135  3403 0001:00002138
  3570 0001:0000213C  3571 0001:0000213D  3572 0001:00002148  3573 0001:00002155
  3632 0001:0000215C  3633 0001:0000215E  3634 0001:00002160  3635 0001:00002163
  3636 0001:00002165  3637 0001:00002168  3639 0001:0000216A  3641 0001:00002171
  3642 0001:00002174  3643 0001:00002176  3644 0001:00002179  3645 0001:0000217B
  3646 0001:0000217E  3647 0001:00002181  3648 0001:00002183  3649 0001:00002186
  3651 0001:00002189  3653 0001:0000218C  3654 0001:0000218E  3656 0001:00002191
  3657 0001:00002192  3658 0001:00002193  3660 0001:00002194  3662 0001:000021B8
  3663 0001:000021B9  3664 0001:000021BB  3665 0001:000021BF  3666 0001:000021C3
  3667 0001:000021C5  3668 0001:000021C6  3669 0001:000021C8  3670 0001:000021CB
  3671 0001:000021CF  3673 0001:000021D0  3674 0001:000021D3  3675 0001:000021D6
  3676 0001:000021D9  3677 0001:000021DB  3678 0001:000021DD  3679 0001:000021DE
  3680 0001:000021E0  3682 0001:000021E1  3683 0001:000021E3  3684 0001:000021E5
  3685 0001:000021E7  3686 0001:000021E9  3687 0001:000021EB  3688 0001:000021EE
  3689 0001:000021F0  3690 0001:000021F3  3691 0001:000021F4  3692 0001:000021F7
  3693 0001:000021F9  3694 0001:000021FB  3695 0001:000021FE  3697 0001:00002200
  3698 0001:00002203  3699 0001:00002206  3700 0001:00002209  3701 0001:0000220B
  3702 0001:0000220C  3703 0001:0000220E  3705 0001:00002211  3707 0001:00002212
  3708 0001:00002215  3709 0001:00002217  3711 0001:00002218  3712 0001:0000221B
  3713 0001:0000221E  3715 0001:0000221F  3716 0001:00002222  3717 0001:00002225
  3718 0001:00002228  3719 0001:0000222B  3721 0001:0000222C  3722 0001:0000222E
  3723 0001:00002230  3725 0001:00002231  3726 0001:00002233  3727 0001:00002236
  3728 0001:00002238  3729 0001:0000223B  3731 0001:0000223C  3732 0001:0000223E
  3733 0001:00002242  3734 0001:00002244  3735 0001:00002248  3737 0001:00002249
  3738 0001:0000224B  3739 0001:0000224E  3740 0001:00002250  3741 0001:00002253
  3743 0001:00002254  3744 0001:00002256  3745 0001:00002258  4072 0001:0000225C
  4073 0001:0000225E  4074 0001:00002260  4075 0001:00002262  4076 0001:00002264
  4078 0001:00002266  4199 0001:00002268  4200 0001:0000226B  4201 0001:0000226E
  4202 0001:0000226F  4203 0001:00002270  4204 0001:00002271  4211 0001:00002274
  4212 0001:00002277  4213 0001:0000227A  4214 0001:0000227E  4215 0001:0000227F
  4216 0001:00002286  4217 0001:0000228A  4218 0001:0000228E  4219 0001:0000228F
  4220 0001:00002292  4221 0001:00002293  4222 0001:00002294  4223 0001:00002295
  4234 0001:00002298  4235 0001:0000229F  4236 0001:000022A1  4239 0001:000022A7
  4240 0001:000022AC  4241 0001:000022B1  4818 0001:000022B4  4819 0001:000022B5
  4821 0001:000022C7  4822 0001:000022CF  4824 0001:000022D3  4825 0001:000022E1
  4827 0001:000022E5  4829 0001:000022EA  4830 0001:000022F5  4834 0001:000022FC
  4835 0001:00002304  4912 0001:00002308  4913 0001:0000230C  4914 0001:0000230E
  4916 0001:0000231E  4917 0001:00002328  4918 0001:0000232F  4919 0001:00002333
  4920 0001:0000233A  4921 0001:0000233E  4924 0001:00002347  4925 0001:0000234F
  4926 0001:00002359  4986 0001:00002360  4987 0001:00002361  4991 0001:00002362
  4992 0001:00002364  4993 0001:00002366  4997 0001:00002368  4998 0001:0000236A
  4999 0001:0000236C  5000 0001:0000236E  5004 0001:0000236F  5005 0001:00002371
  5006 0001:00002373  5007 0001:00002375  5010 0001:00002377  5011 0001:00002379
  5012 0001:0000237B  5016 0001:0000237D  5017 0001:0000237E  5021 0001:00002380
  5024 0001:00002382  5025 0001:00002383  5026 0001:00002384  5031 0001:00002385
  5032 0001:00002387  5033 0001:00002389  5034 0001:0000238B  5035 0001:0000238D
  5036 0001:0000238F  5040 0001:00002390  5041 0001:0000239A  5144 0001:0000239C
  5145 0001:0000239D  5146 0001:0000239E  5147 0001:0000239F  5148 0001:000023A1
  5149 0001:000023A4  5152 0001:000023A6  5153 0001:000023A8  5154 0001:000023AA
  5155 0001:000023AC  5156 0001:000023AE  5157 0001:000023AF  5158 0001:000023B1
  5159 0001:000023B4  5160 0001:000023B7  5161 0001:000023B9  5162 0001:000023BB
  5163 0001:000023BE  5164 0001:000023C1  5165 0001:000023C2  5166 0001:000023C4
  5168 0001:000023C6  5169 0001:000023C9  5171 0001:000023CC  5172 0001:000023CD
  5173 0001:000023D0  5175 0001:000023D2  5176 0001:000023D4  5177 0001:000023D6
  5178 0001:000023D8  5179 0001:000023D9  5180 0001:000023DB  5181 0001:000023DE
  5182 0001:000023E1  5183 0001:000023E3  5184 0001:000023E4  5185 0001:000023E6
  5186 0001:000023E9  5187 0001:000023EC  5190 0001:000023EE  5191 0001:000023F0
  5194 0001:000023F3  5195 0001:000023F4  5196 0001:000023F6  5197 0001:000023F8
  5198 0001:000023FA  5199 0001:000023FC  5200 0001:000023FF  5201 0001:00002402
  5202 0001:00002404  5203 0001:00002406  5206 0001:00002408  5207 0001:00002409
  5208 0001:0000240A  5534 0001:0000240C  5535 0001:0000240F  5536 0001:00002411
  5537 0001:00002413  5538 0001:00002416  5539 0001:0000241A  5540 0001:0000241E
  5541 0001:00002422  5542 0001:00002425  5543 0001:00002427  5544 0001:0000242A
  5545 0001:0000242E  5546 0001:00002430  5547 0001:00002433  5548 0001:00002436
  5549 0001:00002438  5550 0001:0000243A  5551 0001:0000243C  5553 0001:0000243E
  5554 0001:00002441  5555 0001:00002445  5556 0001:00002448  5557 0001:0000244A
  5558 0001:0000244C  5559 0001:0000244D  5560 0001:0000244E  5561 0001:0000244F
  5563 0001:00002450  5564 0001:00002452  5565 0001:00002454  5566 0001:00002458
  5567 0001:0000245B  5568 0001:0000245D  5569 0001:00002464  5570 0001:00002466
  5571 0001:00002467  5573 0001:00002468  5574 0001:0000246C  5575 0001:00002470
  5576 0001:00002474  5577 0001:00002478  5578 0001:0000247C  5579 0001:00002480
  5580 0001:00002484  5581 0001:00002488  5582 0001:0000248C  5583 0001:00002490
  5584 0001:00002494  5585 0001:00002498  5586 0001:0000249C  5587 0001:000024A0
  5588 0001:000024A3  5590 0001:000024A4  6708 0001:000024A8  6709 0001:000024A9
  6710 0001:000024AA  6712 0001:000024AB  6713 0001:000024AD  6715 0001:000024AE
  6716 0001:000024B0  6718 0001:000024B2  6719 0001:000024B4  6720 0001:000024B6
  6723 0001:000024BB  6724 0001:000024BD  6725 0001:000024BE  6726 0001:000024C1
  6729 0001:000024C3  6730 0001:000024C5  6731 0001:000024C8  6732 0001:000024CA
  6733 0001:000024CD  6736 0001:000024CF  6737 0001:000024D2  6739 0001:000024D4
  6740 0001:000024D7  6741 0001:000024D9  6742 0001:000024DC  6743 0001:000024DE
  6744 0001:000024E1  6745 0001:000024E3  6746 0001:000024E5  6747 0001:000024E6
  6748 0001:000024E9  6749 0001:000024EB  6750 0001:000024EE  6751 0001:000024F0
  6752 0001:000024F2  6753 0001:000024F4  6756 0001:000024F6  6757 0001:000024F8
  6760 0001:000024FA  6761 0001:000024FD  6762 0001:00002500  6763 0001:00002502
  6764 0001:00002504  6765 0001:00002506  6766 0001:00002509  6767 0001:0000250B
  6769 0001:0000250D  6770 0001:0000250F  6772 0001:00002510  6773 0001:00002512
  6776 0001:00002514  6777 0001:00002516  6778 0001:00002518  6779 0001:0000251A
  6780 0001:0000251C  6783 0001:0000251E  6784 0001:0000251F  6787 0001:00002521
  6788 0001:00002523  6789 0001:00002525  6793 0001:00002527  6794 0001:00002528
  6795 0001:0000252A  6798 0001:0000252C  6800 0001:0000252E  6801 0001:00002530
  6802 0001:00002531  6805 0001:00002533  6807 0001:00002538  6808 0001:0000253A
  6809 0001:0000253B  6810 0001:0000253D  6813 0001:0000253F  6814 0001:00002542
  6815 0001:00002544  6817 0001:00002547  6818 0001:0000254A  6819 0001:0000254D
  6820 0001:0000254F  6821 0001:00002552  6822 0001:00002555  6823 0001:00002557
  6825 0001:0000255A  6826 0001:0000255C  6827 0001:0000255E  6828 0001:00002561
  6830 0001:00002563  6831 0001:00002565  6833 0001:00002566  6834 0001:00002568
  6836 0001:0000256A  6837 0001:0000256C  6838 0001:0000256E  6841 0001:00002570
  6842 0001:00002571  6845 0001:00002573  6846 0001:00002575  6847 0001:00002576
  6848 0001:00002577  6849 0001:00002578  7361 0001:0000257C  7362 0001:0000257D
  7364 0001:0000257E  7366 0001:00002580  7367 0001:00002582  7368 0001:00002584
  7370 0001:00002586  7371 0001:00002588  7373 0001:0000258A  7375 0001:0000258C
  7376 0001:0000258D  7377 0001:0000258F  7378 0001:00002591  7379 0001:00002594
  7380 0001:00002596  7381 0001:00002598  7384 0001:0000259B  7385 0001:0000259C
  7386 0001:0000259D  7545 0001:000025A0  7546 0001:000025A2  7547 0001:000025A3
  7548 0001:000025A5  7549 0001:000025A6  7550 0001:000025A8  7551 0001:000025AA
  7583 0001:000025AC  7584 0001:000025AE  7585 0001:000025B0  7586 0001:000025B1
  7587 0001:000025B3  7588 0001:000025B4  7589 0001:000025B6  7590 0001:000025B8
  8286 0001:000025BC  8287 0001:000025C1  8300 0001:000025C4  8307 0001:000025C5
  8309 0001:000025C7  8310 0001:000025C9  8311 0001:000025CB  8312 0001:000025D1
  8313 0001:000025D6  8314 0001:000025DC  8315 0001:000025DE  8316 0001:000025E1
  8317 0001:000025E4  8319 0001:000025EB  8321 0001:000025ED  8322 0001:000025F0
  8324 0001:000025F2  8325 0001:000025F4  8326 0001:000025F7  8327 0001:000025F9
  8328 0001:000025FC  8329 0001:00002603  8333 0001:00002605  8334 0001:00002608
  8335 0001:0000260A  8336 0001:0000260D  8337 0001:00002614  8338 0001:00002616
  8341 0001:00002618  8342 0001:0000261A  8343 0001:0000261F  8344 0001:00002621
  8345 0001:00002623  8346 0001:00002626  8347 0001:00002629  8348 0001:00002630
  8350 0001:00002632  8351 0001:00002635  8353 0001:00002637  8354 0001:00002639
  8355 0001:0000263C  8356 0001:0000263E  8357 0001:00002641  8358 0001:00002648
  8362 0001:0000264A  8363 0001:0000264D  8364 0001:0000264F  8365 0001:00002652
  8366 0001:00002659  8368 0001:0000265B  8371 0001:0000265D  8372 0001:0000265F
  8373 0001:00002665  8376 0001:00002667  8377 0001:00002669  8380 0001:0000266B
  8381 0001:0000266C  8383 0001:0000266D  8384 0001:00002677  8385 0001:00002681
  8386 0001:0000268B  8387 0001:00002695  8388 0001:0000269F  8389 0001:000026A9
  8390 0001:000026B3  8391 0001:000026BD  8392 0001:000026C7  8393 0001:000026D1
  8394 0001:000026DB  8395 0001:000026E5  8396 0001:000026EF  8397 0001:000026F9
  8398 0001:00002703  8399 0001:0000270D  8400 0001:00002717  8401 0001:00002721
  8402 0001:0000272B  8403 0001:00002735  8404 0001:0000273F  8405 0001:00002749
  8406 0001:00002753  8407 0001:0000275D  8408 0001:00002767  8409 0001:00002771
  8410 0001:0000277B  8411 0001:00002785  8412 0001:0000278F  8413 0001:00002799
  8414 0001:000027A3  8415 0001:000027AD  8417 0001:000027B7  8418 0001:000027C1
  8419 0001:000027CB  8420 0001:000027D5  8421 0001:000027DF  8422 0001:000027E9
  8423 0001:000027F3  8424 0001:000027FD  8425 0001:00002807  8426 0001:00002811
  8427 0001:0000281B  8428 0001:00002825  8429 0001:0000282F  8430 0001:00002839
  8431 0001:00002843  8433 0001:0000284D  8434 0001:00002857  8435 0001:00002861
  8436 0001:0000286B  8437 0001:00002875  8438 0001:0000287F  8439 0001:00002889
  8440 0001:00002893  8441 0001:0000289D  8442 0001:000028A7  8659 0001:000028A8
  8664 0001:000028B0  8665 0001:000028B1  8666 0001:000028B3  8668 0001:000028BF
  8669 0001:000028CB  8670 0001:000028D9  8672 0001:000028DB  8687 0001:000028E0
  8688 0001:000028E6  8690 0001:000028F0  8691 0001:0000290B  8692 0001:00002919
  8693 0001:00002920  8695 0001:00002947  8697 0001:00002958  8698 0001:00002974
  8703 0001:000029A4  8704 0001:000029A6  8710 0001:000029A7  8712 0001:000029AD
  8716 0001:000029B0  8717 0001:000029B2  8718 0001:000029B7  8728 0001:000029B8
  8729 0001:000029BC  8740 0001:000029C0  8741 0001:000029C1  8742 0001:000029C2
  8743 0001:000029C4  8744 0001:000029C7  8745 0001:000029C9  8746 0001:000029CB
  8747 0001:000029CC  8748 0001:000029CE  8749 0001:000029CF  8750 0001:000029D0
  8814 0001:000029D4  8815 0001:000029D7  8816 0001:000029D9  8817 0001:000029DB
  8819 0001:000029DD  8823 0001:000029E0  8824 0001:000029E3  8825 0001:000029F8
  8828 0001:000029FC  8829 0001:000029FF  8830 0001:00002A06  8831 0001:00002A0D
  8835 0001:00002A10  8836 0001:00002A15  8839 0001:00002A18  8840 0001:00002A24
  8843 0001:00002A38  8844 0001:00002A3D  8848 0001:00002A48  8849 0001:00002A4C
  8850 0001:00002A53  8878 0001:00002A54  8879 0001:00002A55  8880 0001:00002A56
  8881 0001:00002A57  8882 0001:00002A59  8883 0001:00002A5B  8884 0001:00002A5C
  8885 0001:00002A5F  8886 0001:00002A61  8887 0001:00002A62  8888 0001:00002A65
  8889 0001:00002A66  8890 0001:00002A68  8891 0001:00002A69  8892 0001:00002A6C
  8893 0001:00002A6E  8894 0001:00002A70  8895 0001:00002A72  8896 0001:00002A75
  8897 0001:00002A77  8898 0001:00002A79  8899 0001:00002A7A  8900 0001:00002A7D
  8901 0001:00002A7F  8902 0001:00002A81  8903 0001:00002A83  8904 0001:00002A85
  8905 0001:00002A87  8906 0001:00002A89  8907 0001:00002A8A  8908 0001:00002A8C
  8909 0001:00002A8F  8910 0001:00002A92  8911 0001:00002A94  8912 0001:00002A96
  8913 0001:00002A99  8914 0001:00002A9C  8915 0001:00002A9F  8916 0001:00002AA0
  8917 0001:00002AA2  8918 0001:00002AA4  8919 0001:00002AA6  8920 0001:00002AA7
  8921 0001:00002AA8  8922 0001:00002AA9  8943 0001:00002AAC  8944 0001:00002AAD
  8945 0001:00002AAE  8946 0001:00002AB0  8948 0001:00002AB2  8949 0001:00002AB4
  8950 0001:00002AB7  8951 0001:00002ABA  8952 0001:00002ABC  8953 0001:00002ABE
  8954 0001:00002AC3  8956 0001:00002AC5  8957 0001:00002AC7  8959 0001:00002AC9
  8960 0001:00002ACA  8961 0001:00002ACB  8986 0001:00002ACC  8987 0001:00002ACE
  8988 0001:00002AD4  8989 0001:00002AD6  8990 0001:00002ADC  8993 0001:00002ADE
  8994 0001:00002AE1  8995 0001:00002AE3  8998 0001:00002AE5  9001 0001:00002AE7
  9002 0001:00002AED  9003 0001:00002AEF  9004 0001:00002AF1  9005 0001:00002AF3
  9006 0001:00002AF8  9012 0001:00002AFC  9013 0001:00002B1F  9014 0001:00002B23
  9015 0001:00002B2F  9017 0001:00002B33  9019 0001:00002B3A  9020 0001:00002B3E
  9023 0001:00002B4D  9025 0001:00002B64  9026 0001:00002B6A  9053 0001:00002B90
  9054 0001:00002B91  9055 0001:00002B92  9056 0001:00002B94  9057 0001:00002B97
  9058 0001:00002B99  9059 0001:00002B9B  9060 0001:00002B9D  9061 0001:00002BA0
  9062 0001:00002BA2  9063 0001:00002BA4  9064 0001:00002BA6  9065 0001:00002BA9
  9066 0001:00002BAC  9067 0001:00002BAE  9068 0001:00002BB1  9069 0001:00002BB4
  9070 0001:00002BB6  9071 0001:00002BB9  9072 0001:00002BBC  9073 0001:00002BBE
  9074 0001:00002BC1  9075 0001:00002BC2  9076 0001:00002BC4  9077 0001:00002BC7
  9078 0001:00002BC9  9079 0001:00002BCB  9080 0001:00002BCD  9081 0001:00002BCF
  9082 0001:00002BD1  9083 0001:00002BD2  9084 0001:00002BD3  9093 0001:00002BD4
  9094 0001:00002BDA  9095 0001:00002BF2  9143 0001:00002BF8  9144 0001:00002BF9
  9145 0001:00002BFA  9147 0001:00002BFC  9149 0001:00002BFE  9150 0001:00002C01
  9151 0001:00002C03  9152 0001:00002C05  9153 0001:00002C08  9154 0001:00002C09
  9155 0001:00002C0C  9156 0001:00002C0F  9157 0001:00002C11  9159 0001:00002C12
  9160 0001:00002C15  9161 0001:00002C17  9162 0001:00002C19  9165 0001:00002C1B
  9166 0001:00002C1C  9167 0001:00002C1E  9168 0001:00002C20  9171 0001:00002C24
  9172 0001:00002C25  9176 0001:00002C28  9177 0001:00002C29  9178 0001:00002C2A
  9179 0001:00002C2C  9180 0001:00002C31  9181 0001:00002C32  9182 0001:00002C33
  9183 0001:00002C35  9185 0001:00002C37  9186 0001:00002C38  9187 0001:00002C3D
  9248 0001:00002C40  9250 0001:00002C42  9252 0001:00002C44  9253 0001:00002C46
  9254 0001:00002C48  9255 0001:00002C4B  9256 0001:00002C4D  9257 0001:00002C4F
  9259 0001:00002C50  9261 0001:00002C52  9267 0001:00002C54  9268 0001:00002C59
  9274 0001:00002C5C  9275 0001:00002C61  9280 0001:00002C64  9285 0001:00002C68
  9289 0001:00002C6C  9293 0001:00002C70  9294 0001:00002C71  9295 0001:00002C74
  9296 0001:00002C77  9297 0001:00002C79  9298 0001:00002C7E  9299 0001:00002C80
  9300 0001:00002C81  9301 0001:00002C83  9302 0001:00002C88  9303 0001:00002C89
  9304 0001:00002C8B  9305 0001:00002C8D  9306 0001:00002C8E  9309 0001:00002C90
  9310 0001:00002C91  9311 0001:00002C93  9312 0001:00002C96  9484 0001:00002C98
  9485 0001:00002C99  9486 0001:00002C9A  9487 0001:00002C9B  9488 0001:00002C9D
  9489 0001:00002C9F  9492 0001:00002CA2  9493 0001:00002CA4  9494 0001:00002CA8
  9495 0001:00002CAB  9496 0001:00002CAD  9497 0001:00002CB0  9498 0001:00002CB7
  9499 0001:00002CBA  9501 0001:00002CBD  9502 0001:00002CBE  9503 0001:00002CBF
  9504 0001:00002CC0  9508 0001:00002CC1  9512 0001:00002CC6  9513 0001:00002CCA
  9514 0001:00002CCD  9515 0001:00002CCF  9516 0001:00002CD1  9517 0001:00002CD3
  9518 0001:00002CD5  9519 0001:00002CD6  9520 0001:00002CD9  9521 0001:00002CDA
  9524 0001:00002CDF  9526 0001:00002CE4  9530 0001:00002CE8  9531 0001:00002CED
  9535 0001:00002CF0  9536 0001:00002CFA  9537 0001:00002D08  9538 0001:00002D10
  9540 0001:00002D24  9541 0001:00002D2E  9543 0001:00002D38  9558 0001:00002D40
  9559 0001:00002D42  9560 0001:00002D44  9562 0001:00002D45  9563 0001:00002D46
  9564 0001:00002D47  9565 0001:00002D49  9566 0001:00002D4C  9567 0001:00002D4D
  9568 0001:00002D4E  9673 0001:00002D50  9674 0001:00002D57  9675 0001:00002D59
  9676 0001:00002D5B  9677 0001:00002D5D  9678 0001:00002D5F  9679 0001:00002D64
  9682 0001:00002D6A  9688 0001:00002D6C  9689 0001:00002D73  9690 0001:00002D75
  9691 0001:00002D76  9692 0001:00002D77  9693 0001:00002D78  9694 0001:00002D79
  9695 0001:00002D7B  9696 0001:00002D7D  9697 0001:00002D82  9698 0001:00002D88
  9699 0001:00002D8B  9701 0001:00002D8C  9724 0001:00002D90  9725 0001:00002D91
  9726 0001:00002D93  9727 0001:00002D95  9728 0001:00002D9A  9729 0001:00002DA0
  9730 0001:00002DA3  9732 0001:00002DA4  9748 0001:00002DA8  9749 0001:00002DAF
  9750 0001:00002DB1  9751 0001:00002DB2  9752 0001:00002DB5  9755 0001:00002DBA
  9760 0001:00002DBC  9761 0001:00002DC3  9762 0001:00002DC5  9763 0001:00002DC6
  9764 0001:00002DC7  9766 0001:00002DCC  9770 0001:00002DD0  9771 0001:00002DD2
  9772 0001:00002DD4  9773 0001:00002DD7  9774 0001:00002DDA  9775 0001:00002DDC
  9776 0001:00002DDF  9777 0001:00002DE1  9778 0001:00002DE4  9779 0001:00002DE5
  9780 0001:00002DE6  9782 0001:00002DE8  9784 0001:00002DEB  9786 0001:00002DED
  9803 0001:00002DF0  9804 0001:00002DF7  9805 0001:00002DF9  9806 0001:00002DFA
  9807 0001:00002DFB  9808 0001:00002DFC  9809 0001:00002E01  9810 0001:00002E02
  9811 0001:00002E03  9812 0001:00002E05  9813 0001:00002E07  9814 0001:00002E0C
  9815 0001:00002E12  9816 0001:00002E13  9817 0001:00002E14  9818 0001:00002E15
  9821 0001:00002E16  9829 0001:00002E18  9830 0001:00002E1F  9831 0001:00002E21
  9832 0001:00002E22  9833 0001:00002E23  9834 0001:00002E25  9835 0001:00002E27
  9836 0001:00002E2C  9837 0001:00002E32  9839 0001:00002E33  9863 0001:00002E34
  9864 0001:00002E35  9865 0001:00002E36  9866 0001:00002E3D  9867 0001:00002E3F
  9868 0001:00002E40  9869 0001:00002E42  9870 0001:00002E44  9871 0001:00002E49
  9873 0001:00002E4F  9874 0001:00002E50  9876 0001:00002E51  9967 0001:00002E54
  9968 0001:00002E58  9969 0001:00002E5F  9971 0001:00002E65  9972 0001:00002E6B
  9973 0001:00002E6E  9974 0001:00002E71  9975 0001:00002E73  9976 0001:00002E74
  9977 0001:00002E79  9978 0001:00002E7F  9979 0001:00002E81  9980 0001:00002E87
  9981 0001:00002E89  9982 0001:00002E8B  9983 0001:00002E91  9984 0001:00002E95
  9985 0001:00002E99  9986 0001:00002E9F  9987 0001:00002EA1  9989 0001:00002EA6
  9990 0001:00002EAD  9991 0001:00002EAF  9992 0001:00002EB6  9993 0001:00002EB8
  9994 0001:00002EBC  9995 0001:00002EBD  9996 0001:00002EBE  9997 0001:00002EC3
  9998 0001:00002EC6  9999 0001:00002EC7 10000 0001:00002ECD 10001 0001:00002ECF
 10002 0001:00002ED3 10003 0001:00002ED6 10006 0001:00002ED8 10007 0001:00002EDA
 10008 0001:00002EDE 10012 0001:00002EE1 10013 0001:00002EE8 10014 0001:00002EEA
 10015 0001:00002EF1 10016 0001:00002EF3 10017 0001:00002EF4 10018 0001:00002EF8
 10019 0001:00002EF9 10020 0001:00002EFA 10021 0001:00002EFB 10022 0001:00002F00
 10023 0001:00002F03 10024 0001:00002F04 10025 0001:00002F05 10026 0001:00002F06
 10030 0001:00002F08 10032 0001:00002F0C 10033 0001:00002F0D 10034 0001:00002F0F
 10035 0001:00002F10 10036 0001:00002F11 10038 0001:00002F12 10039 0001:00002F15
 10040 0001:00002F16 10041 0001:00002F17 10042 0001:00002F18 10044 0001:00002F19
 10046 0001:00002F1D 10047 0001:00002F1F 10048 0001:00002F20 10049 0001:00002F25
 10050 0001:00002F26 10053 0001:00002F2C 10057 0001:00002F30 10058 0001:00002F35
 10059 0001:00002F3B 10061 0001:00002F41 10062 0001:00002F44 10063 0001:00002F47
 10065 0001:00002F4E 10066 0001:00002F51 10067 0001:00002F56 10070 0001:00002F58
 10076 0001:00002F5D 10077 0001:00002F62 10078 0001:00002F68 10079 0001:00002F6A
 10081 0001:00002F70 10082 0001:00002F73 10085 0001:00002F78 10087 0001:00002F7D
 10285 0001:00002F80 10286 0001:00002F84 10287 0001:00002F8B 10289 0001:00002F91
 10290 0001:00002F97 10291 0001:00002F99 10292 0001:00002F9A 10293 0001:00002F9F
 10294 0001:00002FA5 10295 0001:00002FA7 10296 0001:00002FAD 10297 0001:00002FAF
 10298 0001:00002FB1 10299 0001:00002FB3 10302 0001:00002FB8 10303 0001:00002FBB
 10307 0001:00002FBD 10309 0001:00002FC1 10310 0001:00002FC2 10311 0001:00002FC3
 10312 0001:00002FC4 10314 0001:00002FC5 10315 0001:00002FC8 10316 0001:00002FCB
 10317 0001:00002FCE 10320 0001:00002FD0 10321 0001:00002FD2 10322 0001:00002FD4
 10323 0001:00002FD6 10324 0001:00002FD8 10327 0001:00002FDA 10329 0001:00002FDC
 10330 0001:00002FDE 10331 0001:00002FE0 10333 0001:00002FE2 10334 0001:00002FE5
 10335 0001:00002FE8 10337 0001:00002FEA 10338 0001:00002FED 10340 0001:00002FF0
 10341 0001:00002FF2 10342 0001:00002FF4 10343 0001:00002FF6 10345 0001:00002FF8
 10346 0001:00002FF9 10347 0001:00002FFA 10348 0001:00002FFF 10351 0001:00003001
 10352 0001:00003004 10353 0001:00003006 10354 0001:00003008 10356 0001:0000300A
 10357 0001:0000300D 10358 0001:0000300E 10360 0001:00003010 10361 0001:00003011
 10362 0001:00003012 10363 0001:00003013 10364 0001:00003014 10367 0001:00003019
 10368 0001:0000301D 10369 0001:00003023 10370 0001:00003026 10371 0001:00003029
 10372 0001:0000302B 10373 0001:00003031 10374 0001:00003035 10376 0001:0000303A
 10377 0001:00003041 10378 0001:00003043 10379 0001:0000304A 10380 0001:0000304C
 10381 0001:00003050 10382 0001:00003051 10383 0001:00003052 10384 0001:00003057
 10385 0001:0000305A 10386 0001:0000305B 10389 0001:00003061 10390 0001:00003063
 10391 0001:00003067 10392 0001:0000306A 10396 0001:0000306C 10397 0001:00003073
 10398 0001:00003075 10399 0001:0000307C 10400 0001:0000307E 10401 0001:0000307F
 10402 0001:00003083 10403 0001:00003084 10404 0001:00003085 10405 0001:00003086
 10406 0001:0000308B 10407 0001:0000308E 10408 0001:0000308F 10409 0001:00003090
 10410 0001:00003091 10414 0001:00003093 10415 0001:00003095 10416 0001:00003098
 10417 0001:00003099 10418 0001:0000309A 10419 0001:0000309B 10421 0001:0000309C
 10422 0001:000030A0 10424 0001:000030A4 10426 0001:000030A5 10427 0001:000030A7
 10428 0001:000030A8 10429 0001:000030AD 10430 0001:000030AE 10433 0001:000030B4
 10435 0001:000030B5 10439 0001:000030B9 10440 0001:000030BE 10441 0001:000030C4
 10443 0001:000030CA 10444 0001:000030CD 10445 0001:000030D4 10446 0001:000030D8
 10447 0001:000030DD 10450 0001:000030E0 10456 0001:000030E5 10457 0001:000030EA
 10458 0001:000030F0 10459 0001:000030F2 10461 0001:000030F8 10462 0001:000030FB
 10464 0001:00003100 10465 0001:00003105 10529 0001:00003108 10530 0001:0000310C
 10531 0001:00003113 10533 0001:00003119 10534 0001:0000311A 10535 0001:0000311C
 10536 0001:0000311D 10537 0001:0000311E 10541 0001:0000311F 10542 0001:00003120
 10543 0001:00003125 10544 0001:00003128 10546 0001:0000312B 10547 0001:0000312E
 10548 0001:00003131 10549 0001:00003134 10550 0001:00003135 10551 0001:00003136
 10552 0001:00003137 10554 0001:00003138 10558 0001:0000313C 10559 0001:00003141
 10560 0001:00003147 10562 0001:0000314D 10563 0001:00003150 10564 0001:00003153
 10565 0001:0000315A 10566 0001:0000315D 10567 0001:00003162 10569 0001:00003164
 10570 0001:00003169 10571 0001:0000316F 10572 0001:00003171 10573 0001:00003177
 10577 0001:0000317A 10578 0001:0000317C 10579 0001:0000317D 10580 0001:0000317E
 10581 0001:0000317F 10583 0001:00003182 10584 0001:00003183 10585 0001:00003184
 10586 0001:00003185 10587 0001:00003186 10590 0001:00003188 10597 0001:0000318D
 10598 0001:00003192 10599 0001:00003198 10600 0001:0000319A 10602 0001:000031A0
 10603 0001:000031A3 10606 0001:000031A8 10608 0001:000031AD 10619 0001:000031B0
 10620 0001:000031B4 10621 0001:000031B8 10622 0001:000031BF 10623 0001:000031C1
 10624 0001:000031C4 10626 0001:000031CB 10627 0001:000031CC 10628 0001:000031CD
 10629 0001:000031CE 10631 0001:000031CF 10632 0001:000031D2 10633 0001:000031D5
 10634 0001:000031DA 10636 0001:000031DC 10637 0001:000031DD 10638 0001:000031DE
 10639 0001:000031DF 10642 0001:000031E0 10643 0001:000031E5 10831 0001:000031E8
 10832 0001:000031EA 10833 0001:000031EC 10834 0001:000031F1 10836 0001:000031F6
 10838 0001:000031F7 10839 0001:000031F8 10840 0001:000031F9 10841 0001:000031FA
 10842 0001:000031FB 10843 0001:000031FC 10844 0001:000031FD 10846 0001:000031FE
 10847 0001:000031FF 10848 0001:00003201 10849 0001:00003203 10850 0001:00003208
 10851 0001:00003209 10853 0001:0000320F 10915 0001:00003210 10916 0001:00003214
 10920 0001:0000321B 10921 0001:00003220 10922 0001:00003226 10923 0001:00003228
 10927 0001:0000322E 10928 0001:00003231 10929 0001:00003235 10930 0001:0000323B
 10931 0001:0000323D 10932 0001:00003240 10933 0001:00003245 10937 0001:0000324A
 10938 0001:0000324C 10939 0001:0000324F 10940 0001:00003252 10941 0001:00003253
 10942 0001:00003255 10944 0001:00003257 10945 0001:00003258 10946 0001:00003259
 10947 0001:0000325A 10949 0001:0000325B 10951 0001:00003260 11035 0001:00003264
 11036 0001:00003269 11037 0001:0000326F 11038 0001:00003271 11042 0001:00003277
 11043 0001:0000327A 11045 0001:0000327F 11046 0001:00003280 11047 0001:00003284
 11048 0001:00003286 11049 0001:00003287 11050 0001:0000328A 11051 0001:0000328B
 11052 0001:0000328C 11053 0001:00003291 11055 0001:00003293 11061 0001:00003294
 11062 0001:00003296 11063 0001:0000329A 11064 0001:0000329E 11065 0001:000032A1
 11066 0001:000032A4 11067 0001:000032A6 11069 0001:000032A9 11095 0001:000032AC
 11096 0001:000032B2 11097 0001:0000330D 11098 0001:00003311 11099 0001:00003315
 11102 0001:00003319 11103 0001:0000331D 11104 0001:00003321 11106 0001:00003325
 11107 0001:00003329 11108 0001:0000332D 11109 0001:00003331 11110 0001:00003335
 11111 0001:00003339 11113 0001:0000333B 11114 0001:00003346 11118 0001:0000334C
 11120 0001:00003350 11121 0001:00003357 11123 0001:0000335D 11124 0001:00003364
 11125 0001:00003366 11126 0001:0000336A 11127 0001:0000336B 11128 0001:00003370
 11129 0001:00003373 11134 0001:00003375 11135 0001:00003379 11136 0001:0000337A
 11137 0001:0000337F 11139 0001:00003383 11140 0001:00003385 11141 0001:00003386
 11142 0001:0000338B 11143 0001:0000338C 11146 0001:00003392 11147 0001:00003396
 11148 0001:0000339C 11149 0001:0000339F 11150 0001:000033A2 11152 0001:000033A4
 11153 0001:000033AA 11154 0001:000033AC 11155 0001:000033B2 11156 0001:000033B4
 11157 0001:000033B6 11158 0001:000033B8 11159 0001:000033BE 11163 0001:000033C1
 11164 0001:000033C6 11165 0001:000033CC 11166 0001:000033CE 11167 0001:000033D0
 11170 0001:000033D2 11171 0001:000033D6 11172 0001:000033DB 11173 0001:000033DE
 11174 0001:000033E1 11177 0001:000033E6 11178 0001:000033E8 11182 0001:000033EC
 11183 0001:000033EE 11184 0001:000033F1 11185 0001:000033F4 11187 0001:000033F7
 11192 0001:000033F9 11194 0001:00003400 11198 0001:00003403 11200 0001:00003408
 11205 0001:0000340C 11209 0001:0000340E 11211 0001:00003413 11212 0001:00003415
 11213 0001:00003417 11214 0001:0000341A 11215 0001:0000341C 11216 0001:0000341E
 11217 0001:00003420 11218 0001:00003423 11221 0001:00003424 11223 0001:00003426
 11224 0001:00003429 11225 0001:0000342B 11226 0001:0000342D 11228 0001:0000342F
 11229 0001:00003431 11231 0001:00003433 11253 0001:00003434 11254 0001:0000343A
 11256 0001:00003443 11257 0001:00003449 11261 0001:0000344C 11262 0001:0000345A
 11264 0001:0000345E 11265 0001:0000345F 11266 0001:00003465 11267 0001:00003469
 11273 0001:0000346D 11262 0001:0000346F 11278 0001:00003482 11279 0001:00003487
 11281 0001:00003491 11393 0001:00003498 11394 0001:0000349F 11396 0001:000034A8
 11397 0001:000034AA 11398 0001:000034AC 11402 0001:000034B2 11403 0001:000034C0
 11405 0001:000034C4 11406 0001:000034CA 11407 0001:000034CB 11408 0001:000034D1
 11414 0001:000034D5 11403 0001:000034D7 11419 0001:000034EA 11420 0001:000034EF
 11422 0001:000034F9 11494 0001:00003500 11495 0001:00003501 11496 0001:00003502
 11500 0001:00003503 11501 0001:00003508 11502 0001:0000350B 11503 0001:00003510
 11507 0001:00003512 11508 0001:00003518 11509 0001:0000351E 11510 0001:00003524
 11511 0001:0000352A 11512 0001:0000352F 11513 0001:00003535 11514 0001:00003538
 11515 0001:0000353E 11516 0001:00003540 11517 0001:00003544 11518 0001:00003546
 11520 0001:00003548 11522 0001:0000354E 11523 0001:00003553 11524 0001:00003558
 11525 0001:0000355D 11527 0001:00003562 11529 0001:00003567 11530 0001:0000356A
 11531 0001:0000356B 11532 0001:00003570 11536 0001:00003571 11537 0001:00003572
 11538 0001:00003574 11539 0001:0000357A 11540 0001:0000357C 11541 0001:0000357E
 11542 0001:00003580 11547 0001:00003583 11548 0001:00003584 11549 0001:00003588
 11550 0001:0000358A 11551 0001:0000358C 11552 0001:0000358F 11553 0001:00003592
 11556 0001:00003594 11557 0001:00003595 11558 0001:00003598 11559 0001:0000359A
 11560 0001:0000359C 11566 0001:0000359F 11567 0001:000035A6 11568 0001:000035A8
 11569 0001:000035AF 11573 0001:000035B5 11574 0001:000035B8 11575 0001:000035B9
 11576 0001:000035BF 11577 0001:000035C4 11578 0001:000035C7 11678 0001:000035C8
 11679 0001:000035C9 11681 0001:000035CB 11682 0001:000035CC 11683 0001:000035CD
 11684 0001:000035D0 11686 0001:000035D4 11687 0001:000035D7 11688 0001:000035D9
 11689 0001:000035DC 11690 0001:000035DE 11691 0001:000035E3 11692 0001:000035E6
 11693 0001:000035E7 11695 0001:000035E9 11696 0001:000035EA 11698 0001:000035EB
 11700 0001:000035EC 11718 0001:000035F0 11719 0001:000035F1 11721 0001:000035F3
 11722 0001:000035F4 11723 0001:000035F5 11724 0001:000035F8 11736 0001:000035FC
 11737 0001:000035FF 11738 0001:00003601 11739 0001:00003604 11740 0001:00003607
 11741 0001:0000360A 11742 0001:0000360D 11743 0001:0000360E 11747 0001:00003610
 11748 0001:00003611 11750 0001:00003612 11752 0001:00003613 11795 0001:00003614
 11796 0001:0000361C 11797 0001:0000361E 11799 0001:00003624 11800 0001:00003637
 11801 0001:00003643 11802 0001:00003644 11803 0001:00003648 11804 0001:0000364A
 11806 0001:00003650 11807 0001:00003662 11808 0001:0000366F 11809 0001:00003670
 11810 0001:00003674 11826 0001:00003678 11827 0001:0000367A 11828 0001:00003680
 11829 0001:00003682 11830 0001:00003684 11837 0001:00003685 11840 0001:0000368A
 11841 0001:0000368D 11842 0001:00003690 11843 0001:00003693 11845 0001:00003696
 11846 0001:00003698 11847 0001:0000369D 11848 0001:0000369F 11849 0001:000036A0
 11851 0001:000036A1 11853 0001:000036A2 11858 0001:000036A5 11864 0001:000036A8
 11865 0001:000036A9 11869 0001:000036B2 11870 0001:000036C6 11872 0001:000036D1
 11873 0001:000036EC 11875 0001:00003709 11876 0001:00003712 11891 0001:00003725
 11899 0001:00003734 11913 0001:00003742 11914 0001:00003748 11916 0001:0000374D
 11917 0001:00003751 11918 0001:00003755 11914 0001:00003757 11923 0001:0000375C
 11925 0001:00003765 11926 0001:0000376A 11927 0001:0000376F 11938 0001:00003776
 11939 0001:00003785 11943 0001:0000378A 11945 0001:0000378F 11947 0001:0000379E
 11950 0001:000037A5 11954 0001:000037AC 11955 0001:000037BB 11960 0001:000037C1
 11964 0001:000037C6 11965 0001:000037CC 11968 0001:000037CF 11969 0001:000037D5
 11971 0001:000037DA 11978 0001:000037DF 11979 0001:000037E8 11980 0001:000037EE
 11983 0001:000037F9 11933 0001:00003806 11985 0001:0000380B 11989 0001:00003810
 11990 0001:00003815 11991 0001:0000381A 12023 0001:0000381C 12025 0001:00003822
 12026 0001:00003827 12048 0001:00003828 12059 0001:00003829 12061 0001:00003830
 12062 0001:00003832 12063 0001:00003834 12064 0001:00003839 12066 0001:0000383B
 12071 0001:0000383F 12074 0001:00003845 12075 0001:00003846 12232 0001:00003848
 12233 0001:0000384A 12234 0001:0000384C 12235 0001:0000384E 12236 0001:00003854
 12237 0001:00003857 12238 0001:00003858 12239 0001:0000385A 12240 0001:0000385E
 12241 0001:00003860 12242 0001:00003861 12243 0001:00003864 12244 0001:00003869
 12246 0001:0000386A 12267 0001:0000386C 12268 0001:0000386D 12269 0001:0000386E
 12270 0001:00003870 12273 0001:00003872 12274 0001:00003874 12275 0001:00003876
 12276 0001:00003878 12277 0001:0000387E 12278 0001:00003881 12279 0001:00003882
 12280 0001:00003884 12281 0001:00003888 12282 0001:0000388A 12283 0001:0000388D
 12285 0001:00003892 12286 0001:00003895 12287 0001:00003896 12289 0001:00003898
 12290 0001:00003899 12291 0001:0000389A 12339 0001:0000389C 12340 0001:0000389E
 12342 0001:000038A0 12343 0001:000038A3 12344 0001:000038A4 12346 0001:000038A6
 12347 0001:000038A7 12348 0001:000038A8 12349 0001:000038AB 12350 0001:000038B0
 12351 0001:000038B2 12352 0001:000038B3 12353 0001:000038B4 12354 0001:000038B7
 12355 0001:000038BC 12356 0001:000038BD 12357 0001:000038BE 12360 0001:000038C0
 12362 0001:000038C4 12363 0001:000038C6 12364 0001:000038C8 12365 0001:000038CA
 12366 0001:000038CD 12367 0001:000038CE 12368 0001:000038D0 12369 0001:000038D4
 12370 0001:000038D6 12371 0001:000038D9 12373 0001:000038DE 12392 0001:000038E0
 12393 0001:000038E2 12397 0001:000038E4 12398 0001:000038E7 12399 0001:000038E8
 12400 0001:000038EA 12405 0001:000038EE 12406 0001:000038F0 12407 0001:000038F2
 12408 0001:000038F4 12409 0001:000038F7 12410 0001:000038F8 12411 0001:000038FA
 12412 0001:000038FE 12413 0001:00003900 12414 0001:00003903 12416 0001:00003908
 12440 0001:0000390C 12441 0001:0000390E 12442 0001:00003910 12443 0001:00003911
 12444 0001:00003914 12445 0001:00003917 12446 0001:00003918 12447 0001:0000391D
 12448 0001:0000391E 12449 0001:00003925 12450 0001:00003928 12451 0001:00003929
 12452 0001:0000392C 12453 0001:00003933 12455 0001:00003934 12456 0001:00003936
 12465 0001:00003938 12466 0001:00003939 12467 0001:0000393A 12469 0001:0000393B
 12470 0001:0000393D 12471 0001:0000393F 12475 0001:00003941 12477 0001:00003943
 12478 0001:00003948 12479 0001:0000394A 12481 0001:0000394C 12482 0001:0000394E
 12484 0001:00003950 12485 0001:00003952 12486 0001:00003954 12491 0001:00003959
 12492 0001:0000395B 12493 0001:00003960 12495 0001:00003962 12496 0001:00003963
 12497 0001:00003964 12498 0001:00003965 12605 0001:00003968 12623 0001:0000396B
 12626 0001:00003983 12633 0001:00003988 12653 0001:0000398B 12656 0001:0000399F
 12662 0001:000039A4 12663 0001:000039B9 12665 0001:000039BD 12666 0001:000039C4
 12668 0001:000039C6 12670 0001:000039D1 12671 0001:000039E6 12673 0001:000039EA
 12674 0001:000039F7 12678 0001:000039F9 12679 0001:000039FD 12680 0001:00003A06
 12681 0001:00003A16 12682 0001:00003A1C 12683 0001:00003A25 12688 0001:00003A30
 12689 0001:00003A31 12690 0001:00003A33 12691 0001:00003A38 12692 0001:00003A3D
 12693 0001:00003A3E 12708 0001:00003A40 12709 0001:00003A42 12710 0001:00003A44
 12711 0001:00003A46 12712 0001:00003A47 12713 0001:00003A49 12714 0001:00003A4B
 12715 0001:00003A4E 12716 0001:00003A50 12717 0001:00003A53 12718 0001:00003A55
 12719 0001:00003A58 12720 0001:00003A5A 12721 0001:00003A5D 12722 0001:00003A5F
 12723 0001:00003A60 12724 0001:00003A61 12725 0001:00003A62 12726 0001:00003A64
 12727 0001:00003A65 12728 0001:00003A67 12729 0001:00003A6C 12734 0001:00003A70
 12735 0001:00003A72 12736 0001:00003A74 12737 0001:00003A76 12738 0001:00003A77
 12739 0001:00003A7A 12740 0001:00003A7C 12741 0001:00003A80 12742 0001:00003A82
 12743 0001:00003A86 12744 0001:00003A88 12745 0001:00003A8C 12746 0001:00003A8E
 12747 0001:00003A91 12748 0001:00003A93 12749 0001:00003A96 12750 0001:00003A99
 12751 0001:00003A9C 12752 0001:00003A9E 12753 0001:00003A9F 12754 0001:00003AA1
 12755 0001:00003AA3 12756 0001:00003AA8 12761 0001:00003AAC 12762 0001:00003AAE
 12763 0001:00003AB0 12764 0001:00003AB1 12765 0001:00003AB6 12770 0001:00003AB8
 12771 0001:00003AB9 12772 0001:00003ABA 12773 0001:00003ABB 12774 0001:00003ABD
 12775 0001:00003ABF 12776 0001:00003AC1 12777 0001:00003AC3 12778 0001:00003AC5
 12779 0001:00003AC6 12780 0001:00003AC8 12781 0001:00003AC9 12782 0001:00003ACA
 12783 0001:00003ACF 12809 0001:00003AD0 12810 0001:00003AD2 12811 0001:00003AD4
 12812 0001:00003AD6 12813 0001:00003AD9 12814 0001:00003ADB 12815 0001:00003AE0
 12824 0001:00003AE4 12825 0001:00003AE5 12826 0001:00003AE7 12827 0001:00003AE9
 12828 0001:00003AEC 12829 0001:00003AEE 12831 0001:00003AF0 12832 0001:00003AF2
 12833 0001:00003AF4 12835 0001:00003AF6 12836 0001:00003AF8 12838 0001:00003AF9
 12839 0001:00003AFA 12841 0001:00003AFF 12844 0001:00003B01 12847 0001:00003B04
 12848 0001:00003B05 12853 0001:00003B08 12854 0001:00003B0C 12855 0001:00003B11
 12862 0001:00003B14 12863 0001:00003B16 12865 0001:00003B18 12866 0001:00003B1A
 12867 0001:00003B1C 12869 0001:00003B22 12870 0001:00003B23 12871 0001:00003B24
 12872 0001:00003B25 12873 0001:00003B27 12874 0001:00003B29 12876 0001:00003B2C
 12877 0001:00003B2F 12878 0001:00003B31 12879 0001:00003B33 12881 0001:00003B35
 12882 0001:00003B3A 12883 0001:00003B3C 12886 0001:00003B3F 12887 0001:00003B41
 12888 0001:00003B43 12889 0001:00003B48 12890 0001:00003B49 12891 0001:00003B4A
 12892 0001:00003B4B 12895 0001:00003B4C 12896 0001:00003B51 12897 0001:00003B53
 12898 0001:00003B55 12901 0001:00003B57 12910 0001:00003B58 12911 0001:00003B5A
 12913 0001:00003B5C 12914 0001:00003B5E 12916 0001:00003B64 12917 0001:00003B66
 12919 0001:00003B68 12920 0001:00003B6A 12922 0001:00003B6C 12923 0001:00003B6D
 12924 0001:00003B6E 12926 0001:00003B73 12927 0001:00003B74 12928 0001:00003B75
 12932 0001:00003B7A 12933 0001:00003B7B 12934 0001:00003B7C 12936 0001:00003B7D
 12937 0001:00003B7F 12938 0001:00003B81 12940 0001:00003B82 12941 0001:00003B85
 12942 0001:00003B88 12944 0001:00003B8D 12945 0001:00003B8F 12946 0001:00003B91
 12947 0001:00003B93 12948 0001:00003B96 12950 0001:00003B9B 12951 0001:00003B9D
 12952 0001:00003B9F 12953 0001:00003BA2 12954 0001:00003BA5 12956 0001:00003BAA
 12957 0001:00003BAB 12958 0001:00003BAD 12959 0001:00003BAF 12960 0001:00003BB1
 12962 0001:00003BB4 12964 0001:00003BB9 12965 0001:00003BBA 12966 0001:00003BBB
 12968 0001:00003BBC 12971 0001:00003BBD 12972 0001:00003BBF 12975 0001:00003BC4
 12976 0001:00003BC6 12979 0001:00003BCB 12988 0001:00003BCC 12989 0001:00003BCD
 12990 0001:00003BCE 12991 0001:00003BCF 12992 0001:00003BD0 12993 0001:00003BD1
 12995 0001:00003BD3 12996 0001:00003BD5 12997 0001:00003BD9 12998 0001:00003BDB
 12999 0001:00003BDD 13000 0001:00003BDF 13001 0001:00003BE1 13002 0001:00003BE3
 13003 0001:00003BE6 13004 0001:00003BE7 13006 0001:00003BE9 13008 0001:00003BEB
 13009 0001:00003BEF 13010 0001:00003BF1 13011 0001:00003BF3 13012 0001:00003BF6
 13013 0001:00003BF8 13014 0001:00003BFA 13016 0001:00003BFC 13017 0001:00003BFD
 13020 0001:00003BFF 13021 0001:00003C01 13022 0001:00003C03 13023 0001:00003C05
 13024 0001:00003C08 13025 0001:00003C0B 13026 0001:00003C10 13027 0001:00003C13
 13028 0001:00003C15 13029 0001:00003C17 13030 0001:00003C18 13033 0001:00003C1A
 13034 0001:00003C1F 13035 0001:00003C20 13038 0001:00003C22 13039 0001:00003C26
 13040 0001:00003C28 13041 0001:00003C2A 13042 0001:00003C2C 13043 0001:00003C2F
 13044 0001:00003C31 13046 0001:00003C36 13047 0001:00003C37 13049 0001:00003C39
 13050 0001:00003C3A 13051 0001:00003C3B 13052 0001:00003C3D 13054 0001:00003C3F
 13055 0001:00003C41 13056 0001:00003C43 13058 0001:00003C46 13061 0001:00003C4B
 13062 0001:00003C4C 13063 0001:00003C4D 13064 0001:00003C4E 13065 0001:00003C4F
 13066 0001:00003C50 13067 0001:00003C53 13068 0001:00003C55 13076 0001:00003C58
 13077 0001:00003C59 13078 0001:00003C5A 13080 0001:00003C5B 13081 0001:00003C5D
 13083 0001:00003C5F 13084 0001:00003C61 13086 0001:00003C67 13087 0001:00003C69
 13089 0001:00003C6B 13090 0001:00003C6D 13092 0001:00003C6F 13093 0001:00003C72
 13095 0001:00003C75 13096 0001:00003C77 13097 0001:00003C79 13100 0001:00003C7B
 13101 0001:00003C7C 13102 0001:00003C7F 13104 0001:00003C81 13105 0001:00003C83
 13106 0001:00003C85 13107 0001:00003C87 13108 0001:00003C89 13109 0001:00003C8A
 13110 0001:00003C8C 13111 0001:00003C8F 13112 0001:00003C92 13113 0001:00003C94
 13114 0001:00003C96 13115 0001:00003C99 13116 0001:00003C9C 13117 0001:00003C9D
 13118 0001:00003C9F 13120 0001:00003CA1 13121 0001:00003CA4 13123 0001:00003CA7
 13124 0001:00003CA8 13125 0001:00003CAB 13127 0001:00003CAD 13128 0001:00003CAF
 13129 0001:00003CB1 13130 0001:00003CB3 13131 0001:00003CB5 13132 0001:00003CB6
 13133 0001:00003CB8 13134 0001:00003CBA 13135 0001:00003CBC 13136 0001:00003CBD
 13137 0001:00003CBF 13138 0001:00003CC5 13139 0001:00003CCB 13140 0001:00003CCD
 13143 0001:00003CCF 13144 0001:00003CD1 13147 0001:00003CD3 13148 0001:00003CD6
 13149 0001:00003CD8 13152 0001:00003CDA 13153 0001:00003CDD 13154 0001:00003CDF
 13157 0001:00003CE1 13158 0001:00003CE2 13159 0001:00003CE4 13160 0001:00003CE6
 13161 0001:00003CE8 13162 0001:00003CEA 13163 0001:00003CED 13164 0001:00003CF0
 13165 0001:00003CF2 13166 0001:00003CF4 13169 0001:00003CF6 13170 0001:00003CF7
 13171 0001:00003CF8 13173 0001:00003CF9 13189 0001:00003CFC 13190 0001:00003CFE
 13191 0001:00003D00 13192 0001:00003D03 13193 0001:00003D04 13194 0001:00003D06
 13196 0001:00003D0A 13219 0001:00003D0C 13220 0001:00003D0E 13221 0001:00003D10
 13227 0001:00003D11 13229 0001:00003D12 13231 0001:00003D17 13238 0001:00003D18
 13239 0001:00003D1A 13240 0001:00003D1C 13241 0001:00003D1E 13242 0001:00003D21
 13243 0001:00003D22 13245 0001:00003D24 13246 0001:00003D25 13247 0001:00003D27
 13248 0001:00003D2A 13249 0001:00003D2F 13250 0001:00003D31 13251 0001:00003D33
 13252 0001:00003D35 13253 0001:00003D36 13254 0001:00003D39 13255 0001:00003D3E
 13256 0001:00003D3F 13257 0001:00003D42 13258 0001:00003D43 13259 0001:00003D45
 13260 0001:00003D49 13261 0001:00003D4B 13262 0001:00003D4E 13264 0001:00003D53
 13265 0001:00003D55 13267 0001:00003D56 13268 0001:00003D58 13273 0001:00003D5C
 13274 0001:00003D61 13278 0001:00003D64 13279 0001:00003D69 13308 0001:00003D6C
 13310 0001:00003D6D 13311 0001:00003D6F 13313 0001:00003D71 13314 0001:00003D74
 13315 0001:00003D76 13319 0001:00003D78 13320 0001:00003D79 13321 0001:00003D7B
 13322 0001:00003D7D 13328 0001:00003D7F 13329 0001:00003D81 13330 0001:00003D83
 13331 0001:00003D85 13332 0001:00003D87 13336 0001:00003D89 13337 0001:00003D8B
 13338 0001:00003D8F 13339 0001:00003D94 13342 0001:00003D96 13343 0001:00003D98
 13345 0001:00003D9A 13346 0001:00003D9C 13350 0001:00003D9E 13351 0001:00003DA2
 13353 0001:00003DA7 13354 0001:00003DA8 13355 0001:00003DAB 13364 0001:00003DAC
 13365 0001:00003DAD 13366 0001:00003DAE 13368 0001:00003DAF 13369 0001:00003DB1
 13370 0001:00003DB3 13372 0001:00003DB5 13374 0001:00003DBA 13375 0001:00003DBC
 13376 0001:00003DBE 13378 0001:00003DC0 13382 0001:00003DC3 13383 0001:00003DC4
 13384 0001:00003DC6 13385 0001:00003DC8 13389 0001:00003DCA 13390 0001:00003DCC
 13391 0001:00003DCE 13392 0001:00003DD0 13393 0001:00003DD2 13394 0001:00003DD4
 13399 0001:00003DD6 13400 0001:00003DD8 13401 0001:00003DDA 13402 0001:00003DDD
 13406 0001:00003DE2 13407 0001:00003DE4 13408 0001:00003DE6 13409 0001:00003DE9
 13410 0001:00003DEB 13413 0001:00003DF0 13414 0001:00003DF1 13415 0001:00003DF2
 13416 0001:00003DF3 13591 0001:00003DF4 13592 0001:00003DF5 13593 0001:00003DF6
 13594 0001:00003DF9 13595 0001:00003DFB 13596 0001:00003DFD 13597 0001:00003DFF
 13598 0001:00003E01 13599 0001:00003E04 13600 0001:00003E07 13601 0001:00003E09
 13602 0001:00003E0B 13603 0001:00003E0D 13604 0001:00003E0F 13605 0001:00003E10
 13606 0001:00003E12 13607 0001:00003E14 13608 0001:00003E18 13609 0001:00003E1A
 13610 0001:00003E1E 13611 0001:00003E20 13612 0001:00003E23 13613 0001:00003E26
 13615 0001:00003E2C 13616 0001:00003E2F 13619 0001:00003E33 13620 0001:00003E35
 13621 0001:00003E37 13622 0001:00003E3A 13623 0001:00003E3C 13624 0001:00003E3F
 13625 0001:00003E43 13626 0001:00003E45 13627 0001:00003E49 13629 0001:00003E4B
 13630 0001:00003E4D 13633 0001:00003E4F 13634 0001:00003E51 13635 0001:00003E53
 13636 0001:00003E56 13637 0001:00003E58 13638 0001:00003E5B 13639 0001:00003E5D
 13640 0001:00003E60 13641 0001:00003E62 13642 0001:00003E65 13643 0001:00003E69
 13644 0001:00003E6B 13645 0001:00003E6F 13646 0001:00003E71 13647 0001:00003E73
 13650 0001:00003E75 13652 0001:00003E78 13653 0001:00003E79 13654 0001:00003E7B
 13656 0001:00003E7F 13657 0001:00003E82 13658 0001:00003E83 13659 0001:00003E84
 13662 0001:00003E85 13664 0001:00003E88 13665 0001:00003E8B 13666 0001:00003E8D
 13667 0001:00003E91 13668 0001:00003E93 13669 0001:00003E95 13671 0001:00003E99
 13672 0001:00003E9C 13673 0001:00003E9D 13674 0001:00003E9E 13677 0001:00003E9F
 13678 0001:00003EA1 13679 0001:00003EA3 13680 0001:00003EA6 13681 0001:00003EA8
 13682 0001:00003EAB 13683 0001:00003EAD 13684 0001:00003EB0 13685 0001:00003EB2
 13686 0001:00003EB5 13687 0001:00003EB9 13688 0001:00003EBB 13689 0001:00003EBF
 13690 0001:00003EC1 13691 0001:00003EC3 13694 0001:00003EC5 13695 0001:00003EC8
 13697 0001:00003ECC 13698 0001:00003ECE 13700 0001:00003ED0 13701 0001:00003ED3
 13703 0001:00003ED5 13704 0001:00003ED8 13705 0001:00003EDC 13706 0001:00003EDE
 13707 0001:00003EE2 13708 0001:00003EE4 13709 0001:00003EE6 13712 0001:00003EE8
 13714 0001:00003EEB 13716 0001:00003EEE 13717 0001:00003EF2 13718 0001:00003EF7
 13719 0001:00003EF9 13720 0001:00003EFC 13721 0001:00003EFE 13722 0001:00003F01
 13723 0001:00003F03 13724 0001:00003F07 13726 0001:00003F09 13727 0001:00003F0B
 13729 0001:00003F0F 13730 0001:00003F12 13731 0001:00003F13 13732 0001:00003F14
 13735 0001:00003F15 13737 0001:00003F18 13739 0001:00003F1B 13740 0001:00003F1F
 13741 0001:00003F23 13742 0001:00003F25 13743 0001:00003F28 13744 0001:00003F2A
 13746 0001:00003F2B 13747 0001:00003F2D 13748 0001:00003F31 13749 0001:00003F34
 13750 0001:00003F35 13751 0001:00003F36 13758 0001:00003F38 13759 0001:00003F39
 13760 0001:00003F3A 13761 0001:00003F3B 13762 0001:00003F3D 13763 0001:00003F3F
 13765 0001:00003F41 13766 0001:00003F43 13768 0001:00003F45 13769 0001:00003F47
 13770 0001:00003F49 13772 0001:00003F4B 13773 0001:00003F4F 13775 0001:00003F51
 13776 0001:00003F54 13777 0001:00003F57 13778 0001:00003F58 13779 0001:00003F5A
 13780 0001:00003F5F 13781 0001:00003F60 13782 0001:00003F63 13783 0001:00003F65
 13784 0001:00003F68 13785 0001:00003F6C 13788 0001:00003F6E 13789 0001:00003F70
 13790 0001:00003F75 13792 0001:00003F77 13793 0001:00003F79 13794 0001:00003F7B
 13796 0001:00003F7D 13797 0001:00003F7F 13798 0001:00003F82 13799 0001:00003F84
 13800 0001:00003F86 13803 0001:00003F88 13806 0001:00003F8D 13807 0001:00003F8F
 13808 0001:00003F94 13811 0001:00003F96 13812 0001:00003F97 13813 0001:00003F98
 13814 0001:00003F99 13822 0001:00003F9C 13823 0001:00003F9D 13824 0001:00003F9E
 13826 0001:00003F9F 13827 0001:00003FA1 13828 0001:00003FA3 13830 0001:00003FA5
 13831 0001:00003FA7 13833 0001:00003FAC 13834 0001:00003FAE 13836 0001:00003FB0
 13837 0001:00003FB2 13839 0001:00003FB7 13841 0001:00003FB9 13842 0001:00003FBB
 13844 0001:00003FBD 13847 0001:00003FC2 13848 0001:00003FC3 13849 0001:00003FC4
 13851 0001:00003FC5 13967 0001:00003FC8 13968 0001:00003FCA 13969 0001:00003FCF
 13980 0001:00003FD0 13981 0001:00003FD2 13982 0001:00003FD4 13983 0001:00003FD5
 13984 0001:00003FD7 13985 0001:00003FDC 13986 0001:00003FDE 13988 0001:00003FE4
 14012 0001:00003FE8 14013 0001:00003FEA 14014 0001:00003FEC 14015 0001:00003FEE
 14016 0001:00003FEF 14019 0001:00003FF4 14033 0001:00003FF8 14034 0001:00003FFA
 14035 0001:00003FFC 14036 0001:00003FFE 14037 0001:00004004 14038 0001:00004005
 14039 0001:00004006 14040 0001:0000400B 14042 0001:0000400C 14054 0001:00004010
 14055 0001:00004011 14056 0001:00004012 14057 0001:00004014 14058 0001:00004016
 14059 0001:00004018 14060 0001:0000401A 14061 0001:0000401C 14062 0001:00004022
 14063 0001:00004023 14064 0001:00004028 14065 0001:0000402B 14066 0001:0000402C
 14067 0001:0000402E 14068 0001:0000402F 14069 0001:00004030 14083 0001:00004034
 14084 0001:00004036 14085 0001:00004038 14086 0001:0000403A 14087 0001:00004040
 14088 0001:00004043 14089 0001:00004045 14090 0001:0000404B 14091 0001:0000404C
 14092 0001:0000404D 14093 0001:0000404E 14094 0001:00004053 14095 0001:00004055
 14097 0001:0000405B 14116 0001:0000405C 14117 0001:00004071 14119 0001:00004075
 14120 0001:0000407C 14122 0001:0000407E 14124 0001:00004089 14125 0001:0000409E
 14127 0001:000040A2 14128 0001:000040AF 14132 0001:000040B1 14133 0001:000040B3
 14134 0001:000040BC 14135 0001:000040CC 14136 0001:000040D2 14137 0001:000040DB
 14161 0001:000040E8 14162 0001:000040EA 14164 0001:000040F0 14166 0001:000040F1
 14167 0001:000040F2 14168 0001:000040F3 14169 0001:000040F8 14170 0001:000040FA
 14172 0001:00004100 14173 0001:00004101 14174 0001:00004103 14176 0001:00004105
 14177 0001:0000410A 14235 0001:0000410C 14236 0001:0000410E 14237 0001:00004110
 14238 0001:00004112 14239 0001:00004113 14240 0001:00004116 14241 0001:00004118
 14242 0001:0000411C 14243 0001:0000411E 14244 0001:00004122 14245 0001:00004124
 14246 0001:00004128 14247 0001:0000412A 14248 0001:0000412D 14249 0001:0000412F
 14250 0001:00004132 14251 0001:00004135 14252 0001:00004138 14253 0001:0000413A
 14254 0001:0000413B 14255 0001:0000413D 14256 0001:0000413F 14257 0001:00004144
 14289 0001:00004148 14290 0001:00004149 14291 0001:0000414A 14292 0001:0000414B
 14293 0001:0000414D 14294 0001:0000414F 14295 0001:00004152 14296 0001:00004154
 14297 0001:00004156 14298 0001:00004157 14299 0001:00004159 14300 0001:0000415A
 14301 0001:0000415B 14302 0001:00004160 14307 0001:00004164 14308 0001:00004166
 14309 0001:00004168 14310 0001:0000416A 14311 0001:0000416D 14312 0001:00004172
 14349 0001:00004174 14350 0001:00004176 14351 0001:00004178 14355 0001:00004179
 14356 0001:0000417A 14357 0001:0000417C 14359 0001:00004181 14374 0001:00004184
 14375 0001:00004186 14376 0001:00004188 14377 0001:0000418B 14379 0001:0000418D
 14425 0001:00004190 14426 0001:00004191 14427 0001:00004192 14428 0001:00004193
 14429 0001:00004194 14431 0001:00004196 14433 0001:00004198 14434 0001:0000419C
 14435 0001:0000419E 14436 0001:000041A0 14438 0001:000041A3 14439 0001:000041A4
 14441 0001:000041A6 14442 0001:000041A8 14443 0001:000041AD 14444 0001:000041AE
 14447 0001:000041B0 14448 0001:000041B4 14449 0001:000041B6 14450 0001:000041B8
 14451 0001:000041BA 14452 0001:000041BD 14453 0001:000041BF 14455 0001:000041C4
 14456 0001:000041C5 14458 0001:000041C7 14459 0001:000041C8 14460 0001:000041C9
 14462 0001:000041CE 14463 0001:000041CF 14464 0001:000041D0 14465 0001:000041D1
 14466 0001:000041D2 14467 0001:000041D5 14468 0001:000041D7 14475 0001:000041D8
 14476 0001:000041D9 14477 0001:000041DA 14479 0001:000041DB 14480 0001:000041DD
 14482 0001:000041DF 14483 0001:000041E1 14485 0001:000041E3 14486 0001:000041E5
 14488 0001:000041E7 14489 0001:000041E9 14491 0001:000041EB 14492 0001:000041EE
 14494 0001:000041F1 14495 0001:000041F3 14496 0001:000041F5 14499 0001:000041F7
 14500 0001:000041F8 14501 0001:000041FB 14503 0001:000041FD 14504 0001:000041FF
 14505 0001:00004201 14506 0001:00004203 14507 0001:00004205 14508 0001:00004206
 14509 0001:00004208 14510 0001:0000420B 14511 0001:0000420E 14512 0001:00004210
 14513 0001:00004212 14514 0001:00004215 14515 0001:00004218 14516 0001:00004219
 14517 0001:0000421B 14519 0001:0000421D 14520 0001:00004220 14522 0001:00004223
 14523 0001:00004224 14524 0001:00004227 14526 0001:00004229 14527 0001:0000422C
 14528 0001:0000422F 14529 0001:00004232 14532 0001:00004234 14533 0001:00004236
 14536 0001:00004238 14537 0001:0000423B 14538 0001:0000423D 14541 0001:0000423F
 14542 0001:00004242 14543 0001:00004244 14546 0001:00004246 14547 0001:00004247
 14548 0001:0000424A 14549 0001:0000424C 14550 0001:0000424F 14551 0001:00004252
 14554 0001:00004255 14555 0001:00004256 14556 0001:00004257 14557 0001:00004258
 14563 0001:0000425C 14564 0001:00004268 14565 0001:0000426F 14567 0001:00004278
 14568 0001:00004279 14570 0001:0000427F 14572 0001:00004287 14573 0001:00004289
 14575 0001:0000428F 14576 0001:0000429E 14705 0001:000042A8 14706 0001:000042AF
 14707 0001:000042B1 14709 0001:000042B5 14710 0001:000042BE 14711 0001:000042C5
 14713 0001:000042C9 14714 0001:000042CF 14717 0001:000042DC 14718 0001:000042E5
 14742 0001:000042EC 14743 0001:000042EE 14744 0001:000042F0 14745 0001:000042F2
 14746 0001:000042F3 14747 0001:000042F6 14748 0001:000042F8 14749 0001:000042F9
 14750 0001:000042FA 14751 0001:000042FF 14752 0001:00004300 14753 0001:00004302
 14754 0001:00004308 14756 0001:0000430A 14820 0001:0000430C 14822 0001:0000430E
 14823 0001:0000430F 14825 0001:00004312 14826 0001:00004313 14828 0001:00004314
 14829 0001:00004316 14830 0001:0000431A 14834 0001:0000431E 14835 0001:00004320
 14836 0001:00004323 14837 0001:00004325 14838 0001:00004327 14839 0001:0000432C
 14840 0001:00004331 14841 0001:00004334 14842 0001:00004335 14844 0001:00004337
 14845 0001:00004338 14846 0001:00004339 14847 0001:0000433A 14914 0001:0000433C
 14915 0001:0000433E 14917 0001:00004344 14918 0001:00004345 14919 0001:00004346
 14920 0001:00004347 14921 0001:00004349 14922 0001:0000434B 14924 0001:0000434D
 14925 0001:0000434F 14926 0001:00004351 14927 0001:00004354 14929 0001:00004356
 14930 0001:00004358 14931 0001:0000435A 14932 0001:0000435C 14933 0001:0000435E
 14934 0001:00004360 14935 0001:00004362 14936 0001:00004364 14937 0001:00004366
 14938 0001:00004368 14939 0001:0000436A 14940 0001:0000436C 14941 0001:0000436E
 14942 0001:00004370 14943 0001:00004372 14944 0001:00004374 14945 0001:00004375
 14946 0001:00004376 14947 0001:00004377 14953 0001:0000437C 14954 0001:0000437E
 14955 0001:00004381 14956 0001:00004382 14957 0001:00004384 14960 0001:00004386
 14961 0001:00004388 14962 0001:0000438B 14963 0001:0000438E 14964 0001:00004391
 14965 0001:00004394 14966 0001:00004395 14967 0001:00004397 14970 0001:00004399
 14971 0001:0000439A 14973 0001:0000439C 14974 0001:000043A0 14975 0001:000043A2
 14976 0001:000043A6 14977 0001:000043AA 14978 0001:000043AC 14979 0001:000043B1
 14980 0001:000043B2 14981 0001:000043B4 14982 0001:000043B5 14985 0001:000043B7
 14986 0001:000043B8 14988 0001:000043BA 14989 0001:000043BC 14990 0001:000043C0
 14991 0001:000043C2 14992 0001:000043C7 14993 0001:000043C8 14994 0001:000043CA
 14998 0001:000043CB 14999 0001:000043CC 15000 0001:000043CD 15002 0001:000043CE
 15012 0001:000043D0 15013 0001:000043D5 15014 0001:000043DA 15032 0001:000043DC
 15034 0001:000043DE 15035 0001:000043DF 15037 0001:000043E2 15038 0001:000043E3
 15040 0001:000043E4 15041 0001:000043E6 15042 0001:000043EA 15046 0001:000043EE
 15047 0001:000043F0 15048 0001:000043F3 15049 0001:000043F5 15050 0001:000043F7
 15051 0001:000043FC 15052 0001:00004401 15053 0001:00004404 15054 0001:00004405
 15056 0001:00004407 15058 0001:00004409 15059 0001:0000440A 15060 0001:0000440B
 15061 0001:0000440C 15066 0001:00004410 15067 0001:00004419 15069 0001:00004420
 15070 0001:00004427 15137 0001:00004428 15138 0001:0000442B 15140 0001:00004431
 15141 0001:00004432 15142 0001:00004433 15143 0001:00004434 15144 0001:00004435
 15145 0001:00004437 15146 0001:00004439 15148 0001:0000443B 15149 0001:0000443D
 15150 0001:0000443F 15152 0001:00004442 15153 0001:00004444 15155 0001:00004446
 15156 0001:00004448 15158 0001:0000444A 15159 0001:0000444C 15161 0001:0000444E
 15162 0001:00004450 15164 0001:00004452 15165 0001:00004454 15167 0001:00004456
 15168 0001:00004458 15170 0001:0000445E 15171 0001:00004460 15173 0001:00004466
 15176 0001:0000446B 15177 0001:0000446E 15178 0001:00004470 15179 0001:00004472
 15180 0001:00004477 15182 0001:0000447C 15183 0001:0000447E 15184 0001:00004483
 15187 0001:00004488 15188 0001:0000448B 15189 0001:0000448D 15190 0001:0000448F
 15191 0001:00004494 15193 0001:00004496 15194 0001:00004498 15195 0001:0000449D
 15197 0001:0000449F 15198 0001:000044A1 15199 0001:000044A4 15200 0001:000044A9
 15201 0001:000044AA 15202 0001:000044AC 15204 0001:000044AE 15205 0001:000044AF
 15207 0001:000044B1 15208 0001:000044B5 15209 0001:000044B7 15210 0001:000044BB
 15211 0001:000044BF 15212 0001:000044C1 15213 0001:000044C6 15214 0001:000044C7
 15215 0001:000044C9 15216 0001:000044CA 15219 0001:000044CC 15220 0001:000044CD
 15224 0001:000044CF 15225 0001:000044D1 15226 0001:000044D5 15227 0001:000044D7
 15228 0001:000044DC 15229 0001:000044DD 15230 0001:000044DF 15231 0001:000044E0
 15234 0001:000044E2 15235 0001:000044E4 15236 0001:000044E7 15237 0001:000044EC
 15238 0001:000044ED 15239 0001:000044EF 15242 0001:000044F1 15243 0001:000044F3
 15244 0001:000044F5 15245 0001:000044F8 15246 0001:000044FD 15247 0001:000044FE
 15248 0001:00004500 15251 0001:00004502 15252 0001:00004503 15253 0001:00004504
 15254 0001:00004505 15255 0001:00004506 15256 0001:00004508 15259 0001:0000450D
 15260 0001:0000450E 15261 0001:0000450F 15262 0001:00004510 15264 0001:00004511
 15274 0001:00004514 15275 0001:00004519 15276 0001:0000451E 15453 0001:00004520
 15454 0001:00004529 15456 0001:00004530 15457 0001:00004537 15465 0001:00004538
 15466 0001:00004539 15467 0001:0000453A 15468 0001:0000453B 15470 0001:0000453C
 15471 0001:0000453E 15473 0001:00004540 15474 0001:00004542 15476 0001:00004545
 15477 0001:00004549 15478 0001:0000454C 15479 0001:0000454E 15480 0001:00004551
 15482 0001:00004552 15483 0001:00004555 15484 0001:00004557 15485 0001:00004559
 15486 0001:0000455B 15487 0001:0000455D 15488 0001:0000455F 15490 0001:00004564
 15492 0001:00004567 15493 0001:00004569 15494 0001:0000456B 15496 0001:0000456D
 15497 0001:00004570 15498 0001:00004572 15499 0001:00004575 15500 0001:00004577
 15501 0001:0000457A 15502 0001:0000457C 15503 0001:0000457F 15504 0001:00004581
 15505 0001:00004584 15506 0001:00004586 15507 0001:00004589 15508 0001:0000458F
 15509 0001:00004592 15510 0001:00004598 15511 0001:0000459A 15512 0001:0000459B
 15513 0001:0000459C 15514 0001:0000459D 15515 0001:0000459E 15518 0001:000045A3
 15519 0001:000045A6 15520 0001:000045A8 15521 0001:000045AD 15522 0001:000045B2
 15525 0001:000045B4 15526 0001:000045B7 15527 0001:000045B9 15528 0001:000045BE
 15529 0001:000045C3 15532 0001:000045C5 15533 0001:000045C8 15534 0001:000045CA
 15535 0001:000045CF 15536 0001:000045D4 15539 0001:000045D6 15540 0001:000045D8
 15541 0001:000045DB 15542 0001:000045DF 15543 0001:000045E3 15544 0001:000045E7
 15545 0001:000045E9 15546 0001:000045EC 15547 0001:000045EE 15548 0001:000045F3
 15549 0001:000045F4 15552 0001:000045F6 15553 0001:000045F8 15554 0001:000045FB
 15555 0001:000045FF 15556 0001:00004600 15557 0001:00004602 15558 0001:00004605
 15559 0001:00004607 15560 0001:0000460C 15561 0001:0000460D 15564 0001:0000460F
 15565 0001:00004612 15566 0001:00004614 15567 0001:00004619 15568 0001:0000461E
 15571 0001:00004620 15572 0001:00004622 15573 0001:00004625 15574 0001:00004627
 15575 0001:0000462C 15578 0001:00004631 15579 0001:00004634 15580 0001:00004637
 15581 0001:00004638 15583 0001:0000463E 15584 0001:0000463F 15585 0001:00004641
 15586 0001:00004643 15587 0001:00004646 15588 0001:00004648 15591 0001:0000464D
 15592 0001:0000464E 15593 0001:0000464F 15594 0001:00004650 15595 0001:00004651
 15622 0001:00004654 15623 0001:00004655 15624 0001:00004656 15625 0001:00004657
 15627 0001:00004658 15628 0001:0000465A 15629 0001:0000465C 15630 0001:0000465E
 15632 0001:00004662 15634 0001:00004664 15635 0001:00004667 15636 0001:00004669
 15637 0001:0000466C 15638 0001:0000466E 15639 0001:00004671 15640 0001:00004673
 15641 0001:00004676 15642 0001:00004678 15643 0001:0000467B 15644 0001:0000467D
 15645 0001:00004680 15646 0001:00004686 15647 0001:00004689 15648 0001:0000468F
 15649 0001:00004691 15650 0001:00004692 15651 0001:00004693 15652 0001:00004694
 15653 0001:00004695 15656 0001:0000469A 15657 0001:0000469C 15658 0001:0000469E
 15659 0001:000046A3 15660 0001:000046A6 15661 0001:000046A9 15662 0001:000046AA
 15663 0001:000046AC 15666 0001:000046B1 15667 0001:000046B3 15668 0001:000046B5
 15669 0001:000046BA 15670 0001:000046BD 15671 0001:000046C0 15672 0001:000046C1
 15673 0001:000046C3 15676 0001:000046C5 15677 0001:000046C7 15678 0001:000046C9
 15679 0001:000046CE 15680 0001:000046D1 15681 0001:000046D4 15682 0001:000046D5
 15683 0001:000046D7 15686 0001:000046D9 15687 0001:000046DB 15688 0001:000046DE
 15690 0001:000046E2 15691 0001:000046E4 15692 0001:000046E6 15693 0001:000046E9
 15694 0001:000046EC 15695 0001:000046F1 15696 0001:000046F3 15697 0001:000046F5
 15698 0001:000046F6 15699 0001:000046F8 15702 0001:000046FA 15703 0001:000046FC
 15704 0001:000046FE 15705 0001:00004700 15706 0001:00004705 15707 0001:00004707
 15708 0001:0000470A 15709 0001:0000470E 15710 0001:00004712 15711 0001:00004713
 15712 0001:00004715 15715 0001:00004717 15716 0001:00004719 15717 0001:0000471B
 15718 0001:00004720 15719 0001:00004723 15720 0001:00004726 15721 0001:00004727
 15722 0001:00004729 15725 0001:0000472B 15726 0001:0000472D 15727 0001:0000472F
 15728 0001:00004731 15729 0001:00004736 15730 0001:00004739 15731 0001:0000473C
 15732 0001:0000473D 15735 0001:0000473F 15736 0001:00004740 15737 0001:00004741
 15738 0001:00004742 15739 0001:00004743 15740 0001:00004746 15755 0001:00004748
 15756 0001:00004749 15757 0001:0000474E 15758 0001:0000474F 15759 0001:00004751
 15760 0001:00004753 15761 0001:00004754 15762 0001:00004759 15764 0001:0000475A
 15778 0001:0000475C 15779 0001:0000475D 15780 0001:00004762 15781 0001:00004763
 15782 0001:00004768 15807 0001:0000476C 15808 0001:00004774 15827 0001:00004778
 15828 0001:0000477F 15829 0001:00004795 15832 0001:0000479C 15833 0001:0000479D
 15834 0001:000047A2 15835 0001:000047B7 15873 0001:000047BC 15874 0001:000047BE
 15875 0001:000047C3 15894 0001:000047C4 15895 0001:000047C5 15900 0001:000047C6
 15901 0001:000047CA 15902 0001:000047CD 15904 0001:000047CF 15905 0001:000047D3
 15906 0001:000047D7 15908 0001:000047D9 15909 0001:000047DC 15910 0001:000047E0
 15912 0001:000047E2 15913 0001:000047E3 15915 0001:000047E4 15916 0001:000047E7
 16721 0001:000047E8 16722 0001:000047F4 16723 0001:000047F9 16724 0001:000047FB
 16725 0001:0000480B 16727 0001:0000480F 16728 0001:00004814 16731 0001:00004819
 16730 0001:0000481A 16732 0001:00004821 16733 0001:00004826 16735 0001:0000482F
 16736 0001:00004834 16738 0001:00004837 16739 0001:0000483B 16740 0001:0000483C
 16741 0001:0000483E 16744 0001:0000486F 16745 0001:00004876 16746 0001:00004877
 16749 0001:00004878 16750 0001:00004893 16751 0001:0000489B 16752 0001:000048A3
 16756 0001:000048A9 16758 0001:000048D0 16759 0001:000048F6 16760 0001:000048F7
 16747 0001:000048F9 16762 0001:000048FE 16763 0001:00004909 16769 0001:00004925
 16770 0001:00004930 16774 0001:00004938 16776 0001:00004962 16777 0001:0000498A
 16778 0001:0000498B 16767 0001:0000498D 16780 0001:0000498F 16781 0001:00004996
 16782 0001:000049AD 16783 0001:000049D5 16785 0001:000049D6 16786 0001:000049E2
 16788 0001:000049E9 16789 0001:000049F0 16796 0001:00004A00 16797 0001:00004A02
 16798 0001:00004A04 16800 0001:00004A07 16807 0001:00004A08 16808 0001:00004A0D
 16809 0001:00004A0E 16812 0001:00004A10 16813 0001:00004A13 16814 0001:00004A16
 16815 0001:00004A1B 16819 0001:00004A20 16820 0001:00004A25 16824 0001:00004A28
 16825 0001:00004A2D 16834 0001:00004A30 16835 0001:00004A41 16838 0001:00004A46
 16839 0001:00004A4B 16841 0001:00004A4F 16842 0001:00004A53 16843 0001:00004A5A
 16844 0001:00004A64 16847 0001:00004A69 16848 0001:00004A6E 16850 0001:00004A72
 16851 0001:00004A75 16852 0001:00004A7A 16856 0001:00004A7D 16857 0001:00004A83
 16858 0001:00004A8B 16859 0001:00004A92 16861 0001:00004A96 16862 0001:00004A98
 16863 0001:00004AA0 16864 0001:00004AAB 16865 0001:00004AB2 16868 0001:00004AB6
 16870 0001:00004ABF 16871 0001:00004AC2 16872 0001:00004ACB 16873 0001:00004AE4
 16874 0001:00004AEF 16878 0001:00004AF4 16879 0001:00004AF6 16880 0001:00004B00
 16881 0001:00004B06 16882 0001:00004B0B 16883 0001:00004B0E 16885 0001:00004B12
 16886 0001:00004B25 16889 0001:00004B3C 16893 0001:00004B52 16894 0001:00004B58
 16895 0001:00004B5B 16896 0001:00004B5D 16899 0001:00004B60 16902 0001:00004B79
 16904 0001:00004B7F 16905 0001:00004B83 16906 0001:00004B86 16907 0001:00004B93
 16906 0001:00004BAA 16909 0001:00004BAD 16910 0001:00004BB2 16919 0001:00004BBC
 16920 0001:00004BBD 16921 0001:00004BC1 16922 0001:00004BC6 16925 0001:00004BC8
 16926 0001:00004BC9 16927 0001:00004BCD 16929 0001:00004BDF 16930 0001:00004BE6
 16938 0001:00004BE8 16939 0001:00004BFC 16940 0001:00004BFE 16942 0001:00004C08
 16945 0001:00004C0E 16947 0001:00004C12 16948 0001:00004C14 16950 0001:00004C16
 16951 0001:00004C1E 16952 0001:00004C22 16953 0001:00004C24 16954 0001:00004C2C
 16955 0001:00004C2E 16956 0001:00004C32 16958 0001:00004C34 16961 0001:00004C3C
 16962 0001:00004C46 16963 0001:00004C4F 16964 0001:00004C59 16966 0001:00004C60
 16969 0001:00004C65 16972 0001:00004C74 16973 0001:00004C7A 16974 0001:00004C7D
 16975 0001:00004C7F 16976 0001:00004C82 16980 0001:00004C89 16982 0001:00004C8D
 16984 0001:00004C93 16985 0001:00004CA2 16988 0001:00004CB2 16992 0001:00004CC2
 16993 0001:00004CCD 16994 0001:00004CD2 17002 0001:00004CDC 17003 0001:00004CDE
 17004 0001:00004CE0 17007 0001:00004CE2 17010 0001:00004CE8 17011 0001:00004CEC
 17014 0001:00004CEE 17015 0001:00004CEF 17018 0001:00004CF1 17019 0001:00004CF3
 17020 0001:00004CF6 17023 0001:00004CFA 17024 0001:00004CFC 17025 0001:00004CFE
 17026 0001:00004D01 17027 0001:00004D03 17028 0001:00004D05 17029 0001:00004D07
 17032 0001:00004D0C 17033 0001:00004D0F 17034 0001:00004D14 17036 0001:00004D15
 17045 0001:00004D18 17046 0001:00004D19 17050 0001:00004D1B 17051 0001:00004D1D
 17052 0001:00004D1F 17055 0001:00004D23 17056 0001:00004D25 17057 0001:00004D27
 17058 0001:00004D2B 17059 0001:00004D2D 17060 0001:00004D2E 17061 0001:00004D2F
 17062 0001:00004D31 17063 0001:00004D34 17064 0001:00004D39 17065 0001:00004D3A
 17068 0001:00004D3B 17070 0001:00004D3D 17071 0001:00004D3E 17298 0001:00004D40
 17299 0001:00004D43 17300 0001:00004D50 17301 0001:00004D5A 17303 0001:00004D60
 17304 0001:00004D62 17475 0001:00004D68 17476 0001:00004D72 17478 0001:00004D78
 17479 0001:00004D8B 17480 0001:00004D99 17481 0001:00004D9D 17483 0001:00004DA3
 17484 0001:00004DA6 17489 0001:00004DB0 17490 0001:00004DB5 17491 0001:00004DBB
 17493 0001:00004DBF 17497 0001:00004DCE 17498 0001:00004DD7 17500 0001:00004DD9
 17491 0001:00004DDB 17502 0001:00004DDF 17503 0001:00004DE1 17578 0001:00004DE8
 17579 0001:00004DEA 17581 0001:00004DEE 17580 0001:00004DF6 17582 0001:00004E02
 17592 0001:00004E08 17593 0001:00004E1A 17594 0001:00004E20 17595 0001:00004E2D
 17597 0001:00004E33 17598 0001:00004E43 17601 0001:00004E5D 17602 0001:00004E71
 17606 0001:00004E76 17608 0001:00004E7E 17609 0001:00004E8B 17610 0001:00004E98
 17611 0001:00004EA1 17612 0001:00004EAB 17614 0001:00004EB6 17616 0001:00004EBC
 17617 0001:00004EC1 17620 0001:00004EDA 17621 0001:00004EE4 17622 0001:00004EF6
 17624 0001:00004F0B 17625 0001:00004F21 17626 0001:00004F27 17628 0001:00004F30
 17629 0001:00004F49 17630 0001:00004F51 17631 0001:00004F70 17632 0001:00004F7F
 17618 0001:00004F81 17634 0001:00004F8A 17635 0001:00004F9E 17636 0001:00004FCC
 17637 0001:00004FDA 17638 0001:00004FED 17639 0001:00004FF1 17642 0001:0000504F
 17643 0001:0000505D 17644 0001:00005064 17645 0001:00005074 17646 0001:00005094
 17647 0001:000050B2 17648 0001:000050B6 17650 0001:000050C7 17652 0001:000050D8
 17653 0001:000050ED 17654 0001:00005100 17655 0001:00005102 17657 0001:0000511F
 17658 0001:00005137 17659 0001:00005147 17661 0001:00005155 17663 0001:00005156
 17665 0001:0000515C 17666 0001:00005172 17668 0001:00005184 17671 0001:0000518E
 17672 0001:000051AA 17673 0001:000051BC 17676 0001:000051C0 17677 0001:000051C4
 17678 0001:000051E0 17683 0001:000051F2 17722 0001:0000523C 17723 0001:00005241
 17727 0001:00005244 17728 0001:00005249 17733 0001:0000524C 17734 0001:0000524F
 17735 0001:00005259 17736 0001:00005261 17737 0001:00005264 17738 0001:00005269
 17743 0001:0000526C 17744 0001:00005272 17745 0001:00005278 17747 0001:00005283
 17748 0001:0000528F 17751 0001:0000529D 17752 0001:0000529F 17754 0001:000052A3
 17756 0001:000052B0 17757 0001:000052B2 17758 0001:000052B6 17759 0001:000052C2
 17761 0001:000052C4 17752 0001:000052C6 17764 0001:000052CA 17769 0001:000052D0
 17770 0001:000052DC 17771 0001:000052E4 17773 0001:000052EA 17774 0001:000052F8
 17777 0001:00005310 17778 0001:00005315 17771 0001:0000531D 17783 0001:00005323
 17787 0001:0000532C 17788 0001:00005334 17789 0001:00005339 17794 0001:0000533C
 17795 0001:00005343 17796 0001:00005351 17798 0001:00005369 17799 0001:00005374
 17802 0001:00005380 17803 0001:00005385 17805 0001:00005389 17807 0001:00005390
 17808 0001:00005397 17810 0001:00005399 17803 0001:0000539B 17814 0001:000053A7
 17831 0001:000053AC 17832 0001:000053AE 17833 0001:000053B0 17834 0001:000053B2
 17835 0001:000053B8 17836 0001:000053B9 17837 0001:000053BA 17838 0001:000053BC
 17839 0001:000053BF 17841 0001:000053C0 17874 0001:000053C4 17875 0001:000053C6
 17876 0001:000053C8 17877 0001:000053C9 17878 0001:000053CA 17879 0001:000053CC
 17880 0001:000053CD 17881 0001:000053D0 17882 0001:000053D1 17883 0001:000053D3
 17884 0001:000053D5 17885 0001:000053D7 17886 0001:000053D9 17888 0001:000053DA
 17889 0001:000053DC 17890 0001:000053DD 17891 0001:000053E0 17895 0001:000053E1
 17896 0001:000053E3 17897 0001:000053E5 17898 0001:000053E7 17899 0001:000053E9
 17900 0001:000053EB 17901 0001:000053EC 17903 0001:000053EF 17925 0001:000053F0
 17926 0001:000053F2 17927 0001:000053F8 17928 0001:000053F9 17929 0001:000053FB
 17930 0001:000053FD 17931 0001:000053FE 17932 0001:000053FF 17933 0001:00005400
 17934 0001:00005402 17935 0001:00005404 17936 0001:00005406 17937 0001:00005408
 17938 0001:0000540A 17939 0001:0000540F 17940 0001:00005411 17941 0001:00005413
 17942 0001:00005415 17943 0001:00005416 17944 0001:00005418 17945 0001:0000541B
 17946 0001:0000541C 17947 0001:0000541E 17948 0001:0000541F 17953 0001:00005420
 17954 0001:0000542A 17959 0001:0000542C 17960 0001:00005435 17964 0001:00005438
 17965 0001:0000543E 17966 0001:00005445 17972 0001:00005448 17973 0001:0000544D
 17974 0001:00005454 17977 0001:00005458 17978 0001:0000545F 17979 0001:00005470
 17981 0001:00005474 17982 0001:00005479 17985 0001:00005480 17986 0001:00005486
 17987 0001:0000548F 17990 0001:00005494 17991 0001:0000549C 17992 0001:000054A7
 17993 0001:000054AB 17994 0001:000054B4 18141 0001:000054BC 18142 0001:000054CA
 18143 0001:000054CC 18144 0001:000054D6 18145 0001:000054D8 18146 0001:000054DA
 18150 0001:000054E4 18151 0001:000054EB 18152 0001:000054EC 18154 0001:000054F1
 18155 0001:000054F4 18157 0001:000054F7 18159 0001:000054FF 18161 0001:00005507
 18162 0001:00005512 18163 0001:00005521 18164 0001:0000552B 18168 0001:00005530
 18170 0001:00005538 18171 0001:00005543 18172 0001:0000554D 18148 0001:00005550
 18175 0001:0000555A 18176 0001:00005563 18180 0001:00005569 18182 0001:0000556E
 18183 0001:00005575 18184 0001:00005576 18186 0001:0000557B 18187 0001:00005583
 18188 0001:00005584 18190 0001:00005585 18180 0001:00005586 18193 0001:0000558B
 18194 0001:0000558E 18212 0001:00005598 18213 0001:000055A9 18215 0001:000055AF
 18216 0001:000055B4 18218 0001:000055B9 18219 0001:000055C0 18220 0001:000055C2
 18221 0001:000055C4 18225 0001:000055D0 18226 0001:000055D7 18227 0001:000055D8
 18229 0001:000055DD 18230 0001:000055E6 18231 0001:000055E9 18233 0001:000055EE
 18234 0001:000055F5 18235 0001:000055F6 18236 0001:00005604 18237 0001:0000560D
 18239 0001:0000561A 18240 0001:00005621 18241 0001:00005622 18243 0001:00005630
 18246 0001:00005645 18247 0001:0000564C 18223 0001:0000564D 18249 0001:0000565B
 18250 0001:00005664 18254 0001:0000566F 18256 0001:00005674 18257 0001:0000567B
 18258 0001:0000567C 18260 0001:00005681 18261 0001:00005686 18262 0001:00005689
 18264 0001:0000568E 18265 0001:00005695 18266 0001:00005696 18267 0001:0000569E
 18269 0001:000056A3 18270 0001:000056AA 18271 0001:000056AB 18273 0001:000056B3
 18254 0001:000056B4 18276 0001:000056B9 18277 0001:000056BD 18283 0001:000056C8
 18284 0001:000056E8 18285 0001:000056F0 18286 0001:000056FB 18288 0001:0000570D
 18289 0001:0000573A 18290 0001:0000573E 18292 0001:0000574B 18293 0001:00005753
 18294 0001:0000575E 18300 0001:00005784 18301 0001:000057A4 18302 0001:000057AC
 18303 0001:000057B0 18305 0001:000057CA 18306 0001:000057F5 18307 0001:000057F9
 18309 0001:00005806 18310 0001:0000580E 18311 0001:00005819 18314 0001:0000583C
 18315 0001:00005855 18316 0001:00005869 18589 0001:0000588C 18590 0001:00005899
 18591 0001:0000589D 18592 0001:000058A6 18596 0001:000058D0 18597 0001:000058DA
 18704 0001:000058E4 18776 0001:000058EC 18777 0001:0000590F 18778 0001:00005919
 18785 0001:00005923 18787 0001:00005928

Line numbers for System(system.pas) segment .itext

 18736 0002:00000000 18737 0002:0000000D 18742 0002:00000012 18744 0002:00000019
 18745 0002:00000023 18754 0002:0000002D 18757 0002:00000034 18760 0002:0000003E
 18762 0002:0000004C 18764 0002:00000051 18765 0002:0000005A 18766 0002:00000063
 18769 0002:0000006C 18770 0002:00000076 18771 0002:00000080 18773 0002:0000008A
 18775 0002:00000094

Line numbers for SysInit(SysInit.pas) segment .text

    95 0001:0000594C    98 0001:00005954   101 0001:0000595C   104 0001:00005964
   107 0001:0000596C   110 0001:00005974   121 0001:0000597C   122 0001:00005984
   278 0001:00005988   279 0001:0000598D   286 0001:00005990   287 0001:00005991
   288 0001:00005998   292 0001:0000599C   293 0001:000059AF   294 0001:000059B6
   295 0001:000059BA   297 0001:000059C6   298 0001:000059D2   303 0001:000059D4
   305 0001:000059DD   306 0001:000059E7   307 0001:000059EC   308 0001:000059FC
   314 0001:00005A00   316 0001:00005A09   317 0001:00005A12   318 0001:00005A1D
   319 0001:00005A21   320 0001:00005A27   323 0001:00005A34   327 0001:00005A38
   329 0001:00005A41   330 0001:00005A46   331 0001:00005A4F   332 0001:00005A5A
   354 0001:00005A5C   355 0001:00005A62   356 0001:00005A67   357 0001:00005A69
   358 0001:00005A6B   359 0001:00005A72   360 0001:00005A75   363 0001:00005A76
   364 0001:00005A7B   365 0001:00005A80   366 0001:00005A81   367 0001:00005A86
   368 0001:00005A88   369 0001:00005A8A   372 0001:00005A8B   373 0001:00005A90
   376 0001:00005A91   377 0001:00005A92   378 0001:00005A97   379 0001:00005A99
   380 0001:00005A9B   418 0001:00005A9C   419 0001:00005AA6   551 0001:00005AA8
   552 0001:00005AAD   553 0001:00005AB1   555 0001:00005AB3   556 0001:00005AB4
   557 0001:00005AB5   558 0001:00005ABC   559 0001:00005ABF   560 0001:00005AC5
   561 0001:00005AC8   562 0001:00005ACF   563 0001:00005AD6   564 0001:00005ADB
   565 0001:00005ADC   568 0001:00005ADD   569 0001:00005AE3   570 0001:00005AE8
   571 0001:00005AED   835 0001:00005AEE

Line numbers for Types(Types.pas) segment .text

   560 0001:00000000

Line numbers for Windows(Windows.pas) segment .text

 29144 0001:00005AF0 29151 0001:00005AF8 29169 0001:00005B00 29178 0001:00005B08
 29190 0001:00005B10 29267 0001:00005B18 29273 0001:00005B20 29293 0001:00005B28
 29297 0001:00005B30 29362 0001:00005B38 29380 0001:00005B40 29383 0001:00005B48
 29457 0001:00005B50 29464 0001:00005B58 29483 0001:00005B60 29516 0001:00005B68
 29517 0001:00005B70 29524 0001:00005B78 29536 0001:00005B80 29553 0001:00005B88
 29558 0001:00005B90 29559 0001:00005B98 29560 0001:00005BA0 29568 0001:00005BA8
 29571 0001:00005BB0 29598 0001:00005BB8 29623 0001:00005BC0 29649 0001:00005BC8
 29662 0001:00005BD0 29708 0001:00005BD8 29728 0001:00005BE0 29731 0001:00005BE8
 29769 0001:00005BF0 29826 0001:00005BF8 29835 0001:00005C00 29873 0001:00005C08
 29874 0001:00005C10 29877 0001:00005C18 29878 0001:00005C20 29884 0001:00005C28
 29923 0001:00005C30 29951 0001:00005C38 29953 0001:00005C40 29966 0001:00005C48
 29973 0001:00005C50 29993 0001:00005C58 30588 0001:00005C60 30594 0001:00005C68
 30596 0001:00005C70 30605 0001:00005C78 30610 0001:00005C80 30613 0001:00005C88
 30767 0001:00005C90 30876 0001:00005C98 30985 0001:00005CA0 31002 0001:00005CA8
 31068 0001:00005CB0 31087 0001:00005CB8 31839 0001:00005CC0 31840 0001:00005CED

Line numbers for Windows(Windows.pas) segment .itext

 31836 0002:00000098 31837 0002:000000A4 31838 0002:000000AB

Line numbers for SysConst(SysConst.pas) segment .text

   184 0001:00000000

Line numbers for ImageHlp(ImageHlp.pas) segment .text

   761 0001:00000000

Line numbers for SysUtils(sysutils.pas) segment .text

  3214 0001:00008028  3215 0001:0000802B  3216 0001:0000802C  3217 0001:0000802E
  3218 0001:00008030  3219 0001:00008033  3220 0001:00008036  3221 0001:00008039
  3222 0001:0000803C  3223 0001:0000803F  3224 0001:00008040  3236 0001:00008044
  3237 0001:0000804B  3238 0001:0000805F  3241 0001:00008064  3242 0001:00008073
  3243 0001:0000808F  3516 0001:00008094  3517 0001:00008095  3518 0001:00008096
  3519 0001:00008097  3520 0001:00008099  3521 0001:0000809B  3522 0001:0000809D
  3523 0001:000080A3  3524 0001:000080A6  3525 0001:000080A8  3526 0001:000080AA
  3527 0001:000080AC  3528 0001:000080AE  3529 0001:000080B0  3530 0001:000080B2
  3531 0001:000080B4  3532 0001:000080BA  3533 0001:000080BC  3534 0001:000080BF
  3535 0001:000080C2  3536 0001:000080C4  3538 0001:000080C6  3539 0001:000080C9
  3540 0001:000080CC  3541 0001:000080CF  3543 0001:000080D1  3544 0001:000080D5
  3546 0001:000080D7  3547 0001:000080D9  3548 0001:000080DC  3550 0001:000080E1
  3551 0001:000080E3  3552 0001:000080E6  3553 0001:000080EA  3554 0001:000080ED
  3555 0001:000080F0  3557 0001:000080F3  3558 0001:000080F5  3559 0001:000080FA
  3560 0001:000080FC  3561 0001:00008101  3562 0001:00008103  3563 0001:00008108
  3564 0001:0000810D  3565 0001:0000810F  3566 0001:00008112  3567 0001:00008114
  3568 0001:00008117  3569 0001:0000811B  3570 0001:0000811E  3572 0001:00008120
  3573 0001:00008121  3574 0001:00008122  3575 0001:00008123  3577 0001:00008124
  3578 0001:00008125  3579 0001:00008126  3580 0001:00008127  3581 0001:0000812C
  3616 0001:00008130  3617 0001:00008131  3618 0001:00008132  3619 0001:00008133
  3620 0001:00008135  3621 0001:00008137  3622 0001:00008139  3623 0001:0000813F
  3624 0001:00008142  3625 0001:00008144  3626 0001:00008146  3627 0001:00008148
  3628 0001:0000814A  3629 0001:0000814C  3630 0001:0000814E  3631 0001:00008150
  3632 0001:00008156  3633 0001:00008158  3634 0001:0000815B  3635 0001:0000815E
  3636 0001:00008160  3638 0001:00008162  3639 0001:00008165  3640 0001:00008168
  3641 0001:0000816B  3643 0001:0000816D  3644 0001:00008171  3646 0001:00008173
  3647 0001:00008175  3648 0001:00008178  3650 0001:0000817D  3651 0001:0000817F
  3652 0001:00008182  3653 0001:00008186  3654 0001:00008189  3655 0001:0000818C
  3657 0001:0000818F  3658 0001:00008191  3659 0001:00008196  3660 0001:00008198
  3661 0001:0000819D  3662 0001:0000819F  3663 0001:000081A4  3664 0001:000081A9
  3665 0001:000081AB  3666 0001:000081AE  3667 0001:000081B0  3668 0001:000081B3
  3669 0001:000081B7  3670 0001:000081BA  3672 0001:000081BC  3673 0001:000081BD
  3674 0001:000081BE  3675 0001:000081BF  3677 0001:000081C0  3678 0001:000081C1
  3679 0001:000081C2  3680 0001:000081C3  3681 0001:000081C8  3693 0001:000081CC
  3694 0001:000081CD  3695 0001:000081CE  3696 0001:000081D0  3697 0001:000081D2
  3698 0001:000081D4  3699 0001:000081D6  3700 0001:000081D9  3701 0001:000081DB
  3702 0001:000081DD  3703 0001:000081E0  3704 0001:000081E2  3705 0001:000081E4
  3706 0001:000081E6  3707 0001:000081E8  3708 0001:000081EA  3709 0001:000081EC
  3710 0001:000081EE  3711 0001:000081F2  3712 0001:000081F6  3713 0001:000081F8
  3714 0001:000081F9  3715 0001:000081FA  3777 0001:000081FC  3778 0001:000081FE
  3779 0001:00008200  3780 0001:00008203  3781 0001:00008206  3782 0001:00008209
  3783 0001:0000820C  3784 0001:0000820D  3785 0001:0000820F  3786 0001:00008212
  3787 0001:00008215  3788 0001:00008217  3789 0001:0000821A  3790 0001:0000821D
  3791 0001:00008220  3792 0001:00008222  3794 0001:00008224  3795 0001:00008227
  3796 0001:0000822A  3797 0001:0000822C  3798 0001:00008230  3799 0001:00008234
  3800 0001:00008236  3801 0001:00008239  3802 0001:0000823B  3803 0001:0000823E
  3804 0001:00008241  3805 0001:00008243  3806 0001:00008247  3807 0001:0000824B
  3808 0001:0000824D  3809 0001:00008250  3811 0001:00008252  3812 0001:00008255
  3813 0001:00008257  3814 0001:0000825A  3815 0001:0000825D  3816 0001:0000825F
  3818 0001:00008262  3819 0001:00008265  3820 0001:00008267  3821 0001:0000826B
  3822 0001:0000826F  3823 0001:00008271  3825 0001:00008274  3826 0001:00008277
  3827 0001:00008279  3828 0001:0000827D  3829 0001:00008280  3831 0001:00008282
  3832 0001:00008287  3833 0001:00008288  3835 0001:00008289  3836 0001:0000828B
  3837 0001:0000828C  3865 0001:00008290  3866 0001:00008292  3867 0001:00008294
  3868 0001:00008296  3869 0001:00008298  3870 0001:0000829B  3872 0001:0000829D
  3874 0001:0000829E  3875 0001:000082A0  3876 0001:000082A2  3877 0001:000082A5
  3879 0001:000082A6  3880 0001:000082A7  3881 0001:000082A8  3882 0001:000082A9
  3883 0001:000082AC  3884 0001:000082AF  3885 0001:000082B1  3886 0001:000082B3
  3887 0001:000082B5  3888 0001:000082B7  3889 0001:000082BA  3890 0001:000082BC
  3891 0001:000082BE  3894 0001:000082C0  3895 0001:000082C4  3896 0001:000082C8
  3897 0001:000082CA  3898 0001:000082CC  3899 0001:000082CE  3900 0001:000082D0
  3901 0001:000082D2  3902 0001:000082D4  3903 0001:000082D6  3904 0001:000082D8
  3905 0001:000082DA  3906 0001:000082DC  3908 0001:000082DF  3909 0001:000082E2
  3910 0001:000082E4  3911 0001:000082E7  3912 0001:000082E9  3914 0001:000082EC
  3915 0001:000082EE  3916 0001:000082F0  3917 0001:000082F4  3918 0001:000082F8
  3919 0001:000082FA  3921 0001:000082FC  3922 0001:000082FF  3923 0001:00008302
  3924 0001:00008304  3925 0001:00008306  3926 0001:00008308  3927 0001:0000830A
  3929 0001:0000830D  3930 0001:00008310  3931 0001:00008312  3932 0001:00008315
  3933 0001:00008317  3935 0001:0000831A  3936 0001:0000831C  3938 0001:0000831E
  3939 0001:00008321  3941 0001:00008323  3943 0001:00008325  3944 0001:00008326
  3945 0001:00008327  3946 0001:00008328  3958 0001:0000832C  3959 0001:0000832E
  3960 0001:00008330  3961 0001:00008332  3962 0001:00008334  3963 0001:00008336
  3964 0001:00008338  3965 0001:0000833B  3966 0001:0000833E  3967 0001:00008340
  3968 0001:00008345  3969 0001:00008347  3970 0001:00008349  3971 0001:0000834B
  3972 0001:0000834C  3973 0001:0000834E  3987 0001:00008350  3988 0001:0000835C
  3989 0001:00008379  3990 0001:0000838E  3991 0001:000083A3  4036 0001:000083A8
  4038 0001:000083B4  4044 0001:0000840E  4350 0001:00008418  4351 0001:00008424
  4352 0001:00008441  4353 0001:0000844A  4354 0001:00008462  4356 0001:00008474
  4357 0001:00008484  4359 0001:0000849A  4364 0001:000084A0  4365 0001:000084AC
  4366 0001:000084B7  4367 0001:000084C0  4368 0001:000084D9  4369 0001:000084E1
  4372 0001:000084EB  4373 0001:000084FC  4375 0001:00008512  4630 0001:00008518
  4631 0001:0000851A  4632 0001:0000851C  4633 0001:0000851E  4634 0001:00008520
  4635 0001:00008522  4636 0001:00008527  4637 0001:00008529  4638 0001:0000852A
  4639 0001:0000852B  4640 0001:0000852D  4641 0001:0000852E  4644 0001:00008533
  4645 0001:00008534  4646 0001:00008535  4647 0001:00008537  4648 0001:00008539
  4649 0001:0000853A  4650 0001:0000853D  4651 0001:00008540  4652 0001:00008542
  4653 0001:00008545  4654 0001:00008547  4655 0001:00008549  4656 0001:0000854B
  4657 0001:0000854C  4658 0001:0000854D  4659 0001:0000854F  4660 0001:00008551
  4661 0001:00008553  4662 0001:00008555  4663 0001:00008557  4664 0001:00008559
  4665 0001:0000855B  4666 0001:0000855E  4667 0001:0000855F  4668 0001:00008561
  4670 0001:00008563  4730 0001:00008564  4731 0001:00008565  4732 0001:00008567
  4733 0001:0000856A  4734 0001:0000856C  4735 0001:0000856D  4736 0001:0000856F
  4737 0001:00008574  4738 0001:00008576  4739 0001:00008577  4740 0001:0000857C
  4741 0001:0000857F  4742 0001:00008580  4858 0001:00008584  4859 0001:00008586
  4860 0001:00008588  4861 0001:0000858D  4862 0001:00008594  4863 0001:00008596
  4864 0001:00008599  4865 0001:0000859B  4866 0001:0000859D  4867 0001:000085A0
  4868 0001:000085A5  4869 0001:000085A9  4870 0001:000085AE  4871 0001:000085B2
  4872 0001:000085B3  4873 0001:000085B4  4874 0001:000085B7  4877 0001:000085B8
  4878 0001:000085B9  4879 0001:000085BC  4880 0001:000085C0  4881 0001:000085C3
  4882 0001:000085C9  4884 0001:000085CC  4885 0001:000085D0  4886 0001:000085D2
  4887 0001:000085D9  4888 0001:000085DB  4889 0001:000085DE  4890 0001:000085E0
  4891 0001:000085E8  4892 0001:000085ED  4893 0001:000085F2  4894 0001:000085F6
  4895 0001:000085F9  4896 0001:000085FB  4897 0001:000085FD  4898 0001:00008600
  4900 0001:00008602  4902 0001:00008604  4903 0001:00008607  4905 0001:00008609
  4906 0001:0000860A  4907 0001:0000860C  4908 0001:0000860F  4909 0001:00008611
  4910 0001:00008614  4911 0001:00008616  4912 0001:00008618  4913 0001:0000861A
  4915 0001:0000861C  4916 0001:0000861E  4917 0001:00008620  4918 0001:00008622
  4919 0001:00008625  4920 0001:00008626  4922 0001:00008628  4923 0001:0000862C
  4925 0001:0000862F  4926 0001:00008631  4927 0001:00008633  4928 0001:00008635
  4930 0001:00008637  4931 0001:00008638  4932 0001:0000863A  4933 0001:0000863C
  4934 0001:0000863E  4935 0001:00008640  4936 0001:00008642  4937 0001:00008644
  4938 0001:00008646  4939 0001:00008649  4940 0001:0000864A  4941 0001:0000864C
  4943 0001:0000864E  4947 0001:00008650  4948 0001:00008653  4949 0001:00008654
  4950 0001:00008656  4951 0001:00008659  4952 0001:0000865B  4953 0001:0000865C
  4954 0001:0000865E  4955 0001:00008661  4957 0001:00008666  4958 0001:00008668
  4959 0001:00008669  4960 0001:0000866E  4961 0001:00008671  4962 0001:00008672
  4967 0001:00008678  4968 0001:0000867B  4969 0001:0000867D  4970 0001:0000867F
  4971 0001:00008680  4972 0001:00008682  4973 0001:00008685  4974 0001:00008686
  4975 0001:0000868B  4976 0001:00008690  4977 0001:00008692  4978 0001:00008693
  4979 0001:00008698  4980 0001:0000869B  4981 0001:0000869C  5008 0001:000086A0
  5009 0001:000086A9  5010 0001:000086B7  5011 0001:000086D6  5016 0001:000086E0
  5017 0001:000086EC  5018 0001:000086FA  5019 0001:00008706  5024 0001:00008710
  5025 0001:0000871C  5026 0001:0000872C  5027 0001:00008734  5048 0001:0000873C
  5049 0001:00008748  5050 0001:0000875B  5051 0001:00008763  5054 0001:0000876C
  5055 0001:0000876F  5057 0001:0000877D  5058 0001:00008797  5060 0001:000087A6
  5062 0001:000087B4  5063 0001:000087CE  5065 0001:000087DD  5083 0001:00008800
  5084 0001:0000880C  5085 0001:00008810  5086 0001:00008826  5088 0001:000088A3
  5089 0001:000088A7  5090 0001:000088A9  5085 0001:000088AC  5091 0001:000088B5
  5094 0001:000088BC  5095 0001:000088C8  5096 0001:000088D6  5097 0001:000088DC
  5100 0001:000088F1  5101 0001:000088F6  5102 0001:00008911  5103 0001:00008917
  5106 0001:0000891F  5107 0001:0000893A  5108 0001:00008940  5111 0001:00008946
  5116 0001:0000896C  5117 0001:0000897B  5119 0001:00008981  5120 0001:00008986
  5121 0001:0000898C  5123 0001:0000899E  5126 0001:000089B0  5127 0001:000089C4
  5200 0001:000089C8  5201 0001:000089D4  5202 0001:000089DB  5204 0001:000089F3
  5207 0001:00008A30  5278 0001:00008A38  5280 0001:00008A47  5281 0001:00008A62
  5286 0001:00008A69  5289 0001:00008A70  5291 0001:00008A7F  5292 0001:00008A9A
  5297 0001:00008AA1  5311 0001:00008AA8  5312 0001:00008AB4  5313 0001:00008AC0
  5315 0001:00008AD8  5316 0001:00008AE7  5317 0001:00008AEE  5796 0001:00008AFC
  5797 0001:00008B05  5798 0001:00008B22  5800 0001:00008B2A  5801 0001:00008B3C
  5804 0001:00008B4B  5805 0001:00008B50  5810 0001:00008B58  5811 0001:00008B64
  5812 0001:00008B81  5813 0001:00008B8C  5815 0001:00008B92  5817 0001:00008BB5
  5818 0001:00008BC4  5830 0001:00008BC7  5813 0001:00008BCA  5832 0001:00008BD0
  5851 0001:00008BD8  5852 0001:00008BE4  5853 0001:00008BF4  5854 0001:00008C08
  5897 0001:00008C18  5898 0001:00008C24  5899 0001:00008C34  5900 0001:00008C49
  5905 0001:00008C5C  5906 0001:00008C68  5907 0001:00008C78  5908 0001:00008C8B
  5909 0001:00008CA1  5910 0001:00008CA9  5917 0001:00008CBC  5918 0001:00008CCB
  5920 0001:00008CF9  6318 0001:00008D00  6319 0001:00008D06  6320 0001:00008D0C
  6322 0001:00008D14  6323 0001:00008D19  6325 0001:00008D35  6326 0001:00008D43
  6327 0001:00008D5D  6328 0001:00008D77  6470 0001:00008D80  6471 0001:00008D82
  6472 0001:00008D84  6473 0001:00008D89  6474 0001:00008D8B  6475 0001:00008D8D
  6476 0001:00008D92  6477 0001:00008D94  6478 0001:00008D96  6492 0001:00008D98
  6493 0001:00008DA7  6494 0001:00008DAD  6495 0001:00008DBB  6522 0001:00008DC4
  6523 0001:00008DC6  6524 0001:00008DCB  6525 0001:00008DCC  6526 0001:00008DCE
  6527 0001:00008DD2  6528 0001:00008DD4  6529 0001:00008DD6  6530 0001:00008DD8
  6532 0001:00008DD9  6533 0001:00008DDD  6534 0001:00008DDF  6535 0001:00008DE1
  6536 0001:00008DE5  6537 0001:00008DE8  6538 0001:00008DEB  6539 0001:00008DF1
  6541 0001:00008DF3  6542 0001:00008DF4  6544 0001:00008DF5  6545 0001:00008DF7
  6546 0001:00008DF8  6573 0001:00008DFC  6574 0001:00008DFD  6575 0001:00008DFE
  6576 0001:00008DFF  6577 0001:00008E01  6578 0001:00008E03  6579 0001:00008E05
  6580 0001:00008E07  6581 0001:00008E09  6582 0001:00008E0B  6583 0001:00008E0D
  6584 0001:00008E0F  6585 0001:00008E10  6586 0001:00008E12  6587 0001:00008E14
  6588 0001:00008E16  6589 0001:00008E18  6590 0001:00008E1A  6591 0001:00008E1D
  6592 0001:00008E1F  6593 0001:00008E21  6594 0001:00008E24  6595 0001:00008E26
  6596 0001:00008E27  6597 0001:00008E29  6598 0001:00008E2A  6599 0001:00008E2B
  6600 0001:00008E2C  6665 0001:00008E30  6666 0001:00008E32  6667 0001:00008E34
  6668 0001:00008E36  6670 0001:00008E37  6671 0001:00008E3B  6672 0001:00008E3D
  6673 0001:00008E3F  6674 0001:00008E41  6675 0001:00008E43  6676 0001:00008E48
  6677 0001:00008E4B  6678 0001:00008E4D  6679 0001:00008E4F  6680 0001:00008E51
  6681 0001:00008E56  6682 0001:00008E59  6683 0001:00008E5B  6684 0001:00008E5D
  6685 0001:00008E5F  6686 0001:00008E64  6687 0001:00008E67  6688 0001:00008E69
  6689 0001:00008E6C  6690 0001:00008E6E  6691 0001:00008E70  6692 0001:00008E74
  6693 0001:00008E76  6694 0001:00008E78  6695 0001:00008E7A  6696 0001:00008E7C
  6697 0001:00008E81  6698 0001:00008E84  6699 0001:00008E86  6700 0001:00008E88
  6701 0001:00008E8A  6702 0001:00008E8F  6703 0001:00008E92  6704 0001:00008E94
  6705 0001:00008E96  6706 0001:00008E98  6707 0001:00008E9D  6708 0001:00008EA0
  6709 0001:00008EA2  6710 0001:00008EA5  6711 0001:00008EA7  6713 0001:00008EA9
  6715 0001:00008EAC  6717 0001:00008EAF  6719 0001:00008EB2  6721 0001:00008EB5
  6722 0001:00008EB8  6724 0001:00008EBA  6728 0001:00008EBC  6729 0001:00008EBD
  6730 0001:00008EBE  6731 0001:00008EC0  6732 0001:00008EC2  6733 0001:00008EC7
  6734 0001:00008EC9  6735 0001:00008ECB  6736 0001:00008ECD  6737 0001:00008ECF
  6738 0001:00008ED1  6739 0001:00008ED3  6740 0001:00008ED5  6741 0001:00008ED8
  6742 0001:00008EDA  6743 0001:00008EDC  6744 0001:00008EDE  6745 0001:00008EE0
  6746 0001:00008EE2  6747 0001:00008EE5  6748 0001:00008EE8  6749 0001:00008EEA
  6750 0001:00008EED  6751 0001:00008EEF  6752 0001:00008EF2  6753 0001:00008EF4
  6754 0001:00008EF6  6755 0001:00008EF7  6756 0001:00008EF8  6760 0001:00008EFC
  6761 0001:00008EFD  6762 0001:00008EFE  6763 0001:00008EFF  6764 0001:00008F01
  6765 0001:00008F03  6766 0001:00008F05  6767 0001:00008F07  6768 0001:00008F09
  6769 0001:00008F0B  6770 0001:00008F0D  6771 0001:00008F0F  6772 0001:00008F11
  6773 0001:00008F13  6774 0001:00008F15  6775 0001:00008F17  6776 0001:00008F1A
  6777 0001:00008F1D  6778 0001:00008F1F  6779 0001:00008F20  6780 0001:00008F21
  6781 0001:00008F22  6785 0001:00008F24  6786 0001:00008F25  6787 0001:00008F26
  6788 0001:00008F27  6789 0001:00008F29  6790 0001:00008F2B  6791 0001:00008F2D
  6792 0001:00008F2F  6793 0001:00008F31  6794 0001:00008F33  6795 0001:00008F35
  6796 0001:00008F37  6797 0001:00008F39  6798 0001:00008F3B  6799 0001:00008F3D
  6800 0001:00008F3F  6801 0001:00008F41  6802 0001:00008F44  6803 0001:00008F46
  6804 0001:00008F48  6805 0001:00008F4A  6806 0001:00008F4C  6807 0001:00008F4E
  6808 0001:00008F51  6809 0001:00008F54  6810 0001:00008F56  6811 0001:00008F59
  6812 0001:00008F5B  6813 0001:00008F5E  6814 0001:00008F60  6815 0001:00008F62
  6816 0001:00008F63  6817 0001:00008F64  6818 0001:00008F65  6821 0001:00008F68
  6822 0001:00008F74  6825 0001:00008F7C  6827 0001:00008F84  6828 0001:00008F89
  6830 0001:00008F8B  6823 0001:00008F8E  6832 0001:00008F98  6861 0001:00008FA0
  6862 0001:00008FA1  6863 0001:00008FA2  6864 0001:00008FA3  6865 0001:00008FA5
  6866 0001:00008FA7  6867 0001:00008FA9  6868 0001:00008FAB  6869 0001:00008FAD
  6870 0001:00008FAF  6871 0001:00008FB1  6872 0001:00008FB6  6873 0001:00008FB8
  6874 0001:00008FBA  6875 0001:00008FBB  6876 0001:00008FBD  6877 0001:00008FBF
  6878 0001:00008FC1  6879 0001:00008FC6  6880 0001:00008FC8  6881 0001:00008FCA
  6882 0001:00008FCC  6883 0001:00008FCE  6884 0001:00008FD0  6885 0001:00008FD3
  6886 0001:00008FD5  6887 0001:00008FD6  6888 0001:00008FD8  6889 0001:00008FDA
  6890 0001:00008FDC  6891 0001:00008FDD  6892 0001:00008FDF  6893 0001:00008FE1
  6894 0001:00008FE2  6895 0001:00008FE4  6896 0001:00008FE6  6897 0001:00008FE9
  6898 0001:00008FEB  6899 0001:00008FED  6900 0001:00008FEE  6901 0001:00008FEF
  6902 0001:00008FF0  6943 0001:00008FF4  6944 0001:00009000  6945 0001:0000900B
  6948 0001:00009010  6949 0001:00009019  6950 0001:0000901D  6951 0001:00009028
  6952 0001:00009030  6953 0001:00009034  6967 0001:0000903C  6968 0001:00009045
  6970 0001:00009052  6971 0001:0000905E  6973 0001:00009074  6992 0001:0000907C
  6993 0001:0000908B  6994 0001:00009098  6995 0001:000090AB  6996 0001:000090B9
  6997 0001:000090C1  6998 0001:000090DF  7001 0001:000090E4  7002 0001:000090F1
  7003 0001:000090FB  7005 0001:0000910D  7006 0001:00009114  7009 0001:0000911C
  7010 0001:00009123  7011 0001:0000912B  7034 0001:00009130  7035 0001:0000913C
  7036 0001:0000913D  7037 0001:0000913E  7038 0001:0000913F  7039 0001:00009141
  7045 0001:00009143  7047 0001:00009145  7048 0001:00009148  7049 0001:0000914B
  7050 0001:0000914E  7051 0001:00009150  7052 0001:00009153  7053 0001:00009156
  7056 0001:00009159  7057 0001:0000915B  7060 0001:0000915D  7061 0001:0000915F
  7062 0001:00009161  7063 0001:00009162  7064 0001:00009164  7067 0001:00009166
  7068 0001:00009167  7069 0001:00009168  7072 0001:0000916A  7073 0001:0000916C
  7074 0001:0000916F  7077 0001:00009174  7078 0001:00009176  7079 0001:00009178
  7080 0001:00009179  7081 0001:0000917B  7082 0001:0000917D  7083 0001:00009180
  7084 0001:00009183  7085 0001:00009186  7086 0001:00009188  7087 0001:0000918A
  7088 0001:0000918C  7089 0001:0000918E  7090 0001:0000918F  7091 0001:00009194
  7092 0001:00009196  7093 0001:00009198  7094 0001:0000919B  7095 0001:0000919D
  7096 0001:0000919F  7097 0001:000091A0  7099 0001:000091A2  7100 0001:000091A5
  7101 0001:000091AA  7102 0001:000091AC  7103 0001:000091AE  7104 0001:000091B0
  7105 0001:000091B2  7106 0001:000091B3  7107 0001:000091B8  7108 0001:000091BB
  7109 0001:000091BE  7110 0001:000091BF  7112 0001:000091C0  7114 0001:000091C5
  7115 0001:000091C6  7116 0001:000091C9  7117 0001:000091CB  7118 0001:000091CD
  7120 0001:000091CF  7121 0001:000091D3  7122 0001:000091D5  7123 0001:000091D7
  7124 0001:000091D9  7125 0001:000091DB  7127 0001:000091DD  7129 0001:000091DF
  7130 0001:000091E1  7131 0001:000091E3  7132 0001:000091E5  7133 0001:000091E7
  7134 0001:000091E9  7135 0001:000091EB  7136 0001:000091ED  7137 0001:000091EF
  7138 0001:000091F1  7139 0001:000091F3  7140 0001:000091F5  7141 0001:000091F7
  7142 0001:000091F9  7143 0001:000091FD  7144 0001:000091FF  7145 0001:00009200
  7148 0001:00009203  7150 0001:00009208  7151 0001:00009209  7152 0001:0000920A
  7153 0001:0000920D  7156 0001:00009212  7157 0001:00009214  7158 0001:00009216
  7159 0001:00009218  7160 0001:0000921A  7161 0001:0000921C  7162 0001:0000921E
  7163 0001:00009220  7164 0001:00009226  7165 0001:00009228  7166 0001:0000922B
  7167 0001:0000922D  7168 0001:0000922F  7169 0001:00009231  7170 0001:00009232
  7171 0001:00009234  7172 0001:00009235  7173 0001:0000923A  7174 0001:0000923D
  7175 0001:00009240  7176 0001:00009242  7177 0001:00009245  7178 0001:00009248
  7179 0001:0000924D  7180 0001:00009250  7181 0001:00009252  7182 0001:00009254
  7183 0001:00009256  7184 0001:00009258  7185 0001:00009259  7188 0001:0000925A
  7189 0001:0000925C  7190 0001:0000925E  7191 0001:00009263  7192 0001:00009266
  7193 0001:00009269  7194 0001:0000926B  7195 0001:0000926E  7196 0001:00009271
  7197 0001:00009274  7198 0001:00009276  7206 0001:0000927A  7210 0001:00009281
  7211 0001:00009285  7212 0001:00009289  7213 0001:0000928D  7214 0001:00009291
  7215 0001:00009295  7216 0001:00009299  7217 0001:0000929D  7218 0001:000092A1
  7219 0001:000092A5  7220 0001:000092A9  7221 0001:000092AD  7222 0001:000092B1
  7223 0001:000092B5  7224 0001:000092B9  7225 0001:000092BD  7226 0001:000092C1
  7234 0001:000092C5  7237 0001:000092C7  7238 0001:000092CC  7239 0001:000092CF
  7240 0001:000092D2  7258 0001:000092D4  7259 0001:000092D7  7268 0001:000092DC
  7269 0001:000092DF  7270 0001:000092E2  7271 0001:000092E5  7272 0001:000092E7
  7273 0001:000092E9  7274 0001:000092EB  7275 0001:000092EE  7276 0001:000092F4
  7277 0001:000092F9  7278 0001:000092FC  7279 0001:00009302  7280 0001:00009307
  7281 0001:0000930A  7282 0001:00009310  7388 0001:00009312  7389 0001:00009315
  7390 0001:00009318  7391 0001:0000931A  7392 0001:0000931D  7393 0001:0000931F
  7394 0001:00009321  7395 0001:00009324  7396 0001:0000932A  7397 0001:0000932F
  7398 0001:00009332  7399 0001:00009338  7400 0001:0000933D  7401 0001:00009340
  7402 0001:00009346  7452 0001:0000934B  7453 0001:0000934E  7454 0001:00009354
  7455 0001:00009359  7458 0001:0000935A  7459 0001:0000935D  7460 0001:00009363
  7461 0001:00009367  7462 0001:00009369  7463 0001:0000936B  7466 0001:0000936E
  7468 0001:00009373  7469 0001:00009376  7472 0001:00009378  7473 0001:0000937A
  7476 0001:0000937B  7477 0001:0000937E  7478 0001:00009384  7479 0001:00009386
  7480 0001:00009387  7481 0001:0000938A  7484 0001:0000938C  7485 0001:00009391
  7488 0001:00009393  7491 0001:00009398  7495 0001:0000939B  7496 0001:0000939E
  7497 0001:000093A4  7498 0001:000093A6  7499 0001:000093A9  7500 0001:000093AA
  7501 0001:000093AD  7502 0001:000093AF  7503 0001:000093B0  7504 0001:000093B3
  7505 0001:000093B5  7508 0001:000093B7  7509 0001:000093BA  7510 0001:000093C0
  7513 0001:000093C2  7514 0001:000093C4  7515 0001:000093C6  7518 0001:000093C9
  7519 0001:000093CC  7520 0001:000093CE  7521 0001:000093CF  7522 0001:000093D2
  7525 0001:000093D3  7526 0001:000093D6  7527 0001:000093DC  7528 0001:000093DE
  7529 0001:000093DF  7530 0001:000093E1  7531 0001:000093E3  7532 0001:000093E6
  7533 0001:000093E8  7534 0001:000093EA  7535 0001:000093EC  7536 0001:000093ED
  7537 0001:000093EF  7538 0001:000093F1  7539 0001:000093F2  7542 0001:000093F3
  7543 0001:000093F6  7544 0001:000093FC  7545 0001:00009401  7546 0001:00009406
  7547 0001:00009409  7550 0001:0000940E  7551 0001:00009410  7554 0001:00009412
  7557 0001:00009414  7558 0001:00009416  7559 0001:00009418  7560 0001:0000941B
  7561 0001:0000941D  7562 0001:0000941F  7563 0001:00009422  7564 0001:00009424
  7565 0001:00009426  7566 0001:00009429  7567 0001:0000942B  7568 0001:0000942D
  7569 0001:00009430  7570 0001:00009432  7571 0001:00009435  7572 0001:0000943B
  7573 0001:0000943D  7574 0001:00009442  7575 0001:00009445  7576 0001:00009447
  7577 0001:00009449  7578 0001:0000944E  7579 0001:00009451  7580 0001:00009453
  7581 0001:0000945A  7582 0001:0000945C  7583 0001:0000945F  7584 0001:00009464
  7585 0001:00009467  7586 0001:00009469  7587 0001:0000946E  7588 0001:0000946F
  7589 0001:00009470  7590 0001:00009471  7591 0001:00009474  7592 0001:00009476
  7593 0001:00009479  7594 0001:0000947C  7595 0001:00009481  7596 0001:00009483
  7597 0001:00009486  7600 0001:00009487  7601 0001:00009488  7602 0001:00009489
  7603 0001:0000948C  7604 0001:0000948F  7605 0001:00009494  7606 0001:00009495
  7607 0001:00009496  7610 0001:00009497  7611 0001:0000949C  7612 0001:0000949D
  7613 0001:0000949E  7614 0001:0000949F  8092 0001:000094A8  8093 0001:000094B7
  8095 0001:000094C3  8096 0001:000094E9  8099 0001:000094F1  8100 0001:000094F6
  8116 0001:00009500  8117 0001:0000950F  8118 0001:00009521  8131 0001:00009528
  8132 0001:0000953E  8133 0001:00009545  8134 0001:00009565  8137 0001:000095A0
  8138 0001:000095BD  8140 0001:000095C3  8144 0001:000095CE  8145 0001:000095D4
  8146 0001:000095DC  8147 0001:000095E7  8142 0001:0000961E  8150 0001:00009627
  8153 0001:00009634  8154 0001:00009645  9215 0001:0000964C  9224 0001:0000964D
  9226 0001:0000964F  9227 0001:00009650  9228 0001:00009652  9229 0001:00009654
  9230 0001:00009656  9231 0001:00009658  9232 0001:0000965A  9233 0001:0000965C
  9234 0001:0000965E  9235 0001:00009660  9236 0001:00009662  9237 0001:00009664
  9238 0001:00009666  9239 0001:00009668  9240 0001:00009669  9241 0001:0000966A
  9242 0001:0000966B  9243 0001:0000966D  9244 0001:0000966F  9245 0001:00009675
  9246 0001:00009678  9247 0001:0000967A  9248 0001:0000967B  9249 0001:0000967C
  9250 0001:0000967E  9251 0001:00009680  9252 0001:00009682  9253 0001:00009684
  9254 0001:00009685  9255 0001:00009687  9256 0001:00009688  9257 0001:0000968A
  9258 0001:0000968C  9259 0001:0000968D  9260 0001:0000968E  9273 0001:00009690
  9274 0001:00009696  9275 0001:00009697  9276 0001:00009698  9277 0001:00009699
  9299 0001:0000969C  9300 0001:000096A1  9301 0001:000096A4  9302 0001:000096A9
  9303 0001:000096AC  9304 0001:000096B1  9305 0001:000096B4  9306 0001:000096B9
  9307 0001:000096BC  9308 0001:000096C1  9309 0001:000096C4  9311 0001:000096CB
  9312 0001:000096D0  9313 0001:000096D3  9314 0001:000096D5  9315 0001:000096D8
  9316 0001:000096DB  9317 0001:000096DD  9318 0001:000096E2  9319 0001:000096E5
  9320 0001:000096E7  9321 0001:000096EC  9322 0001:000096EF  9323 0001:000096F0
  9324 0001:000096F5  9325 0001:000096F9  9326 0001:000096FB  9327 0001:000096FE
  9328 0001:000096FF  9329 0001:00009702  9330 0001:00009707  9331 0001:0000970A
  9332 0001:0000970E  9333 0001:00009713  9334 0001:00009716  9335 0001:00009718
  9336 0001:0000971A  9337 0001:0000971F  9338 0001:00009726  9339 0001:00009729
  9340 0001:0000972E  9341 0001:00009730  9342 0001:00009732  9343 0001:00009735
  9344 0001:00009739  9345 0001:0000973C  9346 0001:0000973E  9347 0001:00009741
  9348 0001:00009743  9349 0001:00009747  9350 0001:0000974A  9351 0001:0000974C
  9352 0001:0000974E  9353 0001:00009755  9354 0001:00009758  9355 0001:0000975A
  9356 0001:0000975D  9357 0001:0000975F  9358 0001:00009761  9359 0001:00009764
  9360 0001:00009765  9361 0001:00009766  9362 0001:00009767  9365 0001:0000976C
  9366 0001:00009770  9367 0001:00009774  9368 0001:00009778  9369 0001:0000977C
  9371 0001:00009780  9377 0001:00009786  9378 0001:00009787  9379 0001:00009789
  9380 0001:0000978B  9381 0001:0000978D  9382 0001:0000978E  9388 0001:0000978F
  9389 0001:00009793  9390 0001:00009795  9391 0001:00009797  9392 0001:00009798
  9398 0001:00009799  9399 0001:0000979E  9400 0001:000097A2  9401 0001:000097A4
  9402 0001:000097A7  9403 0001:000097A9  9404 0001:000097AC  9405 0001:000097AE
  9406 0001:000097B0  9407 0001:000097B2  9408 0001:000097B4  9409 0001:000097B5
  9410 0001:000097B8  9411 0001:000097BA  9412 0001:000097BD  9413 0001:000097BE
  9414 0001:000097C0  9415 0001:000097C2  9416 0001:000097C4  9417 0001:000097C6
  9418 0001:000097CB  9419 0001:000097CC  9420 0001:000097CD  9421 0001:000097CF
  9422 0001:000097D1  9423 0001:000097D2  9424 0001:000097D4  9425 0001:000097D5
  9426 0001:000097D7  9427 0001:000097D9  9428 0001:000097DB  9429 0001:000097DE
  9430 0001:000097E0  9431 0001:000097E1  9432 0001:000097E3  9433 0001:000097E5
  9434 0001:000097E6  9435 0001:000097E8  9436 0001:000097EA  9437 0001:000097EC
  9438 0001:000097EE  9439 0001:000097F0  9440 0001:000097F2  9441 0001:000097F4
  9447 0001:000097F5  9448 0001:000097FA  9449 0001:000097FF  9450 0001:00009802
  9451 0001:00009804  9452 0001:00009807  9453 0001:00009808  9454 0001:0000980D
  9455 0001:0000980E  9456 0001:00009810  9460 0001:00009812  9461 0001:00009815
  9462 0001:00009818  9463 0001:0000981A  9471 0001:0000981C  9472 0001:0000981E
  9473 0001:00009821  9474 0001:00009825  9475 0001:00009826  9476 0001:0000982B
  9483 0001:0000982C  9489 0001:00009831  9490 0001:00009834  9491 0001:00009837
  9492 0001:00009839  9493 0001:0000983E  9494 0001:00009842  9495 0001:00009844
  9496 0001:00009846  9497 0001:00009848  9498 0001:00009849  9499 0001:0000984B
  9500 0001:0000984D  9501 0001:00009851  9502 0001:00009853  9503 0001:00009855
  9504 0001:00009856  9505 0001:00009858  9506 0001:0000985A  9507 0001:0000985C
  9508 0001:0000985D  9509 0001:00009862  9510 0001:00009863  9511 0001:00009864
  9512 0001:00009866  9513 0001:00009867  9514 0001:00009869  9515 0001:0000986C
  9516 0001:0000986E  9517 0001:00009870  9518 0001:00009871  9519 0001:00009873
  9520 0001:00009875  9521 0001:00009877  9522 0001:00009879  9523 0001:0000987C
  9524 0001:0000987E  9525 0001:00009880  9526 0001:00009881  9527 0001:00009883
  9528 0001:00009885  9529 0001:00009886  9530 0001:00009887  9531 0001:00009889
  9532 0001:0000988A  9533 0001:0000988C  9534 0001:00009891  9535 0001:00009892
  9536 0001:00009893  9537 0001:00009895  9543 0001:00009896  9544 0001:00009898
  9545 0001:0000989B  9546 0001:000098A0  9547 0001:000098A4  9548 0001:000098A6
  9549 0001:000098A9  9550 0001:000098AE  9551 0001:000098B0  9552 0001:000098B2
  9553 0001:000098B4  9554 0001:000098B6  9555 0001:000098BD  9556 0001:000098C0
  9557 0001:000098C5  9558 0001:000098C7  9559 0001:000098C9  9560 0001:000098CB
  9561 0001:000098CC  9562 0001:000098CD  9563 0001:000098CF  9564 0001:000098D1
  9565 0001:000098D3  9566 0001:000098D5  9567 0001:000098D6  9568 0001:000098D8
  9569 0001:000098DD  9570 0001:000098DF  9571 0001:000098E4  9572 0001:000098E5
  9573 0001:000098E6  9574 0001:000098E7  9575 0001:000098E9  9581 0001:000098EA
  9582 0001:000098EB  9583 0001:000098EE  9584 0001:000098F0  9585 0001:000098F2
  9586 0001:000098F5  9587 0001:000098F7  9588 0001:000098F8  9593 0001:000098F9
  9594 0001:000098FE  9595 0001:00009903  9596 0001:00009908  9597 0001:0000990D
  9598 0001:00009912  9599 0001:00009917  9600 0001:0000991C  9601 0001:00009921
  9602 0001:00009926  9603 0001:0000992B  9604 0001:00009930  9605 0001:00009935
  9606 0001:0000993A  9607 0001:0000993F  9608 0001:00009944  9609 0001:00009949
  9610 0001:0000994E  9611 0001:00009953  9612 0001:00009958  9615 0001:0000995D
 10693 0001:00009964 10694 0001:0000996A 10695 0001:0000996B 10696 0001:0000996C
 10697 0001:0000996D 10698 0001:0000996F 10705 0001:00009971 10707 0001:00009978
 10708 0001:0000997B 10709 0001:0000997D 10710 0001:00009982 10711 0001:00009987
 10712 0001:0000998C 10718 0001:00009991 10719 0001:00009995 10720 0001:00009997
 10721 0001:0000999C 10722 0001:0000999E 10723 0001:000099A3 10725 0001:000099A5
 10726 0001:000099AB 10729 0001:000099AD 10730 0001:000099B0 10731 0001:000099B2
 10732 0001:000099B9 10733 0001:000099BB 10734 0001:000099BC 10735 0001:000099BE
 10736 0001:000099C2 10737 0001:000099C7 10738 0001:000099C9 10739 0001:000099CE
 10740 0001:000099D4 10741 0001:000099D7 10742 0001:000099D8 10743 0001:000099DB
 10744 0001:000099E0 10745 0001:000099E3 10746 0001:000099E5 10747 0001:000099E6
 10748 0001:000099E9 10749 0001:000099EE 10750 0001:000099EF 10751 0001:000099F1
 10752 0001:000099F4 10753 0001:000099FA 10754 0001:000099FC 10755 0001:00009A00
 10756 0001:00009A01 10757 0001:00009A07 10758 0001:00009A09 10759 0001:00009A0F
 10760 0001:00009A12 10761 0001:00009A15 10762 0001:00009A18 10763 0001:00009A1D
 10764 0001:00009A1E 10765 0001:00009A22 10766 0001:00009A24 10767 0001:00009A27
 10768 0001:00009A2A 10769 0001:00009A2E 10770 0001:00009A30 10771 0001:00009A31
 10772 0001:00009A33 10773 0001:00009A35 10774 0001:00009A36 10775 0001:00009A39
 10776 0001:00009A3C 10777 0001:00009A3E 10778 0001:00009A40 10779 0001:00009A45
 10780 0001:00009A48 10781 0001:00009A4A 10782 0001:00009A4D 10783 0001:00009A50
 10784 0001:00009A52 10785 0001:00009A57 10786 0001:00009A59 10787 0001:00009A5E
 10788 0001:00009A5F 10789 0001:00009A61 10790 0001:00009A65 10791 0001:00009A6A
 10792 0001:00009A6C 10793 0001:00009A6E 10794 0001:00009A74 10795 0001:00009A77
 10796 0001:00009A79 10797 0001:00009A7E 10798 0001:00009A83 10799 0001:00009A84
 10800 0001:00009A86 10801 0001:00009A8B 10802 0001:00009A8D 10804 0001:00009A91
 10805 0001:00009A94 10806 0001:00009A98 10807 0001:00009A9B 10808 0001:00009A9E
 10809 0001:00009A9F 10810 0001:00009AA1 10813 0001:00009AA3 10814 0001:00009AA7
 10815 0001:00009AAB 10816 0001:00009AAF 10822 0001:00009AB3 10823 0001:00009AB5
 10824 0001:00009AB8 10825 0001:00009ABA 10826 0001:00009ABC 10827 0001:00009AC2
 10828 0001:00009AC4 10829 0001:00009AC6 10830 0001:00009AC8 10831 0001:00009ACA
 10832 0001:00009ACD 10833 0001:00009ACF 10834 0001:00009AD2 10835 0001:00009AD4
 10836 0001:00009AD6 10837 0001:00009AD8 10838 0001:00009ADB 10839 0001:00009ADD
 10840 0001:00009AE2 10841 0001:00009AE3 10842 0001:00009AE8 10843 0001:00009AEE
 10844 0001:00009AF0 10845 0001:00009AF1 10846 0001:00009AF6 10847 0001:00009AFC
 10848 0001:00009AFF 10849 0001:00009B02 10850 0001:00009B05 10851 0001:00009B07
 10852 0001:00009B0C 10853 0001:00009B0E 10854 0001:00009B10 10855 0001:00009B13
 10856 0001:00009B1A 10857 0001:00009B1D 10858 0001:00009B20 10859 0001:00009B21
 10860 0001:00009B23 10861 0001:00009B25 10862 0001:00009B2A 10863 0001:00009B2E
 10864 0001:00009B30 10865 0001:00009B33 10866 0001:00009B35 10867 0001:00009B37
 10868 0001:00009B39 10869 0001:00009B3B 10870 0001:00009B3C 10871 0001:00009B3E
 10872 0001:00009B40 10873 0001:00009B42 10874 0001:00009B44 10875 0001:00009B45
 10876 0001:00009B4A 10877 0001:00009B4E 10878 0001:00009B50 10879 0001:00009B53
 10880 0001:00009B55 10881 0001:00009B56 10882 0001:00009B58 10883 0001:00009B5A
 10884 0001:00009B5C 10885 0001:00009B5D 10886 0001:00009B5E 10887 0001:00009B60
 10888 0001:00009B62 10889 0001:00009B66 10890 0001:00009B68 10891 0001:00009B6B
 10892 0001:00009B6C 10893 0001:00009B6F 10894 0001:00009B71 10895 0001:00009B74
 10896 0001:00009B77 10897 0001:00009B79 10898 0001:00009B7B 10899 0001:00009B7D
 10900 0001:00009B80 10901 0001:00009B83 10902 0001:00009B86 10905 0001:00009B87
 10906 0001:00009B88 10907 0001:00009B89 10908 0001:00009B8A 10926 0001:00009B90
 10927 0001:00009B96 10928 0001:00009B97 10929 0001:00009B98 10930 0001:00009B99
 10931 0001:00009B9B 10941 0001:00009B9D 10942 0001:00009BA4 10943 0001:00009BA9
 10944 0001:00009BAC 10946 0001:00009BAE 10947 0001:00009BB2 10951 0001:00009BB5
 10953 0001:00009BBB 10954 0001:00009BBD 10955 0001:00009BC2 10956 0001:00009BC4
 10957 0001:00009BC7 10958 0001:00009BC9 10959 0001:00009BCC 10960 0001:00009BCE
 10961 0001:00009BCF 10962 0001:00009BD1 10963 0001:00009BD6 10964 0001:00009BD8
 10965 0001:00009BDA 10966 0001:00009BDD 10967 0001:00009BDF 10968 0001:00009BE0
 10969 0001:00009BE5 10970 0001:00009BE7 10971 0001:00009BE9 10972 0001:00009BEB
 10973 0001:00009BED 10974 0001:00009BEF 10975 0001:00009BF1 10976 0001:00009BF3
 10977 0001:00009BF4 10978 0001:00009BF5 10979 0001:00009BFA 10980 0001:00009BFB
 10981 0001:00009BFD 10982 0001:00009C02 10983 0001:00009C05 10984 0001:00009C07
 10985 0001:00009C09 10986 0001:00009C0C 10987 0001:00009C0E 10988 0001:00009C11
 10989 0001:00009C12 10990 0001:00009C15 10991 0001:00009C1A 10992 0001:00009C1B
 10993 0001:00009C1E 10994 0001:00009C20 10995 0001:00009C22 10996 0001:00009C25
 10997 0001:00009C27 10998 0001:00009C29 10999 0001:00009C2B 11000 0001:00009C2D
 11001 0001:00009C30 11002 0001:00009C34 11003 0001:00009C36 11004 0001:00009C38
 11005 0001:00009C3A 11006 0001:00009C3C 11007 0001:00009C3E 11008 0001:00009C41
 11009 0001:00009C44 11010 0001:00009C45 11014 0001:00009C47 11015 0001:00009C48
 11016 0001:00009C4A 11017 0001:00009C4C 11018 0001:00009C4E 11019 0001:00009C50
 11020 0001:00009C51 11027 0001:00009C52 11028 0001:00009C54 11029 0001:00009C56
 11030 0001:00009C57 11031 0001:00009C59 11032 0001:00009C5B 11038 0001:00009C5D
 11040 0001:00009C63 11041 0001:00009C66 11042 0001:00009C69 11043 0001:00009C6A
 11044 0001:00009C6C 11045 0001:00009C6D 11052 0001:00009C6E 11053 0001:00009C70
 11054 0001:00009C72 11055 0001:00009C74 11056 0001:00009C77 11057 0001:00009C79
 11058 0001:00009C7C 11059 0001:00009C7E 11060 0001:00009C7F 11061 0001:00009C81
 11062 0001:00009C83 11063 0001:00009C85 11064 0001:00009C87 11065 0001:00009C88
 11066 0001:00009C8B 11067 0001:00009C8D 11068 0001:00009C93 11069 0001:00009C95
 11070 0001:00009C98 11071 0001:00009C9A 11072 0001:00009C9C 11075 0001:00009C9D
 11076 0001:00009C9E 11077 0001:00009C9F 11078 0001:00009CA0 11251 0001:00009CA4
 11252 0001:00009CAD 11254 0001:00009CCD 11268 0001:00009CD4 11269 0001:00009CDD
 11271 0001:00009CFD 11299 0001:00009D04 11300 0001:00009D13 11302 0001:00009D39
 11370 0001:00009D40 11371 0001:00009D49 11372 0001:00009D5F 11373 0001:00009D78
 11396 0001:00009D80 11397 0001:00009D8C 11398 0001:00009DA1 11409 0001:00009DA8
 11410 0001:00009DB4 11411 0001:00009DC9 11412 0001:00009DCF 11413 0001:00009DD8
 11428 0001:00009DE0 11429 0001:00009DEC 11430 0001:00009E01 11431 0001:00009E07
 11432 0001:00009E10 11471 0001:00009E18 11472 0001:00009E24 11473 0001:00009E39
 11488 0001:00009E40 11489 0001:00009E43 11496 0001:00009E44 11498 0001:00009E46
 11499 0001:00009E48 11500 0001:00009E4B 11501 0001:00009E51 11502 0001:00009E54
 11503 0001:00009E57 11504 0001:00009E58 11505 0001:00009E59 11506 0001:00009E5A
 11507 0001:00009E5C 11508 0001:00009E5E 11509 0001:00009E60 11510 0001:00009E62
 11511 0001:00009E65 11512 0001:00009E6B 11513 0001:00009E6D 11514 0001:00009E6F
 11515 0001:00009E75 11516 0001:00009E7A 11517 0001:00009E7C 11518 0001:00009E7F
 11519 0001:00009E80 11522 0001:00009E84 11523 0001:00009E8D 11524 0001:00009E9E
 11525 0001:00009EC9 11529 0001:00009ED0 11536 0001:00009ED1 11538 0001:00009ED3
 11539 0001:00009ED4 11540 0001:00009ED9 11541 0001:00009EDA 11542 0001:00009EDC
 11543 0001:00009EDF 11544 0001:00009EE4 11545 0001:00009EEA 11546 0001:00009EEC
 11547 0001:00009EEE 11548 0001:00009EF0 11549 0001:00009EF3 11550 0001:00009EF5
 11551 0001:00009EF7 11552 0001:00009EFA 11553 0001:00009EFB 11554 0001:00009EFC
 11555 0001:00009EFF 11556 0001:00009F05 11557 0001:00009F08 11558 0001:00009F09
 11561 0001:00009F0C 11562 0001:00009F0F 11569 0001:00009F10 11571 0001:00009F12
 11572 0001:00009F14 11573 0001:00009F17 11574 0001:00009F1A 11575 0001:00009F20
 11576 0001:00009F22 11577 0001:00009F25 11578 0001:00009F26 11582 0001:00009F2C
 11589 0001:00009F2D 11591 0001:00009F2F 11592 0001:00009F30 11593 0001:00009F35
 11594 0001:00009F36 11595 0001:00009F39 11596 0001:00009F3F 11597 0001:00009F41
 11598 0001:00009F42 11603 0001:00009F44 11604 0001:00009F56 11605 0001:00009F5A
 11607 0001:00009F77 11611 0001:00009FB1 11613 0001:00009FB5 11616 0001:00009FC4
 11617 0001:00009FD6 11618 0001:00009FF4 11619 0001:00009FFE 11624 0001:0000A008
 11625 0001:0000A017 11626 0001:0000A038 11627 0001:0000A04C 11628 0001:0000A060
 11633 0001:0000A068 11634 0001:0000A070 11635 0001:0000A0A6 11641 0001:0000A0AC
 11642 0001:0000A0BF 11643 0001:0000A0C3 11644 0001:0000A0DC 11647 0001:0000A126
 11648 0001:0000A150 11649 0001:0000A158 11650 0001:0000A1A0 11652 0001:0000A1A4
 11655 0001:0000A1B0 11656 0001:0000A1C2 11657 0001:0000A1DB 11658 0001:0000A1E5
 11670 0001:0000A1EC 11671 0001:0000A1FB 11672 0001:0000A20F 11674 0001:0000A215
 11675 0001:0000A21D 11676 0001:0000A225 11677 0001:0000A22D 11678 0001:0000A235
 11681 0001:0000A23E 11682 0001:0000A250 11683 0001:0000A253 11684 0001:0000A259
 11686 0001:0000A262 11687 0001:0000A269 11684 0001:0000A26F 11689 0001:0000A278
 11690 0001:0000A28B 11692 0001:0000A292 11693 0001:0000A296 11695 0001:0000A29C
 11696 0001:0000A2A5 11697 0001:0000A2B9 11698 0001:0000A2C4 11699 0001:0000A2D8
 11701 0001:0000A2DF 11702 0001:0000A2E3 11704 0001:0000A2E9 11705 0001:0000A2F1
 11706 0001:0000A2FD 11707 0001:0000A30F 11710 0001:0000A315 11711 0001:0000A325
 11712 0001:0000A32F 11713 0001:0000A337 11708 0001:0000A33B 11715 0001:0000A33D
 11716 0001:0000A347 11717 0001:0000A351 11719 0001:0000A35C 11730 0001:0000A368
 11731 0001:0000A377 11732 0001:0000A38F 11759 0001:0000A398 11760 0001:0000A39E
 11761 0001:0000A3BC 11886 0001:0000A3C8 11887 0001:0000A3CE 11888 0001:0000A3D7
 11889 0001:0000A3DF 11913 0001:0000A3E8 11914 0001:0000A3F4 11915 0001:0000A405
 11916 0001:0000A413 11917 0001:0000A437 11918 0001:0000A443 11921 0001:0000A448
 11922 0001:0000A451 11923 0001:0000A478 11930 0001:0000A47C 11931 0001:0000A488
 11933 0001:0000A4C5 11947 0001:0000A4CC 11948 0001:0000A4D0 11949 0001:0000A4DB
 11950 0001:0000A4F1 11951 0001:0000A501 11954 0001:0000A504 11955 0001:0000A507
 11957 0001:0000A510 11958 0001:0000A533 11960 0001:0000A53A 11963 0001:0000A53C
 11964 0001:0000A53F 11966 0001:0000A548 11967 0001:0000A572 11969 0001:0000A579
 11978 0001:0000A57C 11979 0001:0000A5A4 11982 0001:0000A5AC 11983 0001:0000A5B7
 11984 0001:0000A5C2 11987 0001:0000A5CD 11988 0001:0000A5DA 11991 0001:0000A608
 11992 0001:0000A61B 11994 0001:0000A625 11996 0001:0000A638 11998 0001:0000A661
 12001 0001:0000A69B 12002 0001:0000A6B6 12007 0001:0000A6E1 12014 0001:0000A71C
 12015 0001:0000A73E 12018 0001:0000A746 12019 0001:0000A751 12020 0001:0000A75C
 12023 0001:0000A767 12024 0001:0000A76D 12026 0001:0000A77C 12028 0001:0000A789
 12031 0001:0000A7B3 12032 0001:0000A7C6 12033 0001:0000A7D6 12035 0001:0000A80C
 12083 0001:0000A84C 12084 0001:0000A86B 12086 0001:0000A885 12087 0001:0000A88E
 12088 0001:0000A892 12089 0001:0000A896 12090 0001:0000A89A 12093 0001:0000A8A3
 12094 0001:0000A8AB 12096 0001:0000A8BC 12097 0001:0000A8D3 12098 0001:0000A8DE
 12099 0001:0000A8E2 12101 0001:0000A8E7 12102 0001:0000A8F2 12103 0001:0000A8F8
 12104 0001:0000A905 12106 0001:0000A90E 12107 0001:0000A91E 12109 0001:0000A924
 12112 0001:0000A9BB 12113 0001:0000A9C2 12114 0001:0000A9C9 12115 0001:0000A9CF
 12116 0001:0000A9F2 12120 0001:0000AA0A 12121 0001:0000AA11 12122 0001:0000AA18
 12126 0001:0000AA37 12127 0001:0000AA3E 12128 0001:0000AA45 12132 0001:0000AA64
 12133 0001:0000AA6B 12134 0001:0000AA72 12135 0001:0000AA7F 12136 0001:0000AA95
 12138 0001:0000AAAF 12143 0001:0000AAC9 12144 0001:0000AAD0 12147 0001:0000AAE3
 12148 0001:0000AAEA 12150 0001:0000AB00 12151 0001:0000AB27 12152 0001:0000AB4E
 12154 0001:0000AB62 12159 0001:0000AB76 12160 0001:0000AB7D 12161 0001:0000AB84
 12162 0001:0000AB88 12165 0001:0000AB93 12167 0001:0000ABA6 12168 0001:0000ABB1
 12170 0001:0000ABB6 12172 0001:0000ABE4 12174 0001:0000ABEA 12177 0001:0000AC2C
 12178 0001:0000AC30 12182 0001:0000AC32 12184 0001:0000AC3A 12163 0001:0000AC3D
 12186 0001:0000AC49 12187 0001:0000AC51 12188 0001:0000AC57 12189 0001:0000AC72
 12190 0001:0000AC7F 12194 0001:0000AC95 12195 0001:0000AC9C 12196 0001:0000ACA3
 12197 0001:0000ACB0 12201 0001:0000ACC6 12202 0001:0000ACCD 12203 0001:0000ACD4
 12204 0001:0000ACE1 12208 0001:0000ACF7 12209 0001:0000ACFE 12210 0001:0000AD04
 12211 0001:0000AD18 12215 0001:0000AD2C 12216 0001:0000AD33 12217 0001:0000AD3A
 12218 0001:0000AD47 12222 0001:0000AD5D 12223 0001:0000AD64 12224 0001:0000AD6B
 12226 0001:0000AD81 12227 0001:0000AD8C 12228 0001:0000AD9E 12229 0001:0000ADA2
 12231 0001:0000ADAB 12233 0001:0000ADC1 12234 0001:0000ADCC 12235 0001:0000ADDE
 12236 0001:0000ADE2 12238 0001:0000ADEB 12240 0001:0000AE01 12241 0001:0000AE08
 12242 0001:0000AE19 12243 0001:0000AE28 12244 0001:0000AE2C 12246 0001:0000AE35
 12248 0001:0000AE4B 12249 0001:0000AE52 12250 0001:0000AE74 12252 0001:0000AE7D
 12254 0001:0000AE93 12255 0001:0000AE9A 12256 0001:0000AEBC 12258 0001:0000AEC5
 12262 0001:0000AEDC 12263 0001:0000AEE3 12264 0001:0000AEF2 12265 0001:0000AEF9
 12267 0001:0000AF12 12268 0001:0000AF26 12272 0001:0000AF3A 12273 0001:0000AF47
 12275 0001:0000AF60 12276 0001:0000AF6D 12279 0001:0000AF83 12282 0001:0000AF8B
 12283 0001:0000AF9E 12285 0001:0000AFAB 12280 0001:0000AFAE 12287 0001:0000AFC0
 12288 0001:0000AFD3 12291 0001:0000AFE0 12091 0001:0000AFF2 12294 0001:0000AFFE
 12296 0001:0000B007 12298 0001:0000B054 12299 0001:0000B069 12300 0001:0000B071
 12301 0001:0000B079 12302 0001:0000B09D 12303 0001:0000B0B4 12773 0001:0000B0C0
 12774 0001:0000B0CC 12775 0001:0000B0D6 12776 0001:0000B0F3 12777 0001:0000B0FB
 12784 0001:0000B100 12785 0001:0000B10F 12786 0001:0000B113 12787 0001:0000B119
 12788 0001:0000B124 12789 0001:0000B12C 12792 0001:0000B134 12793 0001:0000B153
 12790 0001:0000B156 12795 0001:0000B17B 12797 0001:0000B185 12798 0001:0000B194
 12799 0001:0000B19C 12800 0001:0000B1A6 12802 0001:0000B1AA 12806 0001:0000B1B4
 12807 0001:0000B1D7 12808 0001:0000B1DB 12810 0001:0000B1E5 12811 0001:0000B1F0
 12813 0001:0000B281 12814 0001:0000B2A0 12817 0001:0000B2A4 12820 0001:0000B2CC
 12821 0001:0000B2DB 12822 0001:0000B2DF 12823 0001:0000B2EA 12825 0001:0000B31C
 12826 0001:0000B321 12828 0001:0000B325 12833 0001:0000B32C 12834 0001:0000B335
 12835 0001:0000B339 12838 0001:0000B342 12839 0001:0000B360 12840 0001:0000B366
 12841 0001:0000B36C 12842 0001:0000B372 12844 0001:0000B378 12836 0001:0000B37B
 12849 0001:0000B388 12850 0001:0000B38C 12853 0001:0000B394 12856 0001:0000B3A2
 12857 0001:0000B3BC 12859 0001:0000B3D0 12854 0001:0000B3D5 12861 0001:0000B3F6
 12866 0001:0000B3FC 12867 0001:0000B405 12868 0001:0000B40A 12870 0001:0000B411
 12871 0001:0000B41E 12873 0001:0000B440 12874 0001:0000B44D 12876 0001:0000B44F
 12868 0001:0000B452 12877 0001:0000B458 12890 0001:0000B460 12892 0001:0000B469
 12894 0001:0000B472 12895 0001:0000B478 12896 0001:0000B49D 12897 0001:0000B4A6
 12900 0001:0000B4AE 12902 0001:0000B4B4 12903 0001:0000B4C0 12905 0001:0000B4C8
 12906 0001:0000B4F4 12907 0001:0000B4FA 12908 0001:0000B500 12909 0001:0000B506
 12910 0001:0000B50A 12911 0001:0000B50E 12912 0001:0000B51B 12913 0001:0000B520
 12915 0001:0000B52A 12916 0001:0000B535 12917 0001:0000B557 12920 0001:0000B564
 12921 0001:0000B578 12922 0001:0000B580 12924 0001:0000B5CD 12926 0001:0000B5E6
 12927 0001:0000B600 12928 0001:0000B60F 12929 0001:0000B62F 12930 0001:0000B64F
 12932 0001:0000B66D 12933 0001:0000B673 12935 0001:0000B684 12937 0001:0000B68A
 12938 0001:0000B69E 12939 0001:0000B6B1 12940 0001:0000B6C4 12944 0001:0000B6CB
 12945 0001:0000B6D4 12947 0001:0000B6DA 12950 0001:0000B6EC 12953 0001:0000B6FC
 12954 0001:0000B70D 12955 0001:0000B718 12957 0001:0000B73D 12958 0001:0000B74A
 12961 0001:0000B75C 12962 0001:0000B77F 12963 0001:0000B78A 12967 0001:0000B7F9
 12968 0001:0000B811 13069 0001:0000B854 13070 0001:0000B863 13071 0001:0000B867
 13072 0001:0000B86E 13073 0001:0000B897 13074 0001:0000B89E 13075 0001:0000B8C7
 13076 0001:0000B8CE 13077 0001:0000B8DF 13078 0001:0000B8F9 13079 0001:0000B8FF
 13080 0001:0000B905 13081 0001:0000B90B 13083 0001:0000B920 13084 0001:0000B93A
 13086 0001:0000B94F 13087 0001:0000B969 13088 0001:0000B97E 13091 0001:0000B998
 13092 0001:0000B99E 13093 0001:0000B9C7 13095 0001:0000B9CE 13096 0001:0000B9F7
 13097 0001:0000B9FE 13099 0001:0000BA04 13100 0001:0000BA12 13101 0001:0000BA1F
 13103 0001:0000BA27 13104 0001:0000BA32 13105 0001:0000BA4F 13180 0001:0000BA70
 13181 0001:0000BA7C 13182 0001:0000BA83 13183 0001:0000BAC2 13223 0001:0000BACC
 13224 0001:0000BAD8 13225 0001:0000BADF 13226 0001:0000BB1E 13267 0001:0000BB28
 13268 0001:0000BB34 13269 0001:0000BB38 13270 0001:0000BB3F 13271 0001:0000BB47
 13275 0001:0000BBA3 13277 0001:0000BBB3 13278 0001:0000BBC2 13280 0001:0000BBD0
 13281 0001:0000BBDC 13312 0001:0000BBE8 13313 0001:0000BBF7 13316 0001:0000BC1C
 13317 0001:0000BC37 13318 0001:0000BC48 13334 0001:0000BC4C 13335 0001:0000BC5E
 13336 0001:0000BC7A 13337 0001:0000BC9F 13349 0001:0000BCA8 13350 0001:0000BCB7
 13351 0001:0000BCCE 13352 0001:0000BCD6 13353 0001:0000BCDC 13390 0001:0000BCE4
 13391 0001:0000BCF3 13392 0001:0000BD07 13393 0001:0000BD20 13395 0001:0000BD28
 13396 0001:0000BD42 13397 0001:0000BD4A 13399 0001:0000BD51 13401 0001:0000BD80
 13403 0001:0000BDAF 13397 0001:0000BDB2 13404 0001:0000BDB8 13406 0001:0000BDBF
 13407 0001:0000BDD0 13409 0001:0000BDFE 13411 0001:0000BE2C 13404 0001:0000BE2F
 13412 0001:0000BE35 13499 0001:0000BE5C 13500 0001:0000BE62 13501 0001:0000BE67
 13503 0001:0000BE70 13505 0001:0000BE76 13502 0001:0000BE79 13506 0001:0000BE86
 13507 0001:0000BE98 13508 0001:0000BE9F 13513 0001:0000BEA8 13514 0001:0000BEC1
 13515 0001:0000BEC6 13517 0001:0000BECF 13519 0001:0000BED5 13516 0001:0000BED8
 13520 0001:0000BEE5 13521 0001:0000BF04 13522 0001:0000BF0B 13528 0001:0000BF34
 13529 0001:0000BF4D 13531 0001:0000BF75 13534 0001:0000BF80 13535 0001:0000BF96
 13536 0001:0000BF9D 13535 0001:0000BFAE 13537 0001:0000BFB4 13540 0001:0000BFCA
 13548 0001:0000BFF8 13549 0001:0000C020 13550 0001:0000C027 13551 0001:0000C02F
 13553 0001:0000C057 13555 0001:0000C066 13556 0001:0000C081 13560 0001:0000C089
 13561 0001:0000C09B 13562 0001:0000C0BB 13558 0001:0000C0BE 13566 0001:0000C0D0
 13567 0001:0000C0DB 13572 0001:0000C0E0 13574 0001:0000C0F8 13575 0001:0000C106
 13576 0001:0000C126 13579 0001:0000C131 13581 0001:0000C14E 13582 0001:0000C15E
 13584 0001:0000C166 13586 0001:0000C183 13587 0001:0000C193 13589 0001:0000C199
 13591 0001:0000C1B6 13592 0001:0000C1C6 13594 0001:0000C1CB 13595 0001:0000C1DD
 13597 0001:0000C1EF 13598 0001:0000C20F 13570 0001:0000C212 13601 0001:0000C223
 13709 0001:0000C29C 13710 0001:0000C29F 13711 0001:0000C2A1 13712 0001:0000C2A3
 13714 0001:0000C2A8 13725 0001:0000C2AC 13726 0001:0000C2BE 13727 0001:0000C2D0
 13730 0001:0000C2F8 13731 0001:0000C30F 13734 0001:0000C31E 13735 0001:0000C32A
 13736 0001:0000C34A 13737 0001:0000C352 13738 0001:0000C35A 13740 0001:0000C36C
 13741 0001:0000C37A 13742 0001:0000C385 13744 0001:0000C3A0 13746 0001:0000C3C5
 13748 0001:0000C445 13749 0001:0000C450 13787 0001:0000C464 13788 0001:0000C473
 13789 0001:0000C489 13791 0001:0000C493 13792 0001:0000C4A2 13793 0001:0000C4B5
 13794 0001:0000C4DB 13799 0001:0000C4F7 13800 0001:0000C516 13802 0001:0000C52D
 13838 0001:0000C540 13839 0001:0000C55B 13840 0001:0000C569 13844 0001:0000C588
 13845 0001:0000C5B7 13846 0001:0000C5D7 13854 0001:0000C618 13855 0001:0000C633
 13856 0001:0000C641 13866 0001:0000C660 13867 0001:0000C692 13868 0001:0000C6BD
 13871 0001:0000C704 13872 0001:0000C71F 13873 0001:0000C72D 13874 0001:0000C736
 13915 0001:0000C758 13916 0001:0000C75F 13917 0001:0000C768 13918 0001:0000C770
 13940 0001:0000C794 13941 0001:0000C79A 13942 0001:0000C79F 13943 0001:0000C7A9
 13944 0001:0000C7C1 13945 0001:0000C7C7 13946 0001:0000C7E2 13947 0001:0000C807
 13948 0001:0000C810 13992 0001:0000C838 13993 0001:0000C844 13995 0001:0000C856
 13997 0001:0000C860 14000 0001:0000C86A 14001 0001:0000C879 14004 0001:0000C890
 14006 0001:0000C898 14007 0001:0000C8A3 14023 0001:0000C8A8 14024 0001:0000C8CE
 14025 0001:0000C8EE 14027 0001:0000C931 14035 0001:0000C960 14036 0001:0000C962
 14037 0001:0000C965 14038 0001:0000C968 14039 0001:0000C96D 14048 0001:0000C970
 14049 0001:0000C97F 14053 0001:0000C990 14057 0001:0000C9A1 14064 0001:0000C9A8
 14065 0001:0000C9AB 14066 0001:0000C9C2 14166 0001:0000C9C4 14167 0001:0000C9CD
 14169 0001:0000CA2B 14171 0001:0000CA31 14173 0001:0000CA37 14177 0001:0000CA3D
 14179 0001:0000CA43 14181 0001:0000CA49 14184 0001:0000CA4F 14186 0001:0000CA55
 14188 0001:0000CA5B 14190 0001:0000CA61 14192 0001:0000CA67 14194 0001:0000CA6D
 14196 0001:0000CA71 14201 0001:0000CA78 14202 0001:0000CA81 14203 0001:0000CA8C
 14204 0001:0000CA9B 14216 0001:0000CAA4 14217 0001:0000CAD8 14219 0001:0000CAE1
 14220 0001:0000CAEA 14222 0001:0000CAF9 14223 0001:0000CB06 14224 0001:0000CB0F
 14225 0001:0000CB21 14227 0001:0000CB4B 14231 0001:0000CBE8 14234 0001:0000CC49
 14236 0001:0000CC88 14237 0001:0000CCA4 14238 0001:0000CCB4 14240 0001:0000CCC7
 14241 0001:0000CCEB 14243 0001:0000CCF7 14245 0001:0000CD28 14246 0001:0000CD43
 14279 0001:0000CD68 14280 0001:0000CD74 14281 0001:0000CD7F 14282 0001:0000CD89
 14561 0001:0000CD90 14562 0001:0000CD93 14563 0001:0000CDAA 14564 0001:0000CDC1
 14565 0001:0000CDCC 14566 0001:0000CDD7 14569 0001:0000CDE4 14570 0001:0000CDEF
 14573 0001:0000CDFA 14584 0001:0000CE07 14591 0001:0000CE14 14594 0001:0000CE18
 14595 0001:0000CE1B 14597 0001:0000CE24 14598 0001:0000CE2D 14599 0001:0000CE37
 14601 0001:0000CE3E 14603 0001:0000CE47 14604 0001:0000CE50 14605 0001:0000CE5A
 14607 0001:0000CE61 14608 0001:0000CE6A 14609 0001:0000CE73 14611 0001:0000CE7C
 14612 0001:0000CE85 14614 0001:0000CE8E 14619 0001:0000CE97 14625 0001:0000CE9C
 14626 0001:0000CEA5 14627 0001:0000CEAF 14630 0001:0000CEBF 14631 0001:0000CECA
 14632 0001:0000CED5 14633 0001:0000CEE0 14634 0001:0000CEE9 14636 0001:0000CEFB
 14637 0001:0000CF06 14639 0001:0000CF18 14710 0001:0000CF1C 14711 0001:0000CF28
 14712 0001:0000CF2C 14713 0001:0000CF42 14715 0001:0000CF48 14719 0001:0000CF61
 14720 0001:0000CF6A 14721 0001:0000CF8A 14722 0001:0000CFA6 14724 0001:0000CFC1
 14751 0001:0000CFC8 14752 0001:0000CFD4 14753 0001:0000CFD8 14754 0001:0000CFE1
 14755 0001:0000CFF5 14758 0001:0000CFFC 14759 0001:0000D008 14760 0001:0000D00C
 14761 0001:0000D015 14762 0001:0000D023 14765 0001:0000D02C 14766 0001:0000D038
 14767 0001:0000D074 14768 0001:0000D082 14773 0001:0000D08C 14774 0001:0000D098
 14775 0001:0000D09D 14776 0001:0000D0D0 14777 0001:0000D0D6 14778 0001:0000D0DF
 14779 0001:0000D0E6 14780 0001:0000D0EB 14782 0001:0000D0F3 14783 0001:0000D10B
 14785 0001:0000D11B 14786 0001:0000D11E 14780 0001:0000D121 14788 0001:0000D129
 14793 0001:0000D130 14794 0001:0000D13F 14795 0001:0000D15C 14796 0001:0000D163
 14799 0001:0000D16C 14800 0001:0000D16F 14801 0001:0000D187 14803 0001:0000D197
 14797 0001:0000D19A 14805 0001:0000D1AA 14806 0001:0000D1D2 14807 0001:0000D1E1
 14808 0001:0000D1E9 14809 0001:0000D1F1 14814 0001:0000D1F8 14815 0001:0000D204
 14816 0001:0000D209 14817 0001:0000D23C 14819 0001:0000D24B 14820 0001:0000D25E
 14821 0001:0000D294 14823 0001:0000D29B 14826 0001:0000D2A0 14827 0001:0000D2A6
 14832 0001:0000D2B0 14833 0001:0000D2BC 14834 0001:0000D2C1 14835 0001:0000D2CB
 14836 0001:0000D307 14838 0001:0000D310 14839 0001:0000D322 14840 0001:0000D341
 14843 0001:0000D360 14844 0001:0000D366 14849 0001:0000D370 14855 0001:0000D379
 14856 0001:0000D382 14858 0001:0000D393 14860 0001:0000D39A 14863 0001:0000D3A4
 14868 0001:0000D3AD 14870 0001:0000D3B9 14873 0001:0000D3C0 14874 0001:0000D3CC
 14876 0001:0000D3D3 14877 0001:0000D3F4 14878 0001:0000D408 14881 0001:0000D410
 14882 0001:0000D41C 14884 0001:0000D423 14885 0001:0000D444 14886 0001:0000D45B
 14928 0001:0000D464 14929 0001:0000D470 14930 0001:0000D475 14931 0001:0000D48F
 14932 0001:0000D495 14933 0001:0000D4A6 15020 0001:0000D4B0 15021 0001:0000D4BC
 15022 0001:0000D4C1 15023 0001:0000D4ED 15024 0001:0000D4F8 15025 0001:0000D503
 15028 0001:0000D513 15030 0001:0000D524 15032 0001:0000D54B 15038 0001:0000D554
 15039 0001:0000D557 15026 0001:0000D565 15041 0001:0000D57B 15042 0001:0000D580
 15045 0001:0000D588 15046 0001:0000D594 15047 0001:0000D5A2 15048 0001:0000D5A8
 15050 0001:0000D5AE 15052 0001:0000D5B4 15053 0001:0000D5BA 15054 0001:0000D5BD
 15050 0001:0000D5CB 15057 0001:0000D5D1 15060 0001:0000D5D8 15061 0001:0000D5E4
 15062 0001:0000D5F2 15065 0001:0000D5F8 15067 0001:0000D60E 15073 0001:0000D611
 15074 0001:0000D614 15062 0001:0000D622 15076 0001:0000D628 15099 0001:0000D630
 15100 0001:0000D636 15103 0001:0000D644 15106 0001:0000D64B 15107 0001:0000D66A
 15106 0001:0000D67C 15108 0001:0000D681 15104 0001:0000D685 15111 0001:0000D6A1
 15113 0001:0000D6A8 15115 0001:0000D6B0 15116 0001:0000D6BA 15117 0001:0000D6C4
 15119 0001:0000D6CE 15120 0001:0000D6D6 15122 0001:0000D6E4 15123 0001:0000D6EC
 15125 0001:0000D6F3 15126 0001:0000D703 15129 0001:0000D70F 15130 0001:0000D720
 15131 0001:0000D732 15133 0001:0000D73B 15134 0001:0000D74C 15135 0001:0000D75D
 15136 0001:0000D766 15137 0001:0000D76D 15162 0001:0000D794 15163 0001:0000D7B2
 15164 0001:0000D7B7 15165 0001:0000D7BC 15166 0001:0000D7CA 15167 0001:0000D7D2
 15168 0001:0000D7F2 15169 0001:0000D817 15170 0001:0000D83C 15171 0001:0000D850
 15172 0001:0000D864 15173 0001:0000D889 15174 0001:0000D89D 15175 0001:0000D8CB
 15176 0001:0000D8F9 15177 0001:0000D90D 15178 0001:0000D930 15179 0001:0000D953
 15180 0001:0000D95B 15181 0001:0000D963 15182 0001:0000D987 15183 0001:0000D996
 15184 0001:0000D9A3 15185 0001:0000D9C7 15186 0001:0000D9EB 15188 0001:0000D9FA
 15189 0001:0000DA07 15190 0001:0000DA24 15191 0001:0000DA41 15192 0001:0000DA55
 15405 0001:0000DB28 15406 0001:0000DB54 15408 0001:0000DB5A 15409 0001:0000DB65
 15412 0001:0000DB72 15413 0001:0000DB7D 15415 0001:0000DB88 15416 0001:0000DB93
 15419 0001:0000DBA0 15420 0001:0000DBAE 15422 0001:0000DBB4 15423 0001:0000DBC2
 15425 0001:0000DBC7 15426 0001:0000DBF4 15427 0001:0000DC22 15429 0001:0000DC28
 15430 0001:0000DC36 15432 0001:0000DC38 15417 0001:0000DC66 15434 0001:0000DC70
 15702 0001:0000DCF8 15703 0001:0000DD01 15704 0001:0000DD30 15706 0001:0000DD47
 15707 0001:0000DD50 15708 0001:0000DD58 15710 0001:0000DD61 15711 0001:0000DD68
 15713 0001:0000DD86 15714 0001:0000DD99 15715 0001:0000DDBF 15717 0001:0000DDD6
 15718 0001:0000DEB6 15719 0001:0000DED4 15721 0001:0000DEEE 15722 0001:0000DF00
 15723 0001:0000DF22 15711 0001:0000DF25 15724 0001:0000DF2E 15725 0001:0000DF3C
 15727 0001:0000DF44 16060 0001:0000DF48 16262 0001:0000DF50 16263 0001:0000DF53
 16264 0001:0000DF5D 16269 0001:0000DF60 16270 0001:0000DF7C 16271 0001:0000DF82
 16274 0001:0000DFBE 16275 0001:0000DFD3 16276 0001:0000DFDC 16277 0001:0000DFE4
 16290 0001:0000E008 16291 0001:0000E011 16292 0001:0000E01C 16293 0001:0000E022
 16332 0001:0000E02C 16335 0001:0000E032 16336 0001:0000E03A 16337 0001:0000E044
 16333 0001:0000E051 16339 0001:0000E05A 16448 0001:0000E060 16449 0001:0000E064
 16450 0001:0000E071 16451 0001:0000E077 16452 0001:0000E08A 16453 0001:0000E093
 16454 0001:0000E09D 16461 0001:0000E0C4 16462 0001:0000E0C9 16463 0001:0000E0CA
 16464 0001:0000E0CE 16465 0001:0000E0CF 16469 0001:0000E0D0 16470 0001:0000E0D5
 16471 0001:0000E0D6 16472 0001:0000E0DA 16473 0001:0000E0DB 16477 0001:0000E0DC
 16478 0001:0000E0DE 16479 0001:0000E0E0 16484 0001:0000E0E4 16485 0001:0000E0E5
 16486 0001:0000E0E9 16533 0001:0000E0EC 16534 0001:0000E0FD 16536 0001:0000E102
 16537 0001:0000E10F 16538 0001:0000E11B 16540 0001:0000E121 16541 0001:0000E127
 16542 0001:0000E12F 16538 0001:0000E137 16544 0001:0000E13D 16534 0001:0000E140
 16545 0001:0000E146 16546 0001:0000E154 16551 0001:0000E168 16552 0001:0000E171
 16553 0001:0000E17A 16554 0001:0000E185 16561 0001:0000E18C 16562 0001:0000E198
 16563 0001:0000E1A3 16565 0001:0000E1AB 16567 0001:0000E1BC 16566 0001:0000E1C4
 16569 0001:0000E1D5 16571 0001:0000E1DB 16573 0001:0000E1E6 16575 0001:0000E1EC
 16576 0001:0000E1F9 16577 0001:0000E202 16582 0001:0000E20C 16583 0001:0000E214
 16586 0001:0000E22D 16587 0001:0000E235 16595 0001:0000E23C 16596 0001:0000E248
 16597 0001:0000E252 16598 0001:0000E25C 16603 0001:0000E260 16604 0001:0000E269
 16605 0001:0000E280 16607 0001:0000E286 16608 0001:0000E299 16610 0001:0000E2A2
 16611 0001:0000E2AD 16614 0001:0000E2AF 16605 0001:0000E2B7 16616 0001:0000E2BD
 16628 0001:0000E2C4 16629 0001:0000E2DC 16630 0001:0000E2E6 16631 0001:0000E2F0
 16632 0001:0000E303 16633 0001:0000E316 16634 0001:0000E320 16635 0001:0000E332
 16638 0001:0000E354 16639 0001:0000E365 16640 0001:0000E36D 16641 0001:0000E37B
 16642 0001:0000E387 16643 0001:0000E393 16644 0001:0000E39E 16647 0001:0000E3B0
 16648 0001:0000E3B7 16649 0001:0000E3C3 16652 0001:0000E3C8 16653 0001:0000E3CF
 16654 0001:0000E3DB 16657 0001:0000E3E0 16658 0001:0000E3E7 16659 0001:0000E3F3
 16662 0001:0000E3F8 16663 0001:0000E3FF 16664 0001:0000E412 16667 0001:0000E418
 16668 0001:0000E41F 16669 0001:0000E432 16689 0001:0000E438 16704 0001:0000E441
 16705 0001:0000E445 16706 0001:0000E44D 16710 0001:0000E45C 16712 0001:0000E464
 16714 0001:0000E46D 16717 0001:0000E47B 16719 0001:0000E486 16720 0001:0000E48C
 16735 0001:0000E499 16741 0001:0000E4AC 16746 0001:0000E4B2 16726 0001:0000E4BA
 16757 0001:0000E4D1 16760 0001:0000E4D9 16761 0001:0000E4DF 16763 0001:0000E4EA
 16765 0001:0000E4F3 16768 0001:0000E506 16772 0001:0000E50C 16777 0001:0000E514
 16782 0001:0000E51D 16783 0001:0000E52B 16784 0001:0000E531 16786 0001:0000E53A
 16787 0001:0000E542 16791 0001:0000E552 16795 0001:0000E55A 16797 0001:0000E562
 16798 0001:0000E56B 16802 0001:0000E579 16809 0001:0000E580 16814 0001:0000E589
 16815 0001:0000E597 16816 0001:0000E59D 16818 0001:0000E5A8 16827 0001:0000E5B5
 16831 0001:0000E5BB 16841 0001:0000E5C5 16844 0001:0000E5D3 16845 0001:0000E5DC
 16848 0001:0000E5E4 16853 0001:0000E5EB 16832 0001:0000E5F3 16863 0001:0000E602
 16869 0001:0000E608 16873 0001:0000E611 16874 0001:0000E61F 16875 0001:0000E625
 16877 0001:0000E62E 16880 0001:0000E63C 16882 0001:0000E649 16890 0001:0000E657
 16891 0001:0000E660 16892 0001:0000E66A 16894 0001:0000E670 16895 0001:0000E67F
 16902 0001:0000E687 16908 0001:0000E68C 16909 0001:0000E695 16910 0001:0000E69D
 16911 0001:0000E6A4 16912 0001:0000E6AC 17073 0001:0000E6B0 17074 0001:0000E6BC
 17075 0001:0000E6C8 17077 0001:0000E6D6 17079 0001:0000E6D9 17080 0001:0000E6E7
 17083 0001:0000E705 17084 0001:0000E707 17088 0001:0000E71F 17090 0001:0000E730
 17211 0001:0000E738 17212 0001:0000E73C 17213 0001:0000E746 17215 0001:0000E74C
 17217 0001:0000E755 17218 0001:0000E766 17220 0001:0000E76E 17213 0001:0000E776
 17222 0001:0000E77C 17244 0001:0000EA50 17250 0001:0000EA77 17251 0001:0000EA81
 17252 0001:0000EA86 17253 0001:0000EA8B 17255 0001:0000EA90

Line numbers for SysUtils(sysutils.pas) segment .itext

 17224 0002:000000D0 17225 0002:000000FE 17226 0002:00000116 17227 0002:0000011B
 17237 0002:00000125 17238 0002:0000012A 17240 0002:0000012F 17242 0002:00000134

Line numbers for StrUtils(StrUtils.pas) segment .text

   884 0001:00000000

Line numbers for VarUtils(varutils.pas) segment .text

   311 0001:0000EBE0   312 0001:0000EBE8   313 0001:0000EBF0   314 0001:0000EBF8
   315 0001:0000EC00  1073 0001:0000EC08  1074 0001:0000EC0C  1075 0001:0000EC15
  1077 0001:0000EC1E  1078 0001:0000EC38  1082 0001:0000EC40  1083 0001:0000EC44
  1084 0001:0000EC4B  1087 0001:0000EC54  1088 0001:0000EC58  1089 0001:0000EC5F
  1092 0001:0000EC68  1093 0001:0000EC6C  1094 0001:0000EC73  1104 0001:0000EC7C
  1105 0001:0000EC95  1106 0001:0000EC9E  1108 0001:0000ECA7  1109 0001:0000ECCA
  1113 0001:0000ECF0  1114 0001:0000ED09  1115 0001:0000ED12  1117 0001:0000ED1B
  1118 0001:0000ED3E  1122 0001:0000ED64  1123 0001:0000ED7D  1124 0001:0000ED86
  1126 0001:0000ED8F  1127 0001:0000EDB2  1131 0001:0000EDD8  1132 0001:0000EDF1
  1133 0001:0000EDFA  1135 0001:0000EE03  1136 0001:0000EE26  1140 0001:0000EE4C
  1141 0001:0000EE65  1142 0001:0000EE6E  1144 0001:0000EE77  1145 0001:0000EE9A
  1151 0001:0000EEC0  1152 0001:0000EED9  1153 0001:0000EEE2  1156 0001:0000EEEB
  1157 0001:0000EF0E  1159 0001:0000EF1B  1164 0001:0000EF44  1165 0001:0000EF68
  1166 0001:0000EF71  1169 0001:0000EF7A  1170 0001:0000EF93  1172 0001:0000EF98
  1176 0001:0000EFC0  1177 0001:0000EFE4  1178 0001:0000EFED  1181 0001:0000EFF6
  1182 0001:0000F011  1184 0001:0000F016  1188 0001:0000F03C  1189 0001:0000F060
  1190 0001:0000F069  1193 0001:0000F072  1194 0001:0000F08F  1196 0001:0000F094
  1203 0001:0000F0BC  1212 0001:0000F0C4  1213 0001:0000F0CC  1215 0001:0000F0D4
  1216 0001:0000F0DC  1219 0001:0000F0E4  1220 0001:0000F0EC  1221 0001:0000F0F4
  2030 0001:0000F0FC  2031 0001:0000F108  2032 0001:0000F10E  2034 0001:0000F117
  2035 0001:0000F12A  2036 0001:0000F130  2038 0001:0000F136  2040 0001:0000F140
  2041 0001:0000F144  2047 0001:0000F151  2078 0001:0000F167  2079 0001:0000F17D
  2081 0001:0000F193  2082 0001:0000F1A9  2083 0001:0000F1BF  2084 0001:0000F1D5
  2085 0001:0000F1EB  2086 0001:0000F201  2087 0001:0000F217  2088 0001:0000F22D
  2089 0001:0000F243  2091 0001:0000F259  2093 0001:0000F26F  2094 0001:0000F285
  2095 0001:0000F29B  2096 0001:0000F2B1  2097 0001:0000F2C7  2098 0001:0000F2DD
  2100 0001:0000F2F3  2101 0001:0000F309  2102 0001:0000F31F  2104 0001:0000F335

Line numbers for VarUtils(varutils.pas) segment .itext

  2140 0002:00000158  2141 0002:00000164  2142 0002:00000169

Line numbers for Variants(variants.pas) segment .text

   524 0001:0000FBC8   525 0001:0000FBDB   526 0001:0000FBFC   529 0001:0000FC1C
   530 0001:0000FC41   532 0001:0000FC90   535 0001:0000FCB8   536 0001:0000FCCB
   537 0001:0000FCEC   545 0001:0000FD0C   546 0001:0000FD31   548 0001:0000FD80
   561 0001:0000FDA8   562 0001:0000FDBB   563 0001:0000FDDC   566 0001:0000FDFC
   567 0001:0000FE1C   568 0001:0000FE8B   569 0001:0000FE95   570 0001:0000FEBB
   571 0001:0000FEC5   572 0001:0000FEEB   573 0001:0000FF11   574 0001:0000FF37
   575 0001:0000FF5D   576 0001:0000FF83   577 0001:0000FFA6   579 0001:0000FFC9
   582 0001:00010019   586 0001:00010050   587 0001:00010054   588 0001:00010059
   591 0001:0001005C   592 0001:0001005D   593 0001:00010061   594 0001:00010072
   595 0001:0001007D   597 0001:00010088   599 0001:0001008D   604 0001:00010090
   605 0001:00010096   606 0001:000100AA   607 0001:000100BB   608 0001:000100CF
   609 0001:000100DF   610 0001:000100F3   613 0001:00010103   614 0001:0001010A
   616 0001:00010111   619 0001:00010114   620 0001:00010127   621 0001:00010148
   626 0001:00010168   627 0001:0001016B   628 0001:00010172   629 0001:00010177
   641 0001:0001017C   643 0001:00010189   644 0001:0001019D   645 0001:0001019E
   646 0001:000101A6   651 0001:000101AC   652 0001:000101B1   653 0001:000101B3
   654 0001:000101BD   655 0001:000101DF   656 0001:000101E3   659 0001:000101E7
   660 0001:000101F4   662 0001:00010201   663 0001:00010208   665 0001:0001021A
   666 0001:00010226   669 0001:00010230   673 0001:0001024A   674 0001:00010255
   676 0001:00010268   679 0001:00010277   680 0001:00010286   681 0001:0001029A
   683 0001:000102A2   684 0001:000102C1   686 0001:000102DD   687 0001:000102F5
   680 0001:000102F9   690 0001:000102FC   691 0001:00010314   690 0001:0001031E
   695 0001:00010321   697 0001:00010335   700 0001:00010354   702 0001:0001035F
   706 0001:0001036C   707 0001:0001037D   712 0001:00010384   714 0001:00010389
   715 0001:00010392   718 0001:0001039F   720 0001:000103A6   721 0001:000103AB
   725 0001:000103B5   726 0001:000103BC   729 0001:000103C6   730 0001:000103CD
   733 0001:000103D6   734 0001:000103E3   742 0001:000103EF   743 0001:000103F5
   745 0001:000103FB   750 0001:00010400   751 0001:00010407   753 0001:0001040D
   754 0001:00010412   758 0001:00010414   759 0001:00010415   760 0001:0001041A
   761 0001:0001041B   829 0001:0001041C   831 0001:00010429   832 0001:0001043D
   833 0001:0001043E   834 0001:00010446   839 0001:0001044C   840 0001:00010451
   841 0001:00010453   842 0001:0001045D   843 0001:0001047F   844 0001:00010483
   847 0001:00010487   848 0001:00010494   850 0001:000104A1   851 0001:000104A8
   853 0001:000104C2   854 0001:000104C8   857 0001:000104D2   861 0001:000104E6
   862 0001:000104EB   864 0001:000104F8   867 0001:00010501   868 0001:00010510
   869 0001:00010524   871 0001:0001052C   872 0001:0001054B   873 0001:00010567
   874 0001:0001057F   868 0001:00010583   877 0001:00010586   878 0001:0001059D
   879 0001:000105A1   882 0001:000105A6   883 0001:000105B1   884 0001:000105BC
   887 0001:000105C5   888 0001:000105DD   887 0001:000105E7   892 0001:000105EA
   894 0001:000105FE   895 0001:0001061D   898 0001:00010636   900 0001:0001064A
   905 0001:00010659   906 0001:0001066B   910 0001:00010674   911 0001:00010679
   916 0001:0001067C   918 0001:00010684   919 0001:0001068B   922 0001:00010692
   923 0001:0001069B   926 0001:000106A9   928 0001:000106B0   929 0001:000106B5
   930 0001:000106BA   934 0001:000106C7   936 0001:000106CE   937 0001:000106D1
   938 0001:000106D7   942 0001:000106E1   943 0001:000106E8   946 0001:000106F8
   947 0001:00010705   951 0001:00010716   952 0001:00010722   955 0001:00010728
   957 0001:0001072E   961 0001:00010732   965 0001:00010739   966 0001:00010740
   969 0001:00010747   970 0001:0001074B   971 0001:00010751   972 0001:00010757
   975 0001:0001075F   976 0001:00010768   979 0001:0001076C   980 0001:00010772
   981 0001:00010776   982 0001:0001077D   983 0001:00010789   987 0001:0001078C
   988 0001:00010792   992 0001:00010794   993 0001:00010799   998 0001:0001079C
  1000 0001:000107A3  1001 0001:000107B1  1005 0001:000107C2  1006 0001:000107CB
  1009 0001:000107D0  1010 0001:000107E9  1011 0001:00010859  1012 0001:0001086D
  1013 0001:00010880  1014 0001:00010891  1015 0001:000108A2  1016 0001:000108B3
  1017 0001:000108C4  1018 0001:000108DD  1019 0001:000108F6  1020 0001:00010907
  1021 0001:00010918  1022 0001:00010929  1023 0001:00010939  1025 0001:0001094C
  1028 0001:0001095A  1030 0001:00010965  1031 0001:0001096A  1033 0001:0001097A
  1035 0001:00010983  1039 0001:000109A8  1040 0001:000109AE  1042 0001:000109B4
  1043 0001:000109B9  1077 0001:000109BC  1078 0001:000109C0  1079 0001:000109CA
  1080 0001:000109D1  1081 0001:000109D6  1082 0001:000109D9  1086 0001:000109DC
  1087 0001:000109E1  1092 0001:000109E4  1093 0001:000109F3  1094 0001:000109FC
  1095 0001:00010A0A  1096 0001:00010A14  1097 0001:00010A1D  1099 0001:00010A37
  1101 0001:00010A47  1106 0001:00010A50  1107 0001:00010A66  1108 0001:00010A6E
  1109 0001:00010A78  1114 0001:00010A9C  1115 0001:00010AB2  1116 0001:00010ABA
  1117 0001:00010AC4  1122 0001:00010AE8  1123 0001:00010AFE  1124 0001:00010B06
  1125 0001:00010B10  1130 0001:00010B34  1131 0001:00010B4A  1132 0001:00010B52
  1133 0001:00010B5C  1136 0001:00010B80  1138 0001:00010B89  1140 0001:00010B99
  1141 0001:00010BA7  1146 0001:00010BC6  1147 0001:00010BD3  1152 0001:00010BF2
  1153 0001:00010BF9  1158 0001:00010C00  1159 0001:00010C0B  1160 0001:00010C15
  1161 0001:00010C22  1162 0001:00010C2F  1163 0001:00010C3F  1164 0001:00010C4C
  1166 0001:00010C5A  1167 0001:00010C65  1170 0001:00010C6C  1171 0001:00010C72
  1172 0001:00010C7C  1173 0001:00010C88  1174 0001:00010C8E  1176 0001:00010C9F
  1178 0001:00010D05  1179 0001:00010D14  1181 0001:00010D24  1182 0001:00010D30
  1183 0001:00010D3C  1184 0001:00010D51  1185 0001:00010D66  1186 0001:00010D80
  1187 0001:00010D9A  1188 0001:00010DB4  1189 0001:00010DCE  1190 0001:00010DDC
  1191 0001:00010DF1  1192 0001:00010E06  1193 0001:00010E18  1194 0001:00010E2A
  1195 0001:00010E3C  1197 0001:00010E4E  1198 0001:00010E59  1200 0001:00010E64
  1201 0001:00010E73  1202 0001:00010E7E  1204 0001:00010E89  1207 0001:00010E92
  1233 0001:00010E98  1234 0001:00010EB2  1235 0001:00010EBC  1236 0001:00010ED4
  1239 0001:00010EE8  1240 0001:00010F02  1242 0001:00010F11  1244 0001:00010F1D
  1249 0001:00010F4C  1250 0001:00010F52  1251 0001:00010F58  1253 0001:00010F7C
  1254 0001:00010F80  1259 0001:00010F88  1260 0001:00010F91  1261 0001:00010F9A
  1262 0001:00010FA8  1263 0001:00010FB2  1264 0001:00010FBB  1266 0001:00010FD3
  1268 0001:00010FE3  1274 0001:00010FEC  1275 0001:00010FF6  1276 0001:00011002
  1278 0001:00011006  1279 0001:00011010  1280 0001:00011021  1282 0001:00011027
  1285 0001:00011030  1286 0001:0001103C  1287 0001:0001104A  1288 0001:000110B7
  1291 0001:000110C1  1292 0001:000110CA  1293 0001:000110D7  1295 0001:000110E1
  1296 0001:000110F0  1298 0001:000110FE  1299 0001:0001111F  1300 0001:00011140
  1301 0001:00011167  1305 0001:00011188  1306 0001:00011198  1307 0001:000111A7
  1308 0001:000111B6  1309 0001:000111C5  1311 0001:000111D4  1312 0001:000111EB
  1317 0001:0001120A  1320 0001:0001121D  1322 0001:0001122D  1323 0001:00011240
  1324 0001:00011250  1326 0001:00011260  1327 0001:0001126C  1328 0001:000112DB
  1329 0001:000112EC  1331 0001:000112FC  1332 0001:0001131F  1333 0001:00011342
  1334 0001:0001136B  1338 0001:0001138E  1339 0001:0001139E  1340 0001:000113AF
  1341 0001:000113C0  1342 0001:000113CE  1344 0001:000113DC  1345 0001:000113F2
  1350 0001:00011410  1352 0001:00011420  1355 0001:0001142D  1356 0001:0001143C
  1360 0001:00011456  1361 0001:00011465  1363 0001:0001146F  1366 0001:00011480
  1367 0001:0001148A  1368 0001:000114A6  1371 0001:000114AA  1372 0001:000114B3
  1373 0001:000114C0  1375 0001:000114C4  1376 0001:000114CD  1378 0001:000114D6
  1380 0001:000114E4  1385 0001:00011513  1386 0001:00011522  1389 0001:00011529
  1392 0001:00011534  1393 0001:0001153E  1394 0001:0001155A  1397 0001:0001155E
  1398 0001:00011567  1399 0001:00011574  1401 0001:00011578  1402 0001:00011581
  1404 0001:0001158A  1406 0001:00011598  1411 0001:000115BE  1412 0001:000115CD
  1415 0001:000115D4  1418 0001:000115DC  1419 0001:000115E6  1420 0001:00011631
  1423 0001:00011638  1424 0001:00011641  1425 0001:0001164E  1427 0001:00011652
  1428 0001:0001165B  1429 0001:00011664  1430 0001:0001166D  1432 0001:00011676
  1434 0001:00011684  1439 0001:000116B6  1440 0001:000116C5  1443 0001:000116CC
  1446 0001:000116D4  1447 0001:000116DE  1448 0001:00011722  1451 0001:00011726
  1452 0001:0001172F  1453 0001:0001173C  1455 0001:00011740  1456 0001:00011749
  1457 0001:00011752  1459 0001:0001175B  1461 0001:00011769  1466 0001:0001178F
  1467 0001:0001179E  1470 0001:000117A5  1473 0001:000117B0  1474 0001:000117BA
  1475 0001:00011807  1478 0001:0001180E  1479 0001:00011817  1480 0001:00011824
  1482 0001:00011828  1483 0001:00011831  1484 0001:0001183A  1485 0001:00011843
  1487 0001:0001184B  1489 0001:00011859  1494 0001:0001187B  1495 0001:0001188A
  1498 0001:00011891  1508 0001:0001189C  1509 0001:000118A2  1510 0001:000118AC
  1511 0001:000118C4  1512 0001:000118C8  1515 0001:000118D6  1516 0001:000118EE
  1517 0001:000118F2  1518 0001:00011904  1519 0001:0001190B  1522 0001:00011920
  1523 0001:0001192C  1526 0001:0001193B  1534 0001:00011948  1535 0001:00011967
  1536 0001:00011971  1538 0001:0001198F  1539 0001:000119A7  1540 0001:000119AB
  1543 0001:000119B7  1544 0001:000119CF  1545 0001:000119D3  1546 0001:000119E3
  1547 0001:000119EA  1550 0001:000119FE  1551 0001:00011A0A  1555 0001:00011A18
  1560 0001:00011A48  1561 0001:00011A51  1562 0001:00011A5A  1563 0001:00011A68
  1564 0001:00011A72  1565 0001:00011A7B  1567 0001:00011A96  1569 0001:00011AA6
  1575 0001:00011AB4  1576 0001:00011ABE  1577 0001:00011ACA  1579 0001:00011ACE
  1580 0001:00011AD8  1581 0001:00011AE9  1583 0001:00011AF6  1586 0001:00011B00
  1587 0001:00011B0C  1588 0001:00011B1A  1589 0001:00011B87  1592 0001:00011B9A
  1593 0001:00011BA3  1594 0001:00011BB0  1596 0001:00011BC3  1597 0001:00011BD6
  1598 0001:00011BE8  1599 0001:00011BFE  1600 0001:00011C14  1601 0001:00011C30
  1602 0001:00011C46  1603 0001:00011C59  1604 0001:00011C6C  1605 0001:00011C7F
  1606 0001:00011C93  1607 0001:00011CA7  1608 0001:00011CBA  1610 0001:00011CCE
  1613 0001:00011CE4  1615 0001:00011CF7  1616 0001:00011D0A  1617 0001:00011D1D
  1619 0001:00011D30  1620 0001:00011D3C  1621 0001:00011DAB  1622 0001:00011DC0
  1623 0001:00011DD4  1624 0001:00011DEC  1625 0001:00011E04  1626 0001:00011E22
  1627 0001:00011E3A  1628 0001:00011E4D  1629 0001:00011E62  1630 0001:00011E77
  1631 0001:00011E8A  1632 0001:00011E9D  1633 0001:00011EAF  1635 0001:00011EC2
  1637 0001:00011ED5  1640 0001:00011EE5  1641 0001:00011EF4  1645 0001:00011F11
  1646 0001:00011F20  1648 0001:00011F33  1659 0001:00011F44  1660 0001:00011F5E
  1661 0001:00011F68  1662 0001:00011F80  1664 0001:00011F92  1666 0001:00011F9F
  1667 0001:00011FB9  1669 0001:00011FCC  1671 0001:00011FD8  1676 0001:00012008
  1677 0001:0001200E  1678 0001:00012014  1680 0001:00012038  1681 0001:00012041
  1686 0001:00012048  1687 0001:00012051  1688 0001:0001205A  1689 0001:00012068
  1690 0001:00012072  1691 0001:0001207B  1693 0001:00012093  1695 0001:000120A3
  1701 0001:000120AC  1702 0001:000120B6  1703 0001:000120C2  1705 0001:000120C6
  1706 0001:000120D0  1707 0001:000120E1  1709 0001:000120EC  1712 0001:000120F8
  1713 0001:000120FC  1714 0001:00012166  1717 0001:0001216F  1718 0001:00012178
  1719 0001:00012185  1721 0001:0001218E  1722 0001:0001219C  1723 0001:000121A9
  1724 0001:000121BF  1725 0001:000121D5  1726 0001:000121EB  1727 0001:00012201
  1728 0001:00012210  1729 0001:00012220  1730 0001:0001222D  1731 0001:0001223A
  1732 0001:00012248  1733 0001:00012255  1735 0001:0001226A  1738 0001:0001227A
  1740 0001:00012289  1741 0001:00012299  1742 0001:000122A8  1744 0001:000122B7
  1745 0001:000122C0  1746 0001:0001232C  1747 0001:0001233C  1748 0001:0001234B
  1749 0001:00012363  1750 0001:0001237B  1751 0001:00012393  1752 0001:000123AB
  1753 0001:000123BA  1754 0001:000123C9  1755 0001:000123D5  1756 0001:000123E1
  1757 0001:000123EE  1758 0001:000123FA  1760 0001:0001240E  1762 0001:0001241B
  1765 0001:00012427  1766 0001:00012434  1769 0001:0001243E  1774 0001:0001244C
  1775 0001:00012451  1776 0001:00012453  1777 0001:00012455  1778 0001:00012457
  1789 0001:00012458  1790 0001:00012477  1791 0001:00012481  1792 0001:00012499
  1795 0001:000124AD  1796 0001:000124C7  1798 0001:000124D0  1800 0001:000124E3
  1802 0001:000124EF  1807 0001:0001251C  1808 0001:00012522  1809 0001:0001252C
  1811 0001:00012550  1812 0001:0001255F  1817 0001:00012568  1818 0001:00012571
  1819 0001:0001257A  1820 0001:00012588  1821 0001:00012592  1822 0001:0001259B
  1824 0001:000125B4  1826 0001:000125C4  1832 0001:000125CC  1833 0001:000125D6
  1834 0001:000125E2  1836 0001:000125E6  1837 0001:000125F0  1838 0001:00012601
  1840 0001:0001260E  1843 0001:00012618  1844 0001:0001261E  1845 0001:00012688
  1848 0001:00012696  1849 0001:0001269F  1850 0001:000126AC  1852 0001:000126BA
  1853 0001:000126C6  1854 0001:000126D2  1855 0001:000126DE  1856 0001:000126F0
  1857 0001:00012702  1858 0001:00012714  1859 0001:00012724  1860 0001:00012739
  1861 0001:0001274E  1862 0001:00012763  1863 0001:00012778  1864 0001:00012792
  1866 0001:0001279E  1869 0001:000127AF  1871 0001:000127BF  1872 0001:000127CF
  1873 0001:000127DF  1875 0001:000127EF  1876 0001:000127F8  1877 0001:00012864
  1878 0001:00012872  1879 0001:00012880  1880 0001:0001288E  1881 0001:000128A2
  1882 0001:000128B6  1883 0001:000128CA  1884 0001:000128DA  1885 0001:000128F1
  1886 0001:00012905  1887 0001:00012919  1888 0001:0001292D  1889 0001:00012946
  1891 0001:00012951  1893 0001:0001295F  1896 0001:0001296C  1897 0001:00012979
  1900 0001:00012984  1903 0001:00012990  1904 0001:00012996  1905 0001:000129A1
  1908 0001:000129AC  1909 0001:000129B8  1910 0001:00012A22  1913 0001:00012A2C
  1914 0001:00012A35  1915 0001:00012A42  1917 0001:00012A4C  1918 0001:00012A5B
  1919 0001:00012A6A  1920 0001:00012A78  1921 0001:00012A8E  1922 0001:00012AA4
  1923 0001:00012AB7  1924 0001:00012ACA  1925 0001:00012AE1  1927 0001:00012AED
  1929 0001:00012AFB  1934 0001:00012B16  1935 0001:00012B25  1938 0001:00012B2F
  1949 0001:00012B3C  1950 0001:00012B5E  1951 0001:00012B68  1952 0001:00012B80
  1955 0001:00012B94  1956 0001:00012BAE  1957 0001:00012BC8  1959 0001:00012BD6
  1961 0001:00012BE9  1963 0001:00012BF5  1968 0001:00012C28  1969 0001:00012C31
  1970 0001:00012C3A  1971 0001:00012C40  1972 0001:00012C4C  1974 0001:00012C72
  1975 0001:00012C7E  1980 0001:00012C88  1981 0001:00012C8E  1982 0001:00012C98
  1984 0001:00012CBC  1985 0001:00012CCB  1990 0001:00012CD4  1991 0001:00012CDD
  1992 0001:00012CE6  1993 0001:00012CF4  1994 0001:00012CFE  1995 0001:00012D07
  1997 0001:00012D20  1999 0001:00012D30  2005 0001:00012D38  2006 0001:00012D42
  2007 0001:00012D4E  2009 0001:00012D52  2010 0001:00012D5C  2011 0001:00012D6D
  2013 0001:00012D7A  2016 0001:00012D84  2017 0001:00012D8A  2018 0001:00012DF4
  2021 0001:00012E02  2022 0001:00012E0B  2023 0001:00012E18  2025 0001:00012E26
  2026 0001:00012E32  2029 0001:00012E3E  2030 0001:00012E4E  2031 0001:00012E60
  2032 0001:00012E70  2033 0001:00012E85  2034 0001:00012E9A  2035 0001:00012EAF
  2036 0001:00012EC4  2037 0001:00012EDE  2039 0001:00012EF8  2042 0001:00012F09
  2044 0001:00012F19  2045 0001:00012F29  2046 0001:00012F39  2048 0001:00012F49
  2049 0001:00012F52  2050 0001:00012FBE  2051 0001:00012FCC  2054 0001:00012FDA
  2055 0001:00012FEA  2056 0001:00012FFE  2057 0001:0001300E  2058 0001:00013025
  2059 0001:0001303C  2060 0001:00013050  2061 0001:00013064  2062 0001:0001307D
  2064 0001:00013096  2066 0001:000130A4  2070 0001:000130B1  2071 0001:000130BE
  2075 0001:000130C9  2085 0001:000130D4  2086 0001:000130F3  2087 0001:000130FD
  2088 0001:00013115  2091 0001:00013129  2092 0001:00013143  2094 0001:00013156
  2096 0001:00013162  2101 0001:00013190  2102 0001:00013199  2103 0001:000131A2
  2104 0001:000131A8  2105 0001:000131B4  2107 0001:000131DA  2108 0001:000131E6
  2113 0001:000131F0  2114 0001:000131F6  2115 0001:00013200  2117 0001:00013224
  2118 0001:00013233  2123 0001:0001323C  2124 0001:00013245  2125 0001:0001324E
  2126 0001:0001325C  2127 0001:00013266  2128 0001:0001326F  2130 0001:00013288
  2132 0001:00013298  2138 0001:000132A0  2139 0001:000132AA  2140 0001:000132B6
  2142 0001:000132BA  2143 0001:000132C4  2144 0001:000132D5  2146 0001:000132E2
  2149 0001:000132EC  2150 0001:000132F2  2151 0001:0001335C  2154 0001:0001336A
  2155 0001:00013373  2156 0001:00013380  2158 0001:0001338E  2159 0001:000133A0
  2161 0001:000133B2  2162 0001:000133C2  2163 0001:000133D4  2164 0001:000133E4
  2165 0001:000133F4  2166 0001:0001340F  2167 0001:0001342A  2168 0001:00013445
  2169 0001:00013460  2170 0001:00013480  2172 0001:0001349A  2175 0001:000134AB
  2177 0001:000134BB  2178 0001:000134CB  2179 0001:000134DB  2181 0001:000134EB
  2182 0001:000134F4  2183 0001:00013560  2184 0001:00013574  2186 0001:00013588
  2187 0001:00013598  2188 0001:000135AC  2189 0001:000135BC  2190 0001:000135CC
  2191 0001:000135E9  2192 0001:00013606  2193 0001:00013623  2194 0001:0001363D
  2195 0001:0001365C  2197 0001:00013675  2199 0001:00013683  2203 0001:00013690
  2204 0001:0001369D  2208 0001:000136A8  2215 0001:000136B4  2216 0001:000136BA
  2218 0001:000136E5  2221 0001:000136EC  2222 0001:000136F2  2224 0001:0001371D
  2227 0001:00013724  2228 0001:00013741  2230 0001:00013767  2232 0001:0001377A
  2233 0001:0001379B  2235 0001:000137BC  2237 0001:000137C1  2242 0001:000137EC
  2243 0001:0001380E  2244 0001:00013817  2245 0001:00013825  2247 0001:00013848
  2249 0001:00013880  2251 0001:00013890  2256 0001:000138B8  2257 0001:000138C4
  2258 0001:000138CD  2259 0001:000138DB  2260 0001:000138E5  2261 0001:000138EE
  2263 0001:00013905  2265 0001:00013915  2271 0001:0001391C  2272 0001:00013933
  2273 0001:00013941  2275 0001:00013947  2276 0001:00013950  2277 0001:0001395E
  2278 0001:00013970  2280 0001:00013988  2283 0001:00013998  2286 0001:000139A4
  2287 0001:000139C8  2288 0001:00013A32  2291 0001:00013A3E  2292 0001:00013A47
  2293 0001:00013A54  2295 0001:00013A66  2296 0001:00013A81  2297 0001:00013A9B
  2298 0001:00013ABC  2299 0001:00013ADD  2300 0001:00013AFA  2301 0001:00013B17
  2302 0001:00013B3C  2303 0001:00013B57  2304 0001:00013B72  2305 0001:00013B8D
  2306 0001:00013BA8  2307 0001:00013BC6  2309 0001:00013BE3  2312 0001:00013BF4
  2314 0001:00013C0D  2315 0001:00013C1D  2316 0001:00013C2C  2318 0001:00013C45
  2319 0001:00013C4E  2320 0001:00013CBA  2321 0001:00013CD7  2322 0001:00013CF3
  2323 0001:00013D16  2324 0001:00013D39  2325 0001:00013D58  2326 0001:00013D77
  2327 0001:00013D88  2328 0001:00013DA5  2329 0001:00013DC2  2330 0001:00013DDF
  2331 0001:00013DFC  2332 0001:00013E19  2334 0001:00013E35  2336 0001:00013E43
  2339 0001:00013E59  2340 0001:00013E6D  2343 0001:00013E81  2356 0001:00013EE0
  2357 0001:00013EFF  2358 0001:00013F08  2359 0001:00013F16  2361 0001:00013F39
  2363 0001:00013F64  2365 0001:00013F74  2370 0001:00013F98  2371 0001:00013FA4
  2372 0001:00013FAD  2373 0001:00013FBB  2374 0001:00013FC5  2375 0001:00013FCE
  2377 0001:00013FE5  2379 0001:00013FF5  2385 0001:00013FFC  2386 0001:00014026
  2387 0001:00014034  2389 0001:0001403A  2390 0001:00014043  2391 0001:00014051
  2392 0001:00014060  2394 0001:0001408E  2397 0001:0001409E  2400 0001:000140C4
  2401 0001:000140E7  2402 0001:00014151  2405 0001:0001415D  2406 0001:00014166
  2407 0001:00014173  2409 0001:00014185  2410 0001:000141A0  2411 0001:000141BA
  2412 0001:000141DB  2413 0001:000141FC  2414 0001:00014219  2415 0001:00014236
  2416 0001:0001424E  2417 0001:00014269  2418 0001:00014284  2419 0001:0001429F
  2420 0001:000142BA  2421 0001:000142D8  2423 0001:000142F5  2426 0001:00014306
  2428 0001:0001431F  2429 0001:0001432F  2430 0001:0001433E  2432 0001:00014357
  2433 0001:00014360  2434 0001:000143CC  2435 0001:000143E9  2436 0001:00014405
  2437 0001:00014428  2438 0001:0001444B  2439 0001:0001446A  2440 0001:00014489
  2441 0001:0001449A  2442 0001:000144B7  2443 0001:000144D4  2444 0001:000144F1
  2445 0001:0001450E  2446 0001:0001452B  2448 0001:00014547  2450 0001:00014555
  2453 0001:0001456B  2454 0001:0001457F  2457 0001:00014593  2462 0001:00014618
  2463 0001:00014624  2464 0001:0001462D  2465 0001:0001463B  2466 0001:00014645
  2467 0001:0001464E  2468 0001:00014655  2469 0001:00014662  2471 0001:00014679
  2473 0001:00014689  2478 0001:00014690  2479 0001:00014697  2480 0001:000146C4
  2483 0001:000146CD  2484 0001:000146D6  2485 0001:000146E3  2488 0001:000146EC
  2490 0001:000146F8  2491 0001:00014706  2493 0001:00014711  2495 0001:00014739
  2497 0001:00014745  2502 0001:0001475C  2503 0001:00014763  2504 0001:0001477C
  2507 0001:00014785  2508 0001:0001478E  2509 0001:0001479B  2511 0001:000147A4
  2512 0001:000147B0  2514 0001:000147BE  2516 0001:000147E6  2518 0001:000147F2
  2534 0001:00014808  2535 0001:00014811  2536 0001:00014818  2537 0001:0001481F
  2538 0001:00014828  2540 0001:00014838  2541 0001:0001483D  2542 0001:00014840
  2545 0001:00014844  2546 0001:0001484A  2547 0001:00014851  2548 0001:00014858
  2549 0001:0001485D  2550 0001:00014860  2578 0001:00014864  2579 0001:0001486A
  2580 0001:00014871  2581 0001:00014878  2582 0001:0001487D  2583 0001:00014880
  2586 0001:00014884  2587 0001:0001488A  2588 0001:00014891  2589 0001:00014898
  2590 0001:0001489D  2591 0001:000148A1  2594 0001:000148A4  2595 0001:000148AA
  2596 0001:000148B1  2597 0001:000148B8  2598 0001:000148BD  2599 0001:000148C0
  2602 0001:000148C4  2603 0001:000148CA  2604 0001:000148D1  2605 0001:000148D8
  2606 0001:000148DD  2607 0001:000148E0  2610 0001:000148E4  2611 0001:000148EA
  2612 0001:000148F1  2613 0001:000148F8  2614 0001:000148FD  2615 0001:00014901
  2618 0001:00014904  2619 0001:0001490A  2620 0001:00014911  2621 0001:00014918
  2622 0001:0001491D  2623 0001:00014929  2626 0001:00014930  2627 0001:00014936
  2628 0001:0001493D  2629 0001:00014944  2630 0001:0001494A  2631 0001:0001494F
  2634 0001:00014954  2635 0001:0001495A  2636 0001:00014961  2637 0001:00014968
  2638 0001:00014974  2639 0001:00014979  2642 0001:00014980  2643 0001:00014986
  2644 0001:0001498D  2645 0001:00014994  2646 0001:000149A0  2647 0001:000149A5
  2650 0001:000149AC  2651 0001:000149B2  2652 0001:000149B9  2653 0001:000149C0
  2654 0001:000149CC  2655 0001:000149D1  2658 0001:000149D8  2659 0001:000149DE
  2660 0001:000149E5  2661 0001:000149EC  2662 0001:000149F1  2663 0001:000149FB
  2667 0001:00014A00  2668 0001:00014A01  2669 0001:00014A06  2670 0001:00014A07
  2671 0001:00014A0C  2672 0001:00014A0F  2673 0001:00014A10  2687 0001:00014A14
  2688 0001:00014A15  2689 0001:00014A1A  2690 0001:00014A1B  2691 0001:00014A20
  2692 0001:00014A23  2693 0001:00014A24  2696 0001:00014A28  2697 0001:00014A2E
  2698 0001:00014A35  2699 0001:00014A3C  2700 0001:00014A41  2701 0001:00014A46
  2702 0001:00014A50  2705 0001:00014A54  2706 0001:00014A6D  2707 0001:00014A81
  2710 0001:00014AA4  2711 0001:00014AAA  2712 0001:00014AB1  2713 0001:00014AB8
  2714 0001:00014ABD  2715 0001:00014AC2  2716 0001:00014AD7  2719 0001:00014ADC
  2720 0001:00014AE2  2721 0001:00014AE9  2722 0001:00014AF0  2723 0001:00014AF5
  2724 0001:00014AFA  2725 0001:00014B04  2728 0001:00014B08  2729 0001:00014B0E
  2730 0001:00014B15  2731 0001:00014B1C  2732 0001:00014B21  2733 0001:00014B26
  2734 0001:00014B30  3973 0001:00014B34  3974 0001:00014B38  3975 0001:00014B3A
  3976 0001:00014B3D  3977 0001:00014B40  3978 0001:00014B43  3979 0001:00014B45
  3980 0001:00014B4A  3981 0001:00014B4C  3982 0001:00014B51  3984 0001:00014B54
  3994 0001:00014CB8  3995 0001:00014CDE  3996 0001:00014CEB  3997 0001:00014D01
  3998 0001:00014D08  3999 0001:00014D19  4000 0001:00014D20  4001 0001:00014D2E
  4002 0001:00014D3C  4004 0001:00014D77  4006 0001:00014D9F  4007 0001:00014DA4
  4008 0001:00014DB2  4009 0001:00014DB7  4010 0001:00014DC5  4014 0001:00014E28
  4015 0001:00014E2B  4019 0001:00014E2C  4021 0001:00014E2E  4020 0001:00014E31
  4022 0001:00014E38  4068 0001:00014E3C  4069 0001:00014E3D  4070 0001:00014E44
  4110 0001:00014E48  4111 0001:00014E59  4130 0001:00014E5C  4131 0001:00014E5F
  4132 0001:00014E6D  4135 0001:00014E70  4136 0001:00014E76  4137 0001:00014E85
  4140 0001:00014E88  4141 0001:00014E91  4142 0001:00014E9C  4144 0001:00014EA7
  4145 0001:00014EB0  4148 0001:00014EB4  4149 0001:00014ECD  4150 0001:00014EE7
  4153 0001:00014F0C  4154 0001:00014F15  4155 0001:00014F20  4157 0001:00014F2B
  4158 0001:00014F34  4225 0001:00014F38  4226 0001:00014F3E  4227 0001:00014F45
  4228 0001:00014F4A  4229 0001:00014F4D  4241 0001:00014F50  4242 0001:00014F5A
  4297 0001:00014F5C  4299 0001:00014F5D  4300 0001:00014F67  4305 0001:00014F73
  4306 0001:00014F76  4309 0001:00014F7D  4310 0001:00014F81  4311 0001:00014F87
  4313 0001:00014F90  4315 0001:00014F97  4317 0001:00014F9B  4328 0001:00014FA0
  4329 0001:00014FB3  4331 0001:00014FCA  4333 0001:00014FCF  4334 0001:00014FDA
  4335 0001:00014FEB  4337 0001:00014FED  4338 0001:00014FF2  4339 0001:00014FFB
  4334 0001:00015001  4341 0001:00015004  4342 0001:0001501B  4343 0001:0001501F
  4345 0001:00015024  4347 0001:0001502C  4348 0001:0001503A  4349 0001:00015040
  4381 0001:00015048  4382 0001:0001504E  4383 0001:0001505F  4384 0001:00015069
  4390 0001:00015070  4391 0001:00015076  4392 0001:00015087  4394 0001:00015090
  4395 0001:00015092  4398 0001:00015098  4399 0001:0001509F  4400 0001:000150B3
  4403 0001:000150BC  4404 0001:000150C3  4405 0001:000150D7  4408 0001:000150E0
  4409 0001:000150E4  4410 0001:000150F7  4413 0001:00015100  4414 0001:00015103
  4415 0001:00015115  4449 0001:00015118  4451 0001:00015137  4454 0001:00015138
  4455 0001:0001513C  4458 0001:0001516E  4468 0001:00015174  4469 0001:0001517B
  4470 0001:0001518D  4472 0001:00015197  4473 0001:000151A2  4476 0001:000151AC
  4477 0001:000151B5  4478 0001:000151C3  4479 0001:000151CF  4481 0001:000151D4
  4482 0001:000151EA  4486 0001:000151F9  4487 0001:0001520F  4491 0001:00015213
  4493 0001:0001522B  4495 0001:0001523B  4498 0001:00015240  4508 0001:00015243
  4510 0001:00015244  4511 0001:00015246  4512 0001:00015247  4514 0001:00015249
  4515 0001:0001524C  4516 0001:0001524D  4518 0001:0001524F  4519 0001:00015250
  4523 0001:00015251  4525 0001:00015254  4526 0001:00015255  4527 0001:0001525A
  4529 0001:0001525E  4533 0001:0001525F  4547 0001:00015264  4548 0001:0001526F
  4549 0001:00015281  4551 0001:0001528B  4554 0001:000152B1  4556 0001:000152BB
  4557 0001:000152C6  4559 0001:000152D0  4561 0001:000152DC  4565 0001:000152F6
  4566 0001:0001530C  4569 0001:0001531B  4570 0001:00015324  4571 0001:00015332
  4573 0001:00015337  4574 0001:00015341  4577 0001:00015349  4578 0001:00015355
  4580 0001:00015362  4582 0001:0001536A  4585 0001:00015370  4587 0001:00015393
  4590 0001:000153A3  4593 0001:000153AC  4603 0001:000153AF  4608 0001:000153B0
  4611 0001:000153B3  4612 0001:000153B5  4614 0001:000153B7  4615 0001:000153BA
  4616 0001:000153BB  4621 0001:000153BD  4623 0001:000153C0  4624 0001:000153C1
  4625 0001:000153C2  4626 0001:000153C3  4627 0001:000153C4  4628 0001:000153C9
  4630 0001:000153CD  4634 0001:000153CE  4638 0001:000153D4  4644 0001:000153D7
  4645 0001:000153D8  4646 0001:000153D9  4647 0001:000153DA  4649 0001:000153DB
  4650 0001:000153DD  4651 0001:000153E0  4653 0001:000153E2  4654 0001:000153E4
  4655 0001:000153E6  4657 0001:000153E8  4658 0001:000153EA  4659 0001:000153EC
  4661 0001:000153EF  4662 0001:000153F1  4663 0001:000153F4  4664 0001:000153F6
  4665 0001:000153F9  4666 0001:000153FC  4667 0001:000153FF  4668 0001:00015401
  4669 0001:00015403  4671 0001:00015405  4672 0001:00015407  4673 0001:00015408
  4674 0001:0001540A  4678 0001:0001540C  4680 0001:0001540E  4681 0001:0001540F
  4682 0001:00015410  4683 0001:00015411  4684 0001:00015412  4689 0001:00015418
  4690 0001:0001541A  4692 0001:0001541E  4693 0001:00015424  4694 0001:0001542B
  4696 0001:0001542D  4700 0001:00015430  4701 0001:00015434  4704 0001:00015438
  4705 0001:00015439  4702 0001:00015442  4707 0001:0001544B  4712 0001:00015450
  4713 0001:00015452  4714 0001:00015454  4716 0001:00015457  4723 0001:00015458
  4725 0001:0001545F  4727 0001:00015463  4728 0001:00015465  4731 0001:0001546C
  4733 0001:00015475  4736 0001:00015479  4739 0001:00015482  4742 0001:0001548B
  4743 0001:00015495  4745 0001:000154A1  4746 0001:000154A5  4747 0001:000154A7
  4742 0001:000154A8  4750 0001:000154AB  4731 0001:000154AD  4753 0001:000154B3
  4760 0001:000154C0  4761 0001:000154CA  4763 0001:000154CC  4764 0001:000154D6
  4766 0001:000154EC  4767 0001:000154F4  4769 0001:000154F8  4770 0001:00015506
  4771 0001:00015508  4766 0001:00015509  4772 0001:0001550C  4780 0001:00015514
  4782 0001:0001551B  4783 0001:0001551D  4784 0001:0001552D  4786 0001:00015535
  4787 0001:00015537  4788 0001:00015539  4783 0001:0001553A  4789 0001:0001553D
  4796 0001:00015541  4799 0001:0001554D  4801 0001:00015555  4802 0001:0001555A
  4810 0001:0001555C  4812 0001:00015564  4807 0001:00015565  4815 0001:0001556D
  4816 0001:00015572  4818 0001:00015574  4796 0001:00015575  4819 0001:0001557A
  4828 0001:00015580  4829 0001:00015586  4831 0001:00015588  4832 0001:00015591
  4834 0001:000155AB  4837 0001:000155AF  4838 0001:000155B6  4839 0001:000155B7
  4841 0001:000155BB  4842 0001:000155C8  4845 0001:000155CC  4846 0001:000155D5
  4835 0001:000155D6  4848 0001:000155DE  4853 0001:000155E4  4854 0001:000155E5
  4855 0001:000155EA  4857 0001:000155F3  4858 0001:000155F9  4861 0001:000155FC
  4862 0001:00015601  4866 0001:00015606  4870 0001:00015622  4871 0001:00015627
  4883 0001:0001562C  4884 0001:00015657  4885 0001:00015665  4889 0001:00015673
  4892 0001:0001567B  4895 0001:00015687  4896 0001:00015690  4898 0001:00015699
  4901 0001:0001569F  4904 0001:000156A6  4905 0001:000156A9  4909 0001:000156BA
  4912 0001:000156C6  4913 0001:000156D2  4916 0001:000156E3  4920 0001:00015708
  4921 0001:00015710  4923 0001:0001571E  4924 0001:00015735  4926 0001:0001573D
  4927 0001:000157D7  4928 0001:000157E9  4929 0001:000157FA  4930 0001:00015809
  4931 0001:00015818  4932 0001:00015827  4933 0001:00015836  4934 0001:00015845
  4935 0001:00015854  4936 0001:00015865  4937 0001:00015879  4938 0001:00015885
  4939 0001:00015891  4940 0001:000158A0  4941 0001:000158AF  4942 0001:000158BE
  4943 0001:000158CC  4944 0001:000158DD  4946 0001:000158E9  4948 0001:000158F1
  4950 0001:00015908  4954 0001:00015928  4956 0001:00015938  4967 0001:00015978
  4969 0001:000159A5  4972 0001:000159B0  4973 0001:000159B6  4976 0001:000159C0
  4977 0001:000159C8  4980 0001:000159D6  4983 0001:000159E5  4984 0001:000159F0
  4983 0001:00015A12  4987 0001:00015A15  4990 0001:00015A28  4991 0001:00015A2F
  4995 0001:00015A38  4996 0001:00015A47  5000 0001:00015A58  5001 0001:00015A71
  5002 0001:00015A8B  5003 0001:00015B24  5004 0001:00015B34  5005 0001:00015B43
  5006 0001:00015B53  5007 0001:00015B63  5008 0001:00015B73  5009 0001:00015B83
  5010 0001:00015B92  5011 0001:00015B9E  5012 0001:00015BAA  5013 0001:00015BB7
  5014 0001:00015BC3  5015 0001:00015BCF  5016 0001:00015BDB  5017 0001:00015BE7
  5018 0001:00015BF4  5019 0001:00015C00  5020 0001:00015C0F  5022 0001:00015C19
  5025 0001:00015C2C  5029 0001:00015C41  5031 0001:00015C51  5043 0001:00015CAC
  5044 0001:00015CB6  5045 0001:00015CC0  5046 0001:00015CCE  5047 0001:00015CDD
  5048 0001:00015CEA  5046 0001:00015CF0  5050 0001:00015D02  5052 0001:00015D14
  5058 0001:00015D18  5059 0001:00015D1B  5060 0001:00015D20  5065 0001:00015D24
  5066 0001:00015D2E  5067 0001:00015D3C  5069 0001:00015D50  5070 0001:00015D57
  5076 0001:00015D5C  5077 0001:00015D6F  5079 0001:00015D84  5081 0001:00015D94
  5082 0001:00015D9B  5086 0001:00015DA4  5087 0001:00015DA7  5088 0001:00015DAC
  5103 0001:00015DB0  5104 0001:00015DBB  5105 0001:00015DC8  5106 0001:00015DDD
  5112 0001:00015DE8  5113 0001:00015DF3  5114 0001:00015E02  5116 0001:00015E14
  5117 0001:00015E1B  5120 0001:00015E24  5121 0001:00015E36  5122 0001:00015E46
  5123 0001:00015E4C  5128 0001:00015E68  5129 0001:00015EA9  5130 0001:00015EB3
  5131 0001:00015EBD  5132 0001:00015ECB  5133 0001:00015ED5  5134 0001:00015EE1
  5135 0001:00015F21  5136 0001:00015F2D  5138 0001:00015F31  5139 0001:00015F43
  5140 0001:00015F4B  5141 0001:00015F6C  5142 0001:00015F85  5143 0001:00015F99
  5142 0001:00015FA5  5145 0001:00015FA8  5146 0001:00015FB8  5147 0001:00015FC0
  5149 0001:00016002  5150 0001:0001606A  5151 0001:00016075  5153 0001:0001608D
  5155 0001:0001609F  5158 0001:000160F0  5159 0001:00016101  5160 0001:0001610B
  5161 0001:00016119  5162 0001:00016125  5164 0001:00016148  5167 0001:0001615A
  5168 0001:00016169  5172 0001:0001617C  5173 0001:0001617E  5177 0001:00016180
  5178 0001:00016183  5179 0001:0001618D  5180 0001:0001618F  5185 0001:00016194
  5186 0001:00016199  5187 0001:0001619B  5191 0001:0001619C  5192 0001:000161A1
  5196 0001:000161A4  5197 0001:000161A9  5201 0001:000161AC  5202 0001:000161B1
  5206 0001:000161B4  5207 0001:000161B7  5208 0001:000161C1  5209 0001:000161C3
  5227 0001:000161C8  5228 0001:000161CD  5232 0001:000161D0  5233 0001:000161D6
  5237 0001:000161D8  5238 0001:000161DF  5247 0001:000161E0  5248 0001:000161E9
  5258 0001:000161EC  5259 0001:000161EF  5260 0001:000161FC  5283 0001:00016200
  5284 0001:00016207  5288 0001:00016208  5289 0001:0001620B  5290 0001:00016210
  5299 0001:00016214  5300 0001:0001621D  5304 0001:00016220  5305 0001:00016229
  5308 0001:0001622C  5309 0001:0001622F  5310 0001:00016232  5313 0001:00016238
  5314 0001:0001623B  5315 0001:0001623E  5320 0001:00016244  5321 0001:0001624B
  5322 0001:0001625C  5324 0001:00016260  5325 0001:00016265  5339 0001:0001626C
  5340 0001:00016274  5348 0001:00016278  5349 0001:0001627E  5350 0001:00016287
  5355 0001:0001628C  5356 0001:00016292  5357 0001:0001629B  5385 0001:000162E8
  5386 0001:00016304  5387 0001:00016317  5390 0001:0001631F  5391 0001:00016324
  5394 0001:0001633B  5396 0001:00016344  5397 0001:00016353  5400 0001:00016357
  5401 0001:0001637E  5402 0001:00016389  5403 0001:00016399  5408 0001:000163A7
  5409 0001:000163CC  5410 0001:000163D1  5411 0001:000163E1  5413 0001:000163F2
  5417 0001:000163FD  5419 0001:00016401  5422 0001:00016415  5423 0001:00016431
  5424 0001:00016444  5428 0001:0001645B  5429 0001:00016464  5431 0001:00016471
  5434 0001:00016480  5435 0001:000164A3  5436 0001:000164A8  5437 0001:000164B8
  5439 0001:000164C9  5443 0001:000164D4  5444 0001:000164EA  5448 0001:000164F3
  5449 0001:00016501  5452 0001:0001651E  5456 0001:00016532  5457 0001:00016544
  5458 0001:00016557  5461 0001:00016560  5464 0001:0001656B  5465 0001:00016572
  5471 0001:0001659C  5473 0001:000165CC  5474 0001:000165D6  5477 0001:000165F6
  5478 0001:000165FC  5479 0001:00016616  5480 0001:0001661B  5481 0001:00016635
  5482 0001:00016640  5481 0001:0001664A  5485 0001:0001664D  5488 0001:0001666C
  5490 0001:00016672  5494 0001:0001668C  5495 0001:00016697  5500 0001:000166A5
  5503 0001:000166AD  5504 0001:000166C7  5506 0001:000166DC  5512 0001:000166EF
  5514 0001:000166F5  5516 0001:0001672E  5520 0001:0001673B  5521 0001:00016755
  5524 0001:0001675F  5527 0001:00016781  5530 0001:0001678B  5533 0001:000167AD
  5535 0001:000167B7  5539 0001:000167BF  5540 0001:000167C2  5542 0001:000167C6
  5543 0001:000167C7  5544 0001:000167CD  5545 0001:000167D3  5540 0001:000167F3
  5547 0001:000167F7  5551 0001:00016848  5552 0001:0001684B  5553 0001:0001684D
  5557 0001:00016854  5558 0001:00016857  5559 0001:00016859  5563 0001:00016860
  5564 0001:00016863  5565 0001:00016865  5569 0001:0001686C  5570 0001:0001686F
  5571 0001:00016871  5576 0001:00016878  5578 0001:00016883  5580 0001:000168A3
  5582 0001:000168A9  5583 0001:000168B3  5584 0001:000168C1  5585 0001:000168DC
  5587 0001:000168E2  5588 0001:000168F0  5592 0001:00016915  5595 0001:00016927
  5628 0001:00016934  5629 0001:00016939  5811 0001:0001693C  5812 0001:0001695A
  5813 0001:00016964

Line numbers for Variants(variants.pas) segment .itext

  5795 0002:0000016C  5796 0002:00000186  5798 0002:00000190  5799 0002:0000019A
  5800 0002:000001A4  5801 0002:000001AF  5803 0002:000001B4  5804 0002:000001C1
  5805 0002:000001CE  5806 0002:000001DB  5807 0002:000001E8  5809 0002:000001F5
  5810 0002:000001FF

Line numbers for Messages(Messages.pas) segment .text

  1851 0001:00000000

Line numbers for ActiveX(ActiveX.pas) segment .text

  6276 0001:000169E8  6278 0001:000169F0  6448 0001:000169F8  6625 0001:00016A00
  6705 0001:00016A06

Line numbers for RTLConsts(RTLConsts.pas) segment .text

   320 0001:00000000

Line numbers for TypInfo(TypInfo.pas) segment .text

   357 0001:00016CA8   358 0001:00016CB1   359 0001:00016CD8   362 0001:00016CDC
   363 0001:00016CDF   364 0001:00016CF6   377 0001:00016CF8   378 0001:00016D07
   379 0001:00016D1D   382 0001:00016D24   383 0001:00016D33   384 0001:00016D49
   546 0001:00016D50   547 0001:00016D5F   548 0001:00016D67   549 0001:00016D7B
   550 0001:00016D81   552 0001:00016D8B   553 0001:00016D9D   559 0001:00016DA8
   561 0001:00016DD4   564 0001:00016DDC   566 0001:00016E3E   568 0001:00016E5A
   569 0001:00016E60   570 0001:00016E7E   571 0001:00016E97   573 0001:00016EB1
   575 0001:00016ECD   576 0001:00016ED3   578 0001:00016EF4   580 0001:00016F10
   582 0001:00016F28   584 0001:00016F3D   586 0001:00016F5B   588 0001:00016F76
   590 0001:00016F86   593 0001:00016F9D   594 0001:00016FAB   597 0001:00016FBF
   600 0001:00016FEB   606 0001:0001701C   607 0001:0001702B   608 0001:0001703F
   609 0001:00017045   611 0001:0001704F   612 0001:0001705D   618 0001:00017068
   619 0001:0001706E   620 0001:00017084   621 0001:000170AC   622 0001:000170B1
   628 0001:000170C0   629 0001:000170DC   632 0001:000170F7   633 0001:00017105
   634 0001:00017122   636 0001:00017136   641 0001:0001714A   642 0001:00017158
   643 0001:00017175   645 0001:00017189   648 0001:0001719D   651 0001:000171B3
   652 0001:000171DB   653 0001:000171E0   658 0001:00017210   659 0001:0001723C
   662 0001:0001724B   664 0001:000172AD   667 0001:000172D8   668 0001:000172E6
   672 0001:00017311   676 0001:0001733E   677 0001:0001734C   678 0001:0001736A
   680 0001:00017378   682 0001:000173A2   685 0001:000173CD   686 0001:000173DB
   688 0001:000173F5   690 0001:00017413   692 0001:00017432   694 0001:00017450
   696 0001:0001746E   698 0001:0001747E   702 0001:000174A5   703 0001:000174AA
   704 0001:000174BC   707 0001:000174CC   710 0001:000174F8   746 0001:00017528
   747 0001:00017554   748 0001:00017578   749 0001:0001757C   753 0001:000175A4
   754 0001:000175B3   755 0001:000175C9   756 0001:000175CD   763 0001:000175D8
   764 0001:000175DA   765 0001:000175DD   766 0001:000175E1   772 0001:000175E4
   773 0001:00017607   775 0001:0001760F   776 0001:0001761A   778 0001:0001761F
   779 0001:00017634   783 0001:00017648   784 0001:00017661   785 0001:00017676
   789 0001:00017690   790 0001:00017699   792 0001:0001769F   793 0001:000176A9
   790 0001:000176AC   795 0001:000176B2   797 0001:000176BD   806 0001:000176EC
   807 0001:000176ED   808 0001:000176EE   810 0001:000176EF   811 0001:000176F1
   814 0001:000176F3   815 0001:000176F5   816 0001:000176F8   817 0001:000176FC
   818 0001:000176FE   819 0001:00017701   822 0001:00017705   825 0001:00017709
   830 0001:0001770B   831 0001:0001770D   832 0001:00017710   836 0001:00017712
   837 0001:00017716   838 0001:00017719   839 0001:0001771C   840 0001:0001771E
   841 0001:0001771F   844 0001:00017721   847 0001:00017723   849 0001:00017725
   850 0001:00017726   851 0001:0001772A   852 0001:0001772C   856 0001:0001772E
   859 0001:00017731   860 0001:00017732   861 0001:00017733   862 0001:00017734
   865 0001:00017738   866 0001:00017744   867 0001:0001774C   871 0001:00017759
   873 0001:00017767   874 0001:00017779   875 0001:00017780   876 0001:00017792
   878 0001:0001779B   881 0001:000177A8   883 0001:000177B6   891 0001:000177C0
   892 0001:000177C1   893 0001:000177C2   895 0001:000177C3   896 0001:000177C5
   898 0001:000177C7   899 0001:000177C9   900 0001:000177CB   901 0001:000177CD
   902 0001:000177D0   903 0001:000177D2   906 0001:000177D8   907 0001:000177DA
   908 0001:000177DD   909 0001:000177E1   910 0001:000177E4   911 0001:000177E9
   912 0001:000177EB   913 0001:000177ED   916 0001:000177F1   917 0001:000177F5
   918 0001:000177F8   919 0001:000177FA   922 0001:000177FC   923 0001:000177FE
   924 0001:000177FF   925 0001:00017803   928 0001:00017805   929 0001:00017808
   930 0001:0001780A   931 0001:0001780C   932 0001:0001780E   935 0001:00017810
   936 0001:00017812   937 0001:00017815   938 0001:00017818   941 0001:0001781A
   944 0001:0001781C   945 0001:00017820   946 0001:00017824   947 0001:00017827
   948 0001:00017829   949 0001:0001782A   952 0001:0001782C   953 0001:0001782D
   954 0001:0001782E   955 0001:0001782F   958 0001:00017830   959 0001:0001783F
   960 0001:0001784D   963 0001:00017873   964 0001:00017878  1228 0001:00017884
  1229 0001:00017885  1230 0001:00017886  1231 0001:00017888  1232 0001:0001788A
  1233 0001:0001788C  1234 0001:0001788F  1235 0001:00017891  1236 0001:00017893
  1237 0001:00017896  1239 0001:0001789A  1240 0001:0001789D  1241 0001:000178A1
  1242 0001:000178A4  1243 0001:000178A6  1246 0001:000178A8  1247 0001:000178AB
  1248 0001:000178AD  1249 0001:000178AF  1252 0001:000178B1  1253 0001:000178B3
  1256 0001:000178B5  1257 0001:000178BB  1258 0001:000178BD  1259 0001:000178BF
  1260 0001:000178C2  1261 0001:000178C4  1262 0001:000178C7  1263 0001:000178CA
  1264 0001:000178CC  1266 0001:000178CE  1267 0001:000178D1  1268 0001:000178D3
  1269 0001:000178D6  1270 0001:000178D8  1271 0001:000178DB  1272 0001:000178DE
  1273 0001:000178E0  1274 0001:000178E5  1276 0001:000178E8  1277 0001:000178EB
  1278 0001:000178ED  1280 0001:000178F2  1281 0001:000178F3  1282 0001:000178F4
  1291 0001:000178F8  1292 0001:000178F9  1293 0001:000178FA  1294 0001:000178FB
  1296 0001:000178FD  1297 0001:000178FF  1298 0001:00017901  1299 0001:00017903
  1300 0001:00017906  1301 0001:00017908  1302 0001:0001790A  1303 0001:0001790D
  1305 0001:00017911  1306 0001:00017914  1307 0001:0001791A  1308 0001:0001791C
  1310 0001:0001791E  1311 0001:00017921  1312 0001:00017925  1313 0001:00017927
  1316 0001:00017929  1317 0001:0001792C  1318 0001:0001792E  1319 0001:00017930
  1322 0001:00017932  1323 0001:00017934  1326 0001:00017936  1327 0001:0001793C
  1328 0001:0001793E  1329 0001:00017940  1330 0001:00017943  1331 0001:00017945
  1332 0001:00017948  1333 0001:0001794B  1334 0001:0001794D  1336 0001:0001794F
  1337 0001:00017950  1338 0001:00017951  1339 0001:00017952  1374 0001:00017954
  1375 0001:00017963  1376 0001:0001797F  1382 0001:00017984  1383 0001:00017993
  1384 0001:000179A5  1385 0001:000179AB  1386 0001:000179D2  1387 0001:000179E0
  1391 0001:000179E4  1392 0001:000179F3  1393 0001:00017A0F  1400 0001:00017A18
  1401 0001:00017A3B  1402 0001:00017A43  1403 0001:00017A49  1404 0001:00017A5D
  1405 0001:00017A62  1407 0001:00017A70  1408 0001:00017A78  1409 0001:00017A88
  1410 0001:00017AA4  1404 0001:00017AA7  1411 0001:00017AAD  1412 0001:00017AB3
  1413 0001:00017ACF  1426 0001:00017B18  1427 0001:00017B24  1431 0001:00017B2B
  1430 0001:00017B2E  1433 0001:00017B49  1437 0001:00017B5B  1436 0001:00017B5E
  1439 0001:00017B75  1440 0001:00017B7D  1442 0001:00017B84  1443 0001:00017BA9
  1444 0001:00017BAE  1445 0001:00017BB8  1449 0001:00017BC5  1448 0001:00017BC8
  1451 0001:00017BD5  1452 0001:00017BE9  1455 0001:00017C03  1456 0001:00017C11
  1457 0001:00017C17  1458 0001:00017C3E  1459 0001:00017C4A  1453 0001:00017C62
  1461 0001:00017C68  1465 0001:00017C9C  1466 0001:00017CAB  1467 0001:00017CC3
  1503 0001:00017CC8  1508 0001:00017CCB  1509 0001:00017CCC  1510 0001:00017CCD
  1512 0001:00017CCF  1513 0001:00017CD2  1514 0001:00017CD8  1515 0001:00017CDA
  1517 0001:00017CDC  1518 0001:00017CDF  1519 0001:00017CE3  1520 0001:00017CE5
  1523 0001:00017CE7  1524 0001:00017CEA  1525 0001:00017CEC  1526 0001:00017CEE
  1529 0001:00017CF0  1530 0001:00017CF2  1533 0001:00017CF4  1534 0001:00017CFA
  1535 0001:00017CFC  1536 0001:00017CFE  1537 0001:00017D00  1538 0001:00017D02
  1539 0001:00017D03  1542 0001:00017D05  1543 0001:00017D06  1544 0001:00017D07
  1553 0001:00017D0C  1554 0001:00017D0D  1555 0001:00017D0E  1557 0001:00017D10
  1558 0001:00017D13  1559 0001:00017D19  1560 0001:00017D1B  1562 0001:00017D1D
  1563 0001:00017D20  1564 0001:00017D24  1565 0001:00017D26  1568 0001:00017D28
  1569 0001:00017D2B  1570 0001:00017D2D  1571 0001:00017D2F  1574 0001:00017D32
  1575 0001:00017D34  1578 0001:00017D37  1579 0001:00017D3D  1580 0001:00017D3F
  1581 0001:00017D41  1582 0001:00017D43  1583 0001:00017D45  1584 0001:00017D47
  1585 0001:00017D4A  1587 0001:00017D4E  1588 0001:00017D4F  1589 0001:00017D51
  1590 0001:00017D53  1592 0001:00017D55  1593 0001:00017D56  1594 0001:00017D58
  1596 0001:00017D5A  1597 0001:00017D5B  1598 0001:00017D5C  1604 0001:00017D60
  1605 0001:00017D72  1606 0001:00017D88  1607 0001:00017D96  1613 0001:00017D9C
  1614 0001:00017DAE  1615 0001:00017DC1  1616 0001:00017DD2  1619 0001:00017DD8
  1620 0001:00017DE4  1621 0001:00017DEF  1630 0001:00017DF4  1631 0001:00017DF5
  1632 0001:00017DF6  1634 0001:00017DF8  1635 0001:00017DFB  1636 0001:00017E01
  1637 0001:00017E03  1639 0001:00017E05  1640 0001:00017E08  1641 0001:00017E0C
  1642 0001:00017E0E  1645 0001:00017E10  1646 0001:00017E13  1647 0001:00017E15
  1648 0001:00017E17  1651 0001:00017E1A  1652 0001:00017E1C  1655 0001:00017E1F
  1656 0001:00017E25  1657 0001:00017E28  1658 0001:00017E2A  1661 0001:00017E2F
  1662 0001:00017E30  1663 0001:00017E31  1672 0001:00017E34  1673 0001:00017E35
  1674 0001:00017E36  1676 0001:00017E38  1677 0001:00017E3B  1678 0001:00017E41
  1679 0001:00017E43  1681 0001:00017E45  1682 0001:00017E48  1683 0001:00017E4C
  1684 0001:00017E4E  1687 0001:00017E50  1688 0001:00017E53  1689 0001:00017E55
  1690 0001:00017E57  1693 0001:00017E5A  1694 0001:00017E5C  1697 0001:00017E5F
  1698 0001:00017E65  1699 0001:00017E67  1700 0001:00017E69  1703 0001:00017E6E
  1704 0001:00017E6F  1705 0001:00017E70  1709 0001:00017E74  1710 0001:00017E97
  1711 0001:00017EB0  1717 0001:00017ED4  1718 0001:00017EF7  1719 0001:00017F02
  1720 0001:00017F10  1723 0001:00017F34  1724 0001:00017F43  1725 0001:00017F5A
  1726 0001:00017F6A  1727 0001:00017F7A  1729 0001:00017F8A  1731 0001:00017F92
  1735 0001:00017F98  1736 0001:00017FA7  1737 0001:00017FBE  1738 0001:00017FCE
  1739 0001:00017FDE  1741 0001:00017FEC  1751 0001:00017FF0  1752 0001:00018013
  1754 0001:0001802D  1757 0001:0001804B  1758 0001:00018054  1760 0001:00018063
  1761 0001:00018071  1765 0001:00018080  1767 0001:0001808F  1770 0001:000180A1
  1772 0001:000180A7  1773 0001:000180AD  1774 0001:000180B9  1776 0001:000180C4
  1780 0001:000180D5  1782 0001:000180DD  1794 0001:00018100  1795 0001:00018123
  1797 0001:0001813D  1800 0001:0001815B  1801 0001:00018164  1803 0001:00018173
  1804 0001:00018181  1808 0001:0001818E  1810 0001:0001819D  1813 0001:000181AF
  1815 0001:000181B5  1816 0001:000181BB  1817 0001:000181C7  1819 0001:000181D2
  1823 0001:000181E1  1833 0001:00018204  1834 0001:00018210  1835 0001:00018219
  1837 0001:0001822C  1838 0001:0001823A  1839 0001:00018269  1840 0001:00018277
  1841 0001:00018285  1842 0001:000182A0  1843 0001:000182AE  1845 0001:000182C2
  1850 0001:000182D0  1852 0001:000182DF  1855 0001:000182F1  1857 0001:000182F7
  1858 0001:000182FD  1859 0001:00018309  1861 0001:00018315  1863 0001:00018325
  1864 0001:00018336  1866 0001:00018343  1891 0001:00018350  1892 0001:0001835C
  1893 0001:00018365  1895 0001:00018376  1897 0001:00018389  1898 0001:00018397
  1899 0001:000183C0  1900 0001:000183CE  1901 0001:000183DC  1902 0001:000183F7
  1903 0001:00018405  1908 0001:00018419  1910 0001:00018428  1913 0001:0001843A
  1915 0001:00018440  1916 0001:00018446  1918 0001:00018456  1919 0001:0001847F
  1920 0001:00018494  1921 0001:000184A9  1922 0001:000184BF  1923 0001:000184D4
  1928 0001:000184EF  1929 0001:00018518  1930 0001:00018530  1931 0001:00018548
  1932 0001:00018561  1933 0001:00018579  1937 0001:00018595  1940 0001:000185A0
  1941 0001:000185AC  1942 0001:000185B7  1950 0001:000185BC  1951 0001:000185BD
  1952 0001:000185BE  1954 0001:000185C0  1955 0001:000185C3  1956 0001:000185C9
  1957 0001:000185CB  1959 0001:000185CD  1960 0001:000185D0  1961 0001:000185D4
  1962 0001:000185D6  1965 0001:000185D8  1966 0001:000185DB  1967 0001:000185DD
  1968 0001:000185DF  1971 0001:000185E2  1972 0001:000185E4  1975 0001:000185E7
  1976 0001:000185ED  1977 0001:000185F0  1978 0001:000185F2  1981 0001:000185F7
  1982 0001:000185F8  1983 0001:000185F9  1992 0001:000185FC  1993 0001:000185FD
  1994 0001:000185FE  1996 0001:00018600  1997 0001:00018603  1998 0001:00018609
  1999 0001:0001860B  2001 0001:0001860D  2002 0001:00018610  2003 0001:00018614
  2004 0001:00018616  2007 0001:00018618  2008 0001:0001861B  2009 0001:0001861D
  2010 0001:0001861F  2013 0001:00018622  2014 0001:00018624  2017 0001:00018627
  2018 0001:0001862D  2019 0001:0001862F  2020 0001:00018631  2023 0001:00018636
  2024 0001:00018637  2025 0001:00018638  2116 0001:0001863C  2118 0001:00018640
  2119 0001:00018643  2121 0001:00018646  2122 0001:00018648  2125 0001:0001864A
  2126 0001:0001864D  2127 0001:0001864F  2128 0001:00018651  2131 0001:00018652
  2132 0001:00018654  2135 0001:00018655  2136 0001:0001865B  2137 0001:0001865D
  2138 0001:00018660  2141 0001:00018662  2145 0001:00018664  2149 0001:00018667
  2150 0001:0001866B  2151 0001:0001866E  2152 0001:00018670  2153 0001:00018673
  2154 0001:00018676  2155 0001:00018679  2158 0001:0001867B  2159 0001:0001867E
  2160 0001:00018680  2161 0001:00018682  2164 0001:00018684  2165 0001:00018686
  2168 0001:00018688  2169 0001:0001868E  2170 0001:00018690  2171 0001:00018693
  2172 0001:00018696  2173 0001:00018698  2176 0001:0001869B  2272 0001:000186A0
  2273 0001:000186AF  2275 0001:000186BE  2276 0001:000186CE  2280 0001:000186D4
  2282 0001:000186E3  2285 0001:000186F7  2287 0001:000186FF  2288 0001:00018708
  2289 0001:00018714  2291 0001:0001871A  2293 0001:0001871E  2305 0001:00018754
  2306 0001:00018776  2310 0001:0001879B  2313 0001:000187A5  2316 0001:000187B6
  2319 0001:000187CB  2330 0001:000187FC  2331 0001:0001880B  2335 0001:00018830
  2336 0001:00018833  2337 0001:00018835  2339 0001:00018837  2340 0001:0001883A
  2341 0001:0001883D  2345 0001:00018844  2348 0001:0001884F  2351 0001:0001885E

Line numbers for TypInfo(TypInfo.pas) segment .itext

  2353 0002:00000218

Line numbers for Classes(classes.pas) segment .text

  1897 0001:000191E4  1898 0001:000191FF  1899 0001:00019209  1900 0001:0001921B
  1901 0001:00019229  1904 0001:00019248  1905 0001:00019259  1906 0001:00019267
  1907 0001:00019272  1908 0001:0001927D  1909 0001:00019288  1994 0001:0001929C
  1995 0001:000192A8  1996 0001:000192C4  2001 0001:000192CC  2009 0001:000192D8
  2010 0001:000192EA  2011 0001:00019304  2009 0001:00019315  2012 0001:0001931B
  2013 0001:00019324  2014 0001:00019336  2015 0001:00019350  2013 0001:00019361
  2016 0001:00019367  2017 0001:00019370  2018 0001:00019384  2019 0001:0001939E
  2017 0001:000193AF  2020 0001:000193B5  2045 0001:000193BC  2046 0001:000193D4
  2047 0001:000193DE  2048 0001:000193F0  2050 0001:000193FC  2051 0001:00019411
  2052 0001:0001941F  2053 0001:00019426  2058 0001:00019448  2059 0001:00019459
  2060 0001:00019465  2061 0001:0001946E  2062 0001:00019487  2061 0001:0001949D
  2063 0001:000194A2  2064 0001:000194AD  2065 0001:000194BB  2153 0001:000194D0
  2154 0001:000194D7  2155 0001:000194E3  2197 0001:000194E8  2198 0001:000194EF
  2199 0001:000194FB  2213 0001:00019500  2214 0001:0001950C  2216 0001:0001951E
  2217 0001:0001952F  2218 0001:0001953A  2220 0001:00019546  2221 0001:0001954E
  2223 0001:0001955C  2214 0001:0001955F  2224 0001:00019565  2383 0001:0001956C
  2384 0001:00019573  2385 0001:0001957D  2386 0001:0001958B  2388 0001:000195A5
  2390 0001:000195B7  2912 0001:000195BC  2913 0001:000195CD  2914 0001:000195D5
  2917 0001:000195E8  2918 0001:000195F5  2919 0001:000195FE  2920 0001:00019609
  2921 0001:00019610  2922 0001:0001961F  2923 0001:00019625  2924 0001:0001962B
  2925 0001:00019638  2928 0001:00019640  2929 0001:00019647  2930 0001:00019651
  2931 0001:0001965B  2936 0001:00019660  2937 0001:0001966D  2938 0001:0001967E
  2939 0001:00019691  2940 0001:0001969F  2941 0001:000196A5  2942 0001:000196B0
  2944 0001:000196DC  2945 0001:000196E2  2946 0001:000196EF  2951 0001:000196F4
  2952 0001:000196F7  2953 0001:000196FA  2955 0001:000196FC  2956 0001:0001970B
  2957 0001:00019737  2960 0001:0001973C  2961 0001:0001975F  2962 0001:0001977A
  2990 0001:0001979C  2991 0001:000197A8  2992 0001:000197B9  2993 0001:000197CC
  2994 0001:000197DB  3004 0001:000197E4  3005 0001:000197ED  3006 0001:000197F6
  3008 0001:0001980B  3009 0001:00019814  3011 0001:0001981D  3012 0001:00019824
  3013 0001:00019835  3016 0001:0001983C  3017 0001:00019848  3019 0001:0001984F
  3018 0001:00019852  3020 0001:0001986E  3021 0001:00019879  3022 0001:00019880
  3063 0001:00019888  3064 0001:00019898  3065 0001:000198A9  3066 0001:000198BC
  3068 0001:000198CD  3069 0001:000198DC  3070 0001:000198EB  3071 0001:000198F1
  3072 0001:000198FE  3073 0001:00019904  3075 0001:00019911  3078 0001:00019918
  3079 0001:00019924  3080 0001:00019932  3081 0001:00019938  3082 0001:00019943
  3131 0001:0001994C  3132 0001:00019958  3133 0001:0001996C  3134 0001:0001997F
  3136 0001:0001998A  3137 0001:0001999B  3139 0001:000199A4  3144 0001:000199A8
  3145 0001:000199B4  3146 0001:000199C3  3147 0001:000199D6  3148 0001:000199E1
  3149 0001:000199EC  3150 0001:000199F7  3152 0001:00019A1B  3153 0001:00019A30
  3152 0001:00019A3E  3154 0001:00019A43  3155 0001:00019A4C  3209 0001:00019A50
  3210 0001:00019A5F  3298 0001:00019A64  3299 0001:00019A7C  3300 0001:00019A86
  3301 0001:00019A92  3302 0001:00019AA4  3303 0001:00019AAB  3306 0001:00019ACC
  3307 0001:00019ADD  3308 0001:00019AE5  3309 0001:00019AF3  3310 0001:00019AFE
  3312 0001:00019B19  3313 0001:00019B21  3315 0001:00019B35  3342 0001:00019B48
  3343 0001:00019B51  3344 0001:00019B5D  3345 0001:00019B66  3358 0001:00019B70
  3359 0001:00019B77  3360 0001:00019B83  3712 0001:00019B88  3713 0001:00019B99
  3714 0001:00019BA1  3715 0001:00019BAF  3718 0001:00019BC4  3719 0001:00019BD0
  3720 0001:00019BEC  3725 0001:00019BF0  3726 0001:00019C12  3727 0001:00019C18
  3728 0001:00019C38  3729 0001:00019C45  3730 0001:00019C98  3733 0001:00019CC8
  3734 0001:00019CD4  3735 0001:00019CDF  3738 0001:00019CE4  3739 0001:00019CF0
  3744 0001:00019CF4  3745 0001:00019D17  3746 0001:00019D35  3748 0001:00019D45
  3749 0001:00019D5D  3750 0001:00019D63  3752 0001:00019D7D  3755 0001:00019DAC
  3756 0001:00019DB5  3757 0001:00019DBA  4269 0001:00019DC4  4270 0001:00019DD5
  4271 0001:00019DDF  4272 0001:00019DED  4275 0001:00019E00  4276 0001:00019E0D
  4277 0001:00019E18  4278 0001:00019E26  4281 0001:00019E30  4282 0001:00019E40
  4283 0001:00019E4E  4284 0001:00019E5C  4294 0001:00019E64  4295 0001:00019E84
  4296 0001:00019E8C  4297 0001:00019E9A  4298 0001:00019EB2  4297 0001:00019EDD
  4300 0001:00019EEF  4302 0001:00019EFF  4305 0001:00019F24  4306 0001:00019F30
  4308 0001:00019F46  4309 0001:00019F4E  4310 0001:00019F5C  4311 0001:00019F64
  4312 0001:00019F70  4313 0001:00019F7C  4314 0001:00019F88  4315 0001:00019F94
  4316 0001:00019FA5  4317 0001:00019FB1  4319 0001:00019FC9  4323 0001:00019FD9
  4324 0001:00019FE4  4327 0001:00019FE8  4328 0001:00019FEF  4329 0001:0001A002
  4330 0001:0001A008  4335 0001:0001A00C  4336 0001:0001A010  4338 0001:0001A01C
  4339 0001:0001A020  4340 0001:0001A038  4342 0001:0001A053  4343 0001:0001A064
  4345 0001:0001A06C  4346 0001:0001A079  4347 0001:0001A0A1  4350 0001:0001A0B8
  4351 0001:0001A0BF  4352 0001:0001A0C5  4353 0001:0001A0D8  4358 0001:0001A0DC
  4359 0001:0001A0FF  4360 0001:0001A103  4361 0001:0001A10E  4362 0001:0001A11B
  4363 0001:0001A161  4364 0001:0001A165  4369 0001:0001A190  4370 0001:0001A193
  4371 0001:0001A196  4373 0001:0001A198  4374 0001:0001A1A7  4375 0001:0001A1D3
  4378 0001:0001A1D8  4379 0001:0001A1FB  4380 0001:0001A214  4386 0001:0001A238
  4387 0001:0001A25E  4388 0001:0001A266  4389 0001:0001A274  4390 0001:0001A282
  4391 0001:0001A290  4392 0001:0001A2AC  4393 0001:0001A2C4  4394 0001:0001A2D2
  4396 0001:0001A2ED  4398 0001:0001A2FD  4412 0001:0001A324  4413 0001:0001A32D
  4414 0001:0001A338  4480 0001:0001A340  4481 0001:0001A34C  4482 0001:0001A351
  4485 0001:0001A358  4486 0001:0001A374  4487 0001:0001A38F  4494 0001:0001A3B4
  4495 0001:0001A3DA  4496 0001:0001A3E5  4497 0001:0001A3EA  4498 0001:0001A3F5
  4499 0001:0001A45B  4500 0001:0001A468  4501 0001:0001A470  4503 0001:0001A487
  4504 0001:0001A495  4505 0001:0001A4B2  4507 0001:0001A4B8  4508 0001:0001A4C6
  4510 0001:0001A4CC  4511 0001:0001A4E9  4513 0001:0001A4EF  4514 0001:0001A4FD
  4516 0001:0001A503  4501 0001:0001A506  4517 0001:0001A50F  4530 0001:0001A540
  4531 0001:0001A560  4532 0001:0001A578  4531 0001:0001A59B  4533 0001:0001A5A0
  4534 0001:0001A5A7  4540 0001:0001A5CC  4541 0001:0001A5F2  4543 0001:0001A60A
  4544 0001:0001A618  4545 0001:0001A638  4546 0001:0001A665  4541 0001:0001A668
  4547 0001:0001A66D  4548 0001:0001A674  4551 0001:0001A6A8  4552 0001:0001A6B4
  4553 0001:0001A6CC  4552 0001:0001A6DF  4554 0001:0001A6E4  4555 0001:0001A6EB
  4559 0001:0001A6F4  4560 0001:0001A704  4561 0001:0001A712  4562 0001:0001A720
  4567 0001:0001A728  4568 0001:0001A734  4569 0001:0001A748  4570 0001:0001A756
  4572 0001:0001A76E  4574 0001:0001A77E  4580 0001:0001A784  4581 0001:0001A7A4
  4582 0001:0001A7AC  4583 0001:0001A7BA  4584 0001:0001A7D0  4585 0001:0001A7DD
  4586 0001:0001A7EB  4588 0001:0001A803  4590 0001:0001A813  4596 0001:0001A838
  4597 0001:0001A85B  4599 0001:0001A863  4600 0001:0001A86B  4601 0001:0001A879
  4602 0001:0001A887  4603 0001:0001A895  4604 0001:0001A8A0  4606 0001:0001A8BF
  4609 0001:0001A8CF  4614 0001:0001A8F4  4615 0001:0001A904  4616 0001:0001A912
  4617 0001:0001A91D  4618 0001:0001A92F  4621 0001:0001A934  4622 0001:0001A943
  4625 0001:0001A948  4626 0001:0001A967  4627 0001:0001A96F  4628 0001:0001A977
  4629 0001:0001A985  4630 0001:0001A98F  4632 0001:0001A9BE  4634 0001:0001A9CE
  4635 0001:0001A9D6  4640 0001:0001A9F8  4641 0001:0001AA04  4642 0001:0001AA1B
  4643 0001:0001AA29  4645 0001:0001AA41  4647 0001:0001AA51  4652 0001:0001AA58
  4653 0001:0001AA77  4654 0001:0001AA82  4655 0001:0001AAA7  4658 0001:0001AAC8
  4660 0001:0001AAD4  4670 0001:0001AAD8  4671 0001:0001AAE4  4672 0001:0001AAF8
  4673 0001:0001AB06  4674 0001:0001AB1D  4677 0001:0001AB24  4678 0001:0001AB43
  4679 0001:0001AB59  4687 0001:0001AB7C  4688 0001:0001ABA4  4689 0001:0001ABAC
  4690 0001:0001ABBA  4691 0001:0001ABC2  4692 0001:0001ABC8  4693 0001:0001ABD2
  4699 0001:0001ABF0  4700 0001:0001ABF8  4701 0001:0001AC0C  4702 0001:0001AC1D
  4703 0001:0001AC28  4704 0001:0001AC33  4697 0001:0001AC3E  4711 0001:0001AC4B
  4712 0001:0001AC56  4714 0001:0001AC60  4715 0001:0001AC68  4718 0001:0001AC98
  4719 0001:0001AC9E  4720 0001:0001ACBE  4721 0001:0001ACD1  4722 0001:0001ACE2
  4723 0001:0001ACED  4724 0001:0001ACF5  4716 0001:0001ACFB  4728 0001:0001AD10
  4730 0001:0001AD20  4733 0001:0001AD5C  4734 0001:0001AD68  4754 0001:0001AD6C
  4755 0001:0001AD8C  4756 0001:0001AD94  4757 0001:0001ADCD  4758 0001:0001ADD5
  4833 0001:0001ADF8  4834 0001:0001AE04  4835 0001:0001AE0D  4836 0001:0001AE1A
  4837 0001:0001AE28  4863 0001:0001AE38  4864 0001:0001AE44  4866 0001:0001AE5D
  4867 0001:0001AE64  4869 0001:0001AE72  4890 0001:0001AE78  4891 0001:0001AE87
  4892 0001:0001AEE7  4895 0001:0001AEF0  4896 0001:0001AEF9  4897 0001:0001AF02
  4898 0001:0001AF0C  4899 0001:0001AF15  4902 0001:0001AF1C  4903 0001:0001AF28
  4905 0001:0001AF3C  4906 0001:0001AF43  4908 0001:0001AF4C  4931 0001:0001AF50
  4932 0001:0001AF61  4933 0001:0001AF6C  4934 0001:0001AF77  4935 0001:0001AF85
  4936 0001:0001AFA5  4937 0001:0001AFAD  4938 0001:0001AFB7  4941 0001:0001AFCC
  4942 0001:0001AFD9  4943 0001:0001AFE9  4946 0001:0001AFF4  4947 0001:0001B004
  4948 0001:0001B00D  4950 0001:0001B018  4951 0001:0001B02D  4953 0001:0001B03D
  4955 0001:0001B04D  4956 0001:0001B062  4959 0001:0001B06C  4960 0001:0001B074
  4961 0001:0001B087  4962 0001:0001B093  4965 0001:0001B098  4966 0001:0001B0A0
  4967 0001:0001B0B3  4968 0001:0001B0BF  4971 0001:0001B0C4  4972 0001:0001B0CB
  4974 0001:0001B0D4  4975 0001:0001B0DF  4976 0001:0001B0F6  4977 0001:0001B0FE
  4978 0001:0001B108  4980 0001:0001B113  4983 0001:0001B118  4984 0001:0001B125
  4985 0001:0001B147  4986 0001:0001B152  4987 0001:0001B169  4988 0001:0001B16F
  4989 0001:0001B17A  4991 0001:0001B1A6  4992 0001:0001B1B1  4995 0001:0001B1B8
  4996 0001:0001B1C7  4997 0001:0001B1E9  4998 0001:0001B20B  4999 0001:0001B216
  5000 0001:0001B224  5001 0001:0001B22F  5007 0001:0001B234  5008 0001:0001B243
  5009 0001:0001B252  5010 0001:0001B261  5011 0001:0001B269  5012 0001:0001B273
  5013 0001:0001B27B  5014 0001:0001B284  5015 0001:0001B290  5016 0001:0001B299
  5021 0001:0001B2A0  5022 0001:0001B2B0  5023 0001:0001B2B4  5024 0001:0001B2B9
  5025 0001:0001B2C3  5027 0001:0001B2CB  5028 0001:0001B2D6  5029 0001:0001B2F0
  5031 0001:0001B2FF  5032 0001:0001B306  5034 0001:0001B30C  5035 0001:0001B310
  5025 0001:0001B31F  5039 0001:0001B327  5040 0001:0001B32F  5043 0001:0001B338
  5044 0001:0001B347  5045 0001:0001B369  5046 0001:0001B37D  5049 0001:0001B384
  5050 0001:0001B38D  5051 0001:0001B396  5054 0001:0001B3A0  5055 0001:0001B3A9
  5056 0001:0001B3B2  5059 0001:0001B3BC  5060 0001:0001B3C8  5061 0001:0001B3EA
  5062 0001:0001B3FA  5067 0001:0001B404  5068 0001:0001B40D  5069 0001:0001B42B
  5070 0001:0001B43D  5071 0001:0001B444  5072 0001:0001B455  5075 0001:0001B45C
  5076 0001:0001B469  5077 0001:0001B482  5078 0001:0001B49E  5081 0001:0001B4A8
  5082 0001:0001B4B8  5083 0001:0001B4C8  5087 0001:0001B4D0  5088 0001:0001B4E0
  5089 0001:0001B4F9  5090 0001:0001B51B  5091 0001:0001B530  5094 0001:0001B538
  5095 0001:0001B547  5096 0001:0001B552  5097 0001:0001B568  5098 0001:0001B573
  5100 0001:0001B59D  5102 0001:0001B5AC  5103 0001:0001B5B3  5104 0001:0001B5BC
  5106 0001:0001B5C7  5107 0001:0001B5CD  5108 0001:0001B5D8  5111 0001:0001B5E0
  5112 0001:0001B5EF  5113 0001:0001B608  5114 0001:0001B62A  5115 0001:0001B635
  5116 0001:0001B649  5117 0001:0001B654  5120 0001:0001B658  5121 0001:0001B667
  5122 0001:0001B689  5123 0001:0001B694  5124 0001:0001B6A4  5125 0001:0001B6AF
  5130 0001:0001B6B4  5132 0001:0001B6C3  5133 0001:0001B6C9  5134 0001:0001B6CF
  5136 0001:0001B6DC  5137 0001:0001B6F1  5138 0001:0001B704  5140 0001:0001B70C
  5141 0001:0001B71A  5142 0001:0001B722  5143 0001:0001B72A  5144 0001:0001B732
  5145 0001:0001B738  5146 0001:0001B73B  5148 0001:0001B73E  5149 0001:0001B746
  5150 0001:0001B760  5151 0001:0001B766  5152 0001:0001B772  5155 0001:0001B778
  5156 0001:0001B784  5157 0001:0001B795  5158 0001:0001B79E  5170 0001:0001B7A4
  5171 0001:0001B7B0  5172 0001:0001B7CE  5175 0001:0001B7D4  5176 0001:0001B7E4
  5178 0001:0001B807  5181 0001:0001B810  5182 0001:0001B817  5183 0001:0001B827
  5186 0001:0001B82C  5187 0001:0001B838  5189 0001:0001B84A  5190 0001:0001B855
  5191 0001:0001B86A  5193 0001:0001B875  5196 0001:0001B87C  5197 0001:0001B88B
  5198 0001:0001B894  5200 0001:0001B8F6  5201 0001:0001B956  5215 0001:0001B960
  5216 0001:0001B969  5217 0001:0001B97D  5227 0001:0001B988  5228 0001:0001B991
  5229 0001:0001B9A5  5230 0001:0001B9B9  5231 0001:0001B9C9  5234 0001:0001B9D4
  5237 0001:0001B9E0  5245 0001:0001B9E4  5251 0001:0001B9EB  5252 0001:0001BA11
  5253 0001:0001BA28  5254 0001:0001BA35  5259 0001:0001BA3C  5260 0001:0001BA45
  5261 0001:0001BA82  5269 0001:0001BA88  5275 0001:0001BA98  5276 0001:0001BAA6
  5278 0001:0001BAB3  5277 0001:0001BABE  5279 0001:0001BACF  5280 0001:0001BADC
  5281 0001:0001BAEA  5282 0001:0001BAF2  5283 0001:0001BAF9  5284 0001:0001BB0D
  5287 0001:0001BB14  5290 0001:0001BB21  5291 0001:0001BB47  5292 0001:0001BB5E
  5293 0001:0001BB77  5302 0001:0001BB84  5303 0001:0001BB94  5304 0001:0001BBAD
  5305 0001:0001BBC4  5425 0001:0001BBCC  5426 0001:0001BBE7  5427 0001:0001BBF1
  5428 0001:0001BBFA  5431 0001:0001BC1C  5432 0001:0001BC2B  5433 0001:0001BC3F
  5434 0001:0001BC4A  5437 0001:0001BC54  5438 0001:0001BC63  5439 0001:0001BC77
  5440 0001:0001BC82  5443 0001:0001BC8C  5444 0001:0001BC98  5445 0001:0001BCB4
  5448 0001:0001BCC0  5449 0001:0001BCCC  5450 0001:0001BCDA  5453 0001:0001BCE0
  5454 0001:0001BCE7  5456 0001:0001BCF7  5461 0001:0001BD08  5466 0001:0001BD10
  5468 0001:0001BD2B  5472 0001:0001BD3F  5475 0001:0001BD60  5476 0001:0001BD98
  5478 0001:0001BDA4  5479 0001:0001BDD0  5480 0001:0001BDDD  5484 0001:0001BE28
  5485 0001:0001BE40  5486 0001:0001BE49  5488 0001:0001BE92  5489 0001:0001BEA0
  5492 0001:0001BEE4  5493 0001:0001BEF5  5494 0001:0001BF0A  5495 0001:0001BF18
  6011 0001:0001BF2C  6012 0001:0001BF38  6013 0001:0001BF45  6014 0001:0001BF52
  6015 0001:0001BF60  6017 0001:0001BF6F  6018 0001:0001BF7D  6021 0001:0001BFA6
  6022 0001:0001BFB1  6024 0001:0001BFB9  6015 0001:0001BFBC  6026 0001:0001BFCF
  6028 0001:0001BFE1  6034 0001:0001BFE8  6035 0001:0001BFF1  6036 0001:0001BFFA
  6037 0001:0001C007  6038 0001:0001C015  6040 0001:0001C024  6041 0001:0001C032
  6043 0001:0001C03D  6044 0001:0001C048  6046 0001:0001C050  6038 0001:0001C053
  6048 0001:0001C066  6050 0001:0001C078  6076 0001:0001C07C  6077 0001:0001C083
  6078 0001:0001C097  6081 0001:0001C09C  6082 0001:0001C09F  6083 0001:0001C0A9
  6120 0001:0001C0AC  6121 0001:0001C0B8  6123 0001:0001C0C5  6124 0001:0001C0CB
  6125 0001:0001C0D3  6127 0001:0001C0D8  6169 0001:0001C0DC  6170 0001:0001C0E5
  6171 0001:0001C0F3  6172 0001:0001C0F9  6328 0001:0001C100  6329 0001:0001C109
  6330 0001:0001C114  6331 0001:0001C11A  6341 0001:0001C124  6342 0001:0001C125
  6343 0001:0001C126  6344 0001:0001C127  6345 0001:0001C129  6346 0001:0001C12B
  6347 0001:0001C12D  6348 0001:0001C12F  6349 0001:0001C132  6350 0001:0001C135
  6351 0001:0001C137  6352 0001:0001C139  6353 0001:0001C13E  6354 0001:0001C141
  6355 0001:0001C143  6356 0001:0001C145  6357 0001:0001C147  6358 0001:0001C148
  6359 0001:0001C14A  6360 0001:0001C14D  6361 0001:0001C150  6362 0001:0001C153
  6363 0001:0001C155  6364 0001:0001C157  6365 0001:0001C15A  6366 0001:0001C15B
  6367 0001:0001C15D  6368 0001:0001C15F  6369 0001:0001C162  6370 0001:0001C164
  6371 0001:0001C165  6372 0001:0001C167  6373 0001:0001C169  6374 0001:0001C16A
  6375 0001:0001C16B  6376 0001:0001C16C  6379 0001:0001C170  6380 0001:0001C178
  6381 0001:0001C195  6382 0001:0001C1B5  6383 0001:0001C1BD  6731 0001:0001C1C4
  6732 0001:0001C1CB  6733 0001:0001C1D5  6736 0001:0001C1D8  6737 0001:0001C1DF
  6738 0001:0001C1E9  7076 0001:0001C1EC  7077 0001:0001C1F8  7078 0001:0001C208
  7079 0001:0001C217  7080 0001:0001C22E  7085 0001:0001C234  7086 0001:0001C253
  7087 0001:0001C263  7090 0001:0001C27B  7091 0001:0001C280  7093 0001:0001C292
  7095 0001:0001C2A4  7097 0001:0001C2B6  7099 0001:0001C2BB  7100 0001:0001C2C6
  7102 0001:0001C2D6  7108 0001:0001C2F8  7109 0001:0001C31A  7110 0001:0001C32A
  7113 0001:0001C345  7114 0001:0001C34A  7117 0001:0001C35C  7118 0001:0001C36C
  7119 0001:0001C377  7123 0001:0001C38B  7124 0001:0001C39B  7125 0001:0001C3A6
  7126 0001:0001C3B4  7129 0001:0001C3C1  7132 0001:0001C3C6  7135 0001:0001C3F0
  7136 0001:0001C3F9  7137 0001:0001C409  7147 0001:0001C410  7148 0001:0001C42C
  7149 0001:0001C43D  7154 0001:0001C460  7155 0001:0001C465  7156 0001:0001C47F
  7157 0001:0001C48A  7162 0001:0001C48C  7163 0001:0001C495  7164 0001:0001C4A8
  7165 0001:0001C4BA  7168 0001:0001C4C0  7171 0001:0001C4C5  7172 0001:0001C4E1
  7173 0001:0001C4F3  7174 0001:0001C50D  7169 0001:0001C518  7176 0001:0001C527
  7177 0001:0001C532  7179 0001:0001C534  7180 0001:0001C550  7182 0001:0001C5C8
  7183 0001:0001C5D4  7184 0001:0001C5E6  7185 0001:0001C5F8  7186 0001:0001C60A
  7187 0001:0001C61C  7189 0001:0001C62C  7190 0001:0001C63D  7191 0001:0001C647
  7192 0001:0001C655  7193 0001:0001C65E  7194 0001:0001C66D  7195 0001:0001C67C
  7196 0001:0001C68B  7197 0001:0001C699  7198 0001:0001C6A8  7199 0001:0001C6B6
  7201 0001:0001C6C3  7286 0001:0001C6E4  7287 0001:0001C700  7288 0001:0001C70B
  7289 0001:0001C713  7351 0001:0001C734  7352 0001:0001C743  7353 0001:0001C749
  7355 0001:0001C752  7356 0001:0001C765  7360 0001:0001C76E  7361 0001:0001C77F
  7352 0001:0001C784  7363 0001:0001C78A  7507 0001:0001C790  7508 0001:0001C791
  7509 0001:0001C792  7510 0001:0001C793  7511 0001:0001C795  7512 0001:0001C797
  7513 0001:0001C799  7514 0001:0001C79B  7515 0001:0001C79E  7516 0001:0001C7A1
  7517 0001:0001C7A3  7518 0001:0001C7A5  7519 0001:0001C7AA  7520 0001:0001C7AD
  7521 0001:0001C7AF  7522 0001:0001C7B1  7523 0001:0001C7B3  7524 0001:0001C7B5
  7525 0001:0001C7B6  7526 0001:0001C7B9  7527 0001:0001C7BC  7528 0001:0001C7BF
  7529 0001:0001C7C1  7530 0001:0001C7C3  7531 0001:0001C7C6  7532 0001:0001C7C7
  7533 0001:0001C7C9  7534 0001:0001C7CB  7535 0001:0001C7CE  7536 0001:0001C7D0
  7537 0001:0001C7D1  7538 0001:0001C7D3  7539 0001:0001C7D5  7540 0001:0001C7D6
  7541 0001:0001C7D7  7542 0001:0001C7D8  7562 0001:0001C7DC  7563 0001:0001C7E3
  7564 0001:0001C7FA  7565 0001:0001C802  7814 0001:0001C808  7815 0001:0001C80F
  7816 0001:0001C819  7819 0001:0001C81C  7820 0001:0001C823  7821 0001:0001C82D
  8458 0001:0001C830  8459 0001:0001C83F  8461 0001:0001C84C  8462 0001:0001C869
  8463 0001:0001C873  8464 0001:0001C883  8468 0001:0001C893  8469 0001:0001C8B0
  8471 0001:0001C8B9  8472 0001:0001C8C3  8475 0001:0001C8D5  8476 0001:0001C8DF
  8478 0001:0001C8EF  8480 0001:0001C8FD  8483 0001:0001C904  8484 0001:0001C923
  8485 0001:0001C93C  8505 0001:0001C960  8506 0001:0001C96C  8507 0001:0001C97C
  9714 0001:0001C980  9715 0001:0001C983  9717 0001:0001C98D  9718 0001:0001C9A2
  9719 0001:0001C9AB  9724 0001:0001C9B0  9727 0001:0001C9B8  9728 0001:0001C9BB
  9730 0001:0001C9C5  9735 0001:0001C9D0 11326 0001:0001C9D4 11327 0001:0001C9DA
 11328 0001:0001C9E7 11329 0001:0001C9F5 11330 0001:0001CA0B 11329 0001:0001CA1E
 11332 0001:0001CA30 11334 0001:0001CA42 11335 0001:0001CA4C 11338 0001:0001CA50
 11339 0001:0001CA57 11340 0001:0001CA5F 11696 0001:0001CA64 11697 0001:0001CA87
 11698 0001:0001CA91 11699 0001:0001CA96 11700 0001:0001CA9F 11701 0001:0001CAA9
 11702 0001:0001CAB9 11703 0001:0001CAC3 11704 0001:0001CACD 11705 0001:0001CAD7
 11706 0001:0001CAE1 11707 0001:0001CAE6 11709 0001:0001CAF0

Line numbers for Classes(classes.pas) segment .itext

 11682 0002:00000220 11683 0002:0000023A 11684 0002:0000023F 11686 0002:00000249
 11691 0002:00000268 11692 0002:00000279 11693 0002:0000028A 11695 0002:0000029B

Line numbers for DBConsts(DBConsts.pas) segment .text

   136 0001:00000000

Line numbers for Math(Math.pas) segment .text

  2511 0001:00000000

Line numbers for DateUtils(DateUtils.pas) segment .text

   466 0001:0001CB34   467 0001:0001CB42   468 0001:0001CB78  1030 0001:0001CB80
  1031 0001:0001CB92  1033 0001:0001CBBF  1035 0001:0001CBE8  1162 0001:0001CBF4
  1163 0001:0001CC06  1164 0001:0001CC1E  1166 0001:0001CC24  1167 0001:0001CC41
  1168 0001:0001CC47  1169 0001:0001CC58  1171 0001:0001CC68  1173 0001:0001CC76
  1479 0001:0001CC84  1480 0001:0001CC95  1481 0001:0001CC9D  1482 0001:0001CCAF
  1484 0001:0001CCBE  1486 0001:0001CCCC  1487 0001:0001CCD8  1490 0001:0001CCE0
  1491 0001:0001CD0E  1492 0001:0001CD22  1493 0001:0001CD3A  1501 0001:0001CE6F
  1527 0001:0001CEA4

Line numbers for SqlTimSt(SqlTimSt.pas) segment .text

   167 0001:0001D124   168 0001:0001D12D   175 0001:0001D17A   180 0001:0001D184
   181 0001:0001D18D   182 0001:0001D19B   188 0001:0001D1A4   191 0001:0001D1B2
   192 0001:0001D1C6   189 0001:0001D1DA   194 0001:0001D1EE   200 0001:0001D1F4
   201 0001:0001D200   204 0001:0001D20D   205 0001:0001D221   206 0001:0001D227
   208 0001:0001D234   209 0001:0001D23F   210 0001:0001D24A   202 0001:0001D255
   212 0001:0001D26B   218 0001:0001D270   221 0001:0001D27E   222 0001:0001D292
   223 0001:0001D2A6   219 0001:0001D2B1   225 0001:0001D2C6   231 0001:0001D2CC
   234 0001:0001D2DA   235 0001:0001D2EE   236 0001:0001D302   232 0001:0001D30D
   238 0001:0001D322   244 0001:0001D328   247 0001:0001D336   248 0001:0001D34A
   249 0001:0001D35E   245 0001:0001D369   251 0001:0001D37E   254 0001:0001D384
   255 0001:0001D390   257 0001:0001D396   258 0001:0001D3A1   259 0001:0001D3AC
   260 0001:0001D3B7   261 0001:0001D3C2   264 0001:0001D3CF   265 0001:0001D3DA
   266 0001:0001D3E5   267 0001:0001D3F0   268 0001:0001D3FB   270 0001:0001D406
   273 0001:0001D40C   274 0001:0001D415   275 0001:0001D42E   278 0001:0001D438
   279 0001:0001D444   280 0001:0001D452   281 0001:0001D460   282 0001:0001D46E
   283 0001:0001D47C   284 0001:0001D48A   285 0001:0001D498   286 0001:0001D4A4
   287 0001:0001D4AE   290 0001:0001D4B4   291 0001:0001D4C0   293 0001:0001D4CC
   294 0001:0001D4DA   295 0001:0001D4E8   296 0001:0001D4F6   297 0001:0001D504
   298 0001:0001D512   299 0001:0001D520   300 0001:0001D52C   302 0001:0001D536
   307 0001:0001D53C   308 0001:0001D548   309 0001:0001D55B   310 0001:0001D561
   311 0001:0001D574   312 0001:0001D57A   313 0001:0001D58D   314 0001:0001D593
   315 0001:0001D5A6   316 0001:0001D5AC   317 0001:0001D5BF   318 0001:0001D5C5
   319 0001:0001D5D8   320 0001:0001D5DE   321 0001:0001D5F1   322 0001:0001D5F7
   323 0001:0001D606   324 0001:0001D60C   326 0001:0001D612   327 0001:0001D618
   329 0001:0001D61E   330 0001:0001D622   333 0001:0001D62C   334 0001:0001D638
   335 0001:0001D648   338 0001:0001D64C   339 0001:0001D655   340 0001:0001D664
   343 0001:0001D66C   344 0001:0001D67A   345 0001:0001D692   348 0001:0001D698
   349 0001:0001D6A3   350 0001:0001D6BE   367 0001:0001D6C8   368 0001:0001D6E2
   369 0001:0001D6EC   370 0001:0001D707   375 0001:0001D72C   376 0001:0001D749
   377 0001:0001D754   378 0001:0001D75E   379 0001:0001D76B   382 0001:0001D78C
   383 0001:0001D7A7   384 0001:0001D7AF   385 0001:0001D7B9   386 0001:0001D7CC
   389 0001:0001D7EC   390 0001:0001D807   391 0001:0001D817   394 0001:0001D838
   396 0001:0001D845   397 0001:0001D850   400 0001:0001D854   401 0001:0001D860
   402 0001:0001D869   405 0001:0001D870   407 0001:0001D87D   408 0001:0001D888
   411 0001:0001D88C   413 0001:0001D899   414 0001:0001D8A4   417 0001:0001D8A8
   419 0001:0001D8B5   420 0001:0001D8C0   423 0001:0001D8C4   425 0001:0001D8D1
   426 0001:0001D8DC   429 0001:0001D8E0   430 0001:0001D8ED   431 0001:0001D8F8
   436 0001:0001D8FC   437 0001:0001D908   438 0001:0001D910   439 0001:0001D91B
   445 0001:0001D920   446 0001:0001D943   447 0001:0001D94E   448 0001:0001D95C
   449 0001:0001D96A   450 0001:0001D979   453 0001:0001D99E   454 0001:0001D9A9
   455 0001:0001D9B7   456 0001:0001D9C7   458 0001:0001D9EC   461 0001:0001D9FF
   463 0001:0001DA19   465 0001:0001DA2C   471 0001:0001DA50   472 0001:0001DA79
   473 0001:0001DA8C   475 0001:0001DA9E   477 0001:0001DACA   479 0001:0001DAE8
   480 0001:0001DAF3   481 0001:0001DB01   482 0001:0001DB07   483 0001:0001DB16
   485 0001:0001DB36   489 0001:0001DB49   490 0001:0001DB5C   493 0001:0001DB90
   494 0001:0001DB9F   495 0001:0001DBB4   499 0001:0001DBC4   500 0001:0001DBD1
   502 0001:0001DBE9   505 0001:0001DBF0   506 0001:0001DBFC   507 0001:0001DC05
   510 0001:0001DC0C   511 0001:0001DC1B   513 0001:0001DC27   515 0001:0001DC3A
   517 0001:0001DC4D   519 0001:0001DC55   522 0001:0001DC5C   523 0001:0001DC6B
   524 0001:0001DC81   602 0001:0001DC88   603 0001:0001DC9F   604 0001:0001DCAB
   605 0001:0001DCBC   608 0001:0001DCC4   609 0001:0001DCCD   611 0001:0001DD10
   613 0001:0001DD16   614 0001:0001DD1A   619 0001:0001DD24   620 0001:0001DD32
   621 0001:0001DD40   623 0001:0001DD46   624 0001:0001DD60   626 0001:0001DD6B
   627 0001:0001DD71   628 0001:0001DD7F   631 0001:0001DD88   632 0001:0001DDA7
   633 0001:0001DDB6   634 0001:0001DDD7   639 0001:0001DDF8   642 0001:0001DE01
   643 0001:0001DE1B   644 0001:0001DE25   645 0001:0001DE46   647 0001:0001DE50
   650 0001:0001DE58   651 0001:0001DE61   652 0001:0001DE6D   655 0001:0001DE7A
   656 0001:0001DE97   657 0001:0001DEA6   659 0001:0001DED1   661 0001:0001DEFA
   672 0001:0001DF08   673 0001:0001DF22   676 0001:0001DF5D   677 0001:0001DF79
   680 0001:0001DFBB   681 0001:0001DFDC   682 0001:0001DFF9   684 0001:0001E017
   686 0001:0001E038   691 0001:0001E060   692 0001:0001E083

Line numbers for SqlTimSt(SqlTimSt.pas) segment .itext

   688 0002:000002B4   689 0002:000002C0   690 0002:000002D1

Line numbers for WideStrUtils(WideStrUtils.pas) segment .text

   203 0001:0001E09C   204 0001:0001E0A5   205 0001:0001E0AD   206 0001:0001E0BA
   207 0001:0001E0CA   241 0001:0001E0D4   242 0001:0001E0E3   243 0001:0001E0E9
   246 0001:0001E0F1   247 0001:0001E0FD   248 0001:0001E101   249 0001:0001E105
   244 0001:0001E108   251 0001:0001E117   252 0001:0001E11F   957 0001:0001E126

Line numbers for WideStrings(WideStrings.pas) segment .text

   213 0001:0001E128   214 0001:0001E12C   215 0001:0001E135   219 0001:0001E140
   220 0001:0001E14A   222 0001:0001E155   223 0001:0001E15F

Line numbers for WideStrings(WideStrings.pas) segment .itext

  1220 0002:000002D4  1221 0002:000002E0  1222 0002:000002E5

Line numbers for DBCommonTypes(DBCommonTypes.pas) segment .text

    92 0001:00000000

Line numbers for FMTBcd(FMTBcd.pas) segment .text

   117 0001:0001E250   118 0001:0001E257   119 0001:0001E25D   120 0001:0001E264
   126 0001:0001E268   127 0001:0001E277   128 0001:0001E280   129 0001:0001E288
   130 0001:0001E29C   135 0001:0001E2A4   136 0001:0001E2B0   137 0001:0001E2C3
   139 0001:0001E2DD   140 0001:0001E2F3   166 0001:0001E2FC   167 0001:0001E308
   168 0001:0001E323   246 0001:0001E51C   247 0001:0001E53B   248 0001:0001E56A
   251 0001:0001E58C   252 0001:0001E593   253 0001:0001E5A7   256 0001:0001E5AC
   257 0001:0001E5B3   258 0001:0001E5C7   265 0001:0001E5CC   266 0001:0001E5DA
   267 0001:0001E5E2   268 0001:0001E5F3   269 0001:0001E605   272 0001:0001E60C
   273 0001:0001E618   274 0001:0001E626   279 0001:0001E62C   280 0001:0001E63A
   281 0001:0001E642   282 0001:0001E653   283 0001:0001E665   286 0001:0001E66C
   287 0001:0001E678   288 0001:0001E686   293 0001:0001E68C   294 0001:0001E69A
   295 0001:0001E6A2   296 0001:0001E6B6   297 0001:0001E6C8   302 0001:0001E6D0
   303 0001:0001E6DE   304 0001:0001E6E6   305 0001:0001E6FA   306 0001:0001E70C
   309 0001:0001E714   310 0001:0001E720   311 0001:0001E735   314 0001:0001E73C
   315 0001:0001E748   316 0001:0001E756   319 0001:0001E75C   320 0001:0001E778
   321 0001:0001E792   324 0001:0001E7B8   325 0001:0001E7D4   326 0001:0001E7ED
   329 0001:0001E814   330 0001:0001E81D   331 0001:0001E829   334 0001:0001E834
   335 0001:0001E83D   336 0001:0001E84B   339 0001:0001E854   340 0001:0001E862
   341 0001:0001E87F   344 0001:0001E888   345 0001:0001E8A6   346 0001:0001E8D5
   349 0001:0001E8FC   350 0001:0001E91D   351 0001:0001E945   354 0001:0001E968
   355 0001:0001E975   356 0001:0001E981   359 0001:0001E988   360 0001:0001E98F
   361 0001:0001E9AA   364 0001:0001E9B0   365 0001:0001E9CB   366 0001:0001E9D5
   367 0001:0001E9E8   377 0001:0001EA08   378 0001:0001EA3E   379 0001:0001EA56
   380 0001:0001EA6B   381 0001:0001EA93   382 0001:0001EAAB   383 0001:0001EAC0
   384 0001:0001EACD   397 0001:0001EB14   398 0001:0001EB43   399 0001:0001EB4E
   400 0001:0001EB66   401 0001:0001EB7B   402 0001:0001EB88   405 0001:0001EBC8
   406 0001:0001EBE3   407 0001:0001EBF3   412 0001:0001EC14   413 0001:0001EC20
   414 0001:0001EC28   415 0001:0001EC33   421 0001:0001EC38   422 0001:0001EC5B
   423 0001:0001EC66   424 0001:0001EC74   425 0001:0001EC82   426 0001:0001EC91
   429 0001:0001ECBA   430 0001:0001ECC5   431 0001:0001ECD3   432 0001:0001ECE3
   434 0001:0001ED0E   437 0001:0001ED21   439 0001:0001ED3B   441 0001:0001ED4E
   447 0001:0001ED70   448 0001:0001ED99   449 0001:0001EDAC   451 0001:0001EDBE
   453 0001:0001EDEA   455 0001:0001EE08   456 0001:0001EE13   457 0001:0001EE21
   458 0001:0001EE27   459 0001:0001EE39   461 0001:0001EE59   465 0001:0001EE6C
   466 0001:0001EE7F   469 0001:0001EEB0   470 0001:0001EEBF   471 0001:0001EED4
   475 0001:0001EEE4   476 0001:0001EEF1   478 0001:0001EF09   481 0001:0001EF10
   482 0001:0001EF1F   484 0001:0001EF31   486 0001:0001EF44   488 0001:0001EF57
   490 0001:0001EF6A   492 0001:0001EF7D   494 0001:0001EF85   497 0001:0001EF8C
   498 0001:0001EF98   499 0001:0001EFA1   502 0001:0001EFA8   503 0001:0001EFB7
   504 0001:0001EFCD   551 0001:0001EFD4   552 0001:0001EFF3   553 0001:0001F001
   554 0001:0001F007   555 0001:0001F01F   580 0001:0001F040   581 0001:0001F05C
   582 0001:0001F073   602 0001:0001F098   603 0001:0001F0A6   605 0001:0001F0BC
   607 0001:0001F0CF   608 0001:0001F0E3   611 0001:0001F0EB   612 0001:0001F10F
   615 0001:0001F115   622 0001:0001F11C   623 0001:0001F14F   624 0001:0001F159
   626 0001:0001F161   627 0001:0001F177   630 0001:0001F186   631 0001:0001F191
   633 0001:0001F199   634 0001:0001F1B5   635 0001:0001F1BC   637 0001:0001F1E8
   638 0001:0001F1EE   641 0001:0001F1FF   642 0001:0001F20A   644 0001:0001F20F
   647 0001:0001F224   648 0001:0001F22B   650 0001:0001F25C   653 0001:0001F28C
   654 0001:0001F290   655 0001:0001F296   657 0001:0001F2B9   658 0001:0001F2C9
   659 0001:0001F2D2   661 0001:0001F2E4   662 0001:0001F2E8   664 0001:0001F2EC
   665 0001:0001F2F8   666 0001:0001F306   655 0001:0001F30A   669 0001:0001F312
   670 0001:0001F31C   671 0001:0001F320   672 0001:0001F324   674 0001:0001F32B
   675 0001:0001F33D   667 0001:0001F34B   677 0001:0001F351   678 0001:0001F357
   680 0001:0001F38E   682 0001:0001F3B9   685 0001:0001F400   686 0001:0001F40C
   688 0001:0001F419   687 0001:0001F44F   689 0001:0001F466   692 0001:0001F46C
   693 0001:0001F49B   694 0001:0001F4B1   695 0001:0001F4E7   696 0001:0001F4F0
   697 0001:0001F526   699 0001:0001F52F   700 0001:0001F53D   706 0001:0001F570
   707 0001:0001F5B2   708 0001:0001F5BC   709 0001:0001F5C3   711 0001:0001F5D1
   712 0001:0001F5DC   713 0001:0001F5E7   714 0001:0001F5EF   717 0001:0001F5F9
   718 0001:0001F604   719 0001:0001F60F   720 0001:0001F617   723 0001:0001F61F
   724 0001:0001F63A   725 0001:0001F655   726 0001:0001F661   729 0001:0001F66F
   731 0001:0001F675   732 0001:0001F6A4   733 0001:0001F6B1   735 0001:0001F6B6
   737 0001:0001F6BC   738 0001:0001F6EB   739 0001:0001F6F8   742 0001:0001F6FD
   747 0001:0001F738   748 0001:0001F747   749 0001:0001F75C   751 0001:0001F762
   752 0001:0001F773   755 0001:0001F77B   756 0001:0001F789   758 0001:0001F78F
   759 0001:0001F7A4   764 0001:0001F7B8   765 0001:0001F7C7   766 0001:0001F7DC
   768 0001:0001F7E2   769 0001:0001F7F3   772 0001:0001F7FB   773 0001:0001F809
   775 0001:0001F80F   783 0001:0001F818   784 0001:0001F83B   786 0001:0001F850
   787 0001:0001F85B   789 0001:0001F860   791 0001:0001F875   792 0001:0001F880
   794 0001:0001F885   795 0001:0001F889   796 0001:0001F8A6   797 0001:0001F8C3
   798 0001:0001F8DF   799 0001:0001F8E7   801 0001:0001F8FA   802 0001:0001F903
   803 0001:0001F90C   804 0001:0001F927   805 0001:0001F942   806 0001:0001F954
   807 0001:0001F964   799 0001:0001F967   808 0001:0001F96C   809 0001:0001F972
   810 0001:0001F984   818 0001:0001F9C0   819 0001:0001F9E9   821 0001:0001F9F8
   822 0001:0001FA03   823 0001:0001FA0E   826 0001:0001FA18   827 0001:0001FA23
   828 0001:0001FA2E   830 0001:0001FA3B   832 0001:0001FA47   833 0001:0001FA4D
   835 0001:0001FA5F   837 0001:0001FA6A   839 0001:0001FA88   840 0001:0001FA97
   841 0001:0001FAA7   842 0001:0001FAB6   844 0001:0001FAC8   845 0001:0001FAD3
   847 0001:0001FAD8   848 0001:0001FADC   849 0001:0001FAF9   850 0001:0001FB16
   851 0001:0001FB32   852 0001:0001FB3A   854 0001:0001FB4D   855 0001:0001FB56
   856 0001:0001FB5F   857 0001:0001FB67   859 0001:0001FB76   860 0001:0001FB7A
   861 0001:0001FB82   863 0001:0001FB91   864 0001:0001FB95   865 0001:0001FBA7
   866 0001:0001FBB7   852 0001:0001FBBA   867 0001:0001FBBF   868 0001:0001FBC7
   869 0001:0001FBD4   876 0001:0001FC14   877 0001:0001FC4C   878 0001:0001FCA0
   879 0001:0001FCA7   880 0001:0001FCAC   882 0001:0001FCB7   883 0001:0001FCD5
   884 0001:0001FCDB   885 0001:0001FCE6   880 0001:0001FCE9   886 0001:0001FCEF
   887 0001:0001FCFE   889 0001:0001FD0B   890 0001:0001FD33   891 0001:0001FD39
   892 0001:0001FD84   893 0001:0001FD8A   894 0001:0001FDDD   895 0001:0001FDE3
   897 0001:0001FE1A   903 0001:0001FE5C   904 0001:0001FE78   905 0001:0001FE7C
   906 0001:0001FE84   908 0001:0001FEA8   909 0001:0001FEBE   910 0001:0001FECF
   911 0001:0001FED5   912 0001:0001FEE6   913 0001:0001FF04   906 0001:0001FF08
   914 0001:0001FF0F   915 0001:0001FF15   916 0001:0001FF33   926 0001:0001FF5C
   927 0001:0001FF87   928 0001:0001FFDB   929 0001:0001FFF8   930 0001:00020015
   931 0001:0002001D   932 0001:00020025   934 0001:00020034   935 0001:0002003A
   937 0001:0002006E   938 0001:00020096   939 0001:000200AF   940 0001:000200BC
   932 0001:000200BF   941 0001:000200C9   942 0001:000200D4   944 0001:000200E1
   945 0001:00020109   946 0001:0002010F   947 0001:0002015A   948 0001:00020160
   949 0001:000201B3   950 0001:000201B9   951 0001:000201F0   953 0001:00020205
   960 0001:00020258   961 0001:0002028B   962 0001:000202C4   963 0001:000202CE
   965 0001:000202D8   966 0001:000202E8   967 0001:000202F7   968 0001:00020314
   969 0001:00020323   970 0001:00020340   971 0001:0002034A   973 0001:00020350
   976 0001:00020356   977 0001:00020359   974 0001:0002035C   979 0001:00020380
   982 0001:00020386   983 0001:00020389   980 0001:0002038C   985 0001:000203B0
   988 0001:000203BA   995 0001:000203EC   996 0001:000203F7   997 0001:00020401
   998 0001:00020405   999 0001:0002042D  1001 0001:0002045D  1002 0001:00020461
  1003 0001:00020463   998 0001:00020466  1004 0001:0002046B  1007 0001:00020494
  1008 0001:000204A3  1009 0001:000204BB  1010 0001:000204CA  1011 0001:000204DB
  1013 0001:000204EB  1014 0001:000204F9  1017 0001:0002050C  1018 0001:00020535
  1019 0001:00020540  1022 0001:0002054F  1023 0001:0002056D  1020 0001:00020593
  1025 0001:000205A4  1030 0001:000205DC  1031 0001:00020612  1032 0001:0002061C
  1034 0001:00020629  1033 0001:0002065F  1035 0001:00020669  1036 0001:00020670
  1037 0001:000206B6  1038 0001:000206BD  1041 0001:00020719  1042 0001:00020743
  1043 0001:00020788  1045 0001:000207B2  1048 0001:00020823  1056 0001:00020858
  1057 0001:00020884  1058 0001:0002088E  1059 0001:000208A8  1061 0001:000208B3
  1062 0001:000208C0  1063 0001:000208C5  1065 0001:000208CC  1068 0001:000208FA
  1069 0001:0002090A  1070 0001:00020936  1066 0001:0002093A  1073 0001:00020944
  1076 0001:00020973  1077 0001:00020992  1079 0001:0002099F  1080 0001:000209FE
  1083 0001:00020A20  1084 0001:00020A2D  1085 0001:00020A38  1086 0001:00020A57
  1087 0001:00020A70  1088 0001:00020A7F  1089 0001:00020A8C  1092 0001:00020A96
  1093 0001:00020AB6  1090 0001:00020AC6  1095 0001:00020AEA  1097 0001:00020B06
  1104 0001:00020B6C  1105 0001:00020BAB  1106 0001:00020BB5  1108 0001:00020BC2
  1109 0001:00020BE7  1110 0001:00020C1B  1111 0001:00020C4F  1112 0001:00020C62
  1113 0001:00020C64  1114 0001:00020C9A  1115 0001:00020CCE  1116 0001:00020CD9
  1117 0001:00020CF4  1118 0001:00020D29  1119 0001:00020D60  1120 0001:00020D95
  1122 0001:00020DB0  1123 0001:00020DDF  1124 0001:00020DF0  1125 0001:00020DF6
  1126 0001:00020E08  1129 0001:00020E54  1130 0001:00020E77  1132 0001:00020E8F
  1133 0001:00020EA4  1135 0001:00020EB6  1137 0001:00020ECD  1138 0001:00020EDC
  1139 0001:00020EE9  1140 0001:00020EF8  1141 0001:00020F0A  1142 0001:00020F19
  1144 0001:00020F28  1145 0001:00020F36  1151 0001:00020F88  1152 0001:00020FAF
  1153 0001:00020FB9  1154 0001:00020FBD  1155 0001:00020FD6  1156 0001:00020FDC
  1158 0001:00020FE4  1159 0001:0002100F  1160 0001:00021037  1163 0001:0002105F
  1164 0001:00021063  1165 0001:00021065  1159 0001:00021068  1166 0001:0002106D
  1169 0001:000210A0  1170 0001:000210A7  1171 0001:000210AD  1173 0001:000210B7
  1174 0001:000210C1  1179 0001:000210C8  1180 0001:000210D4  1182 0001:000210DA
  1183 0001:000210E0  1185 0001:000210E7  1186 0001:000210EC  1185 0001:000210FA
  1187 0001:00021100  1199 0001:00021104  1200 0001:0002112F  1201 0001:00021139
  1202 0001:00021143  1204 0001:0002114F  1205 0001:00021153  1207 0001:00021158
  1209 0001:0002116D  1210 0001:00021171  1212 0001:00021176  1213 0001:0002117A
  1214 0001:0002117E  1215 0001:00021198  1216 0001:0002119F  1218 0001:000211A5
  1221 0001:000211C3  1225 0001:000211CB  1226 0001:000211D9  1227 0001:000211DD
  1228 0001:000211E1  1229 0001:000211E8  1222 0001:000211EC  1231 0001:0002122A
  1232 0001:00021237  1233 0001:0002124B  1239 0001:00021273  1241 0001:0002127D
  1240 0001:00021281  1242 0001:0002129E  1244 0001:000212A8  1245 0001:000212B4
  1248 0001:000212BC  1250 0001:000212C3  1251 0001:000212D1  1253 0001:000212D9
  1256 0001:000212EE  1258 0001:000212F9  1260 0001:00021300  1261 0001:0002132D
  1262 0001:00021331  1264 0001:00021335  1267 0001:0002135E  1268 0001:0002136E
  1269 0001:00021372  1270 0001:00021379  1272 0001:0002137D  1273 0001:00021383
  1275 0001:0002138D  1276 0001:0002139D  1277 0001:000213AC  1278 0001:000213B0
  1279 0001:000213C4  1273 0001:000213C9  1281 0001:000213D3  1282 0001:000213DB
  1283 0001:000213E2  1285 0001:000213F0  1288 0001:000213F9  1289 0001:000213FF
  1292 0001:00021406  1293 0001:0002140C  1294 0001:0002141C  1300 0001:00021460
  1301 0001:0002146D  1302 0001:00021472  1303 0001:0002147A  1305 0001:00021481
  1306 0001:0002148E  1308 0001:00021494  1309 0001:0002149B  1310 0001:000214A2
  1308 0001:000214A9  1311 0001:000214AF  1313 0001:000214B6  1317 0001:000214BB
  1318 0001:000214C6  1319 0001:000214CC  1320 0001:000214D0  1303 0001:000214D2
  1323 0001:000214D9  1329 0001:000214E4  1330 0001:000214F3  1331 0001:000214FD
  1332 0001:0002150A  1334 0001:00021518  1335 0001:00021523  1336 0001:00021527
  1338 0001:00021531  1339 0001:0002153E  1340 0001:0002154B  1341 0001:00021553
  1342 0001:0002155B  1344 0001:00021561  1345 0001:0002156F  1347 0001:00021575
  1348 0001:00021579  1350 0001:0002157F  1353 0001:00021585  1354 0001:00021591
  1355 0001:000215A0  1358 0001:000215AF  1359 0001:000215BA  1360 0001:000215C5
  1362 0001:000215CB  1363 0001:000215D9  1365 0001:000215DF  1366 0001:000215E3
  1368 0001:000215E9  1371 0001:000215EF  1372 0001:000215FB  1373 0001:0002160A
  1375 0001:00021619  1376 0001:00021622  1377 0001:0002162A  1378 0001:00021637
  1336 0001:0002163A  1380 0001:00021644  1384 0001:0002164C  1385 0001:0002165B
  1386 0001:0002166B  1389 0001:00021670  1390 0001:0002167F  1391 0001:0002168F
  1397 0001:00021694  1398 0001:000216A4  1399 0001:000216CE  1400 0001:000216E7
  1403 0001:000216FF  1404 0001:00021711  1405 0001:00021723  1406 0001:00021732
  1408 0001:0002173C  1409 0001:0002174C  1410 0001:0002175C  1412 0001:0002176B
  1413 0001:00021770  1399 0001:00021774  1415 0001:0002177E  1416 0001:0002178B
  1418 0001:00021795  1419 0001:000217B3  1420 0001:000217C1  1418 0001:000217C5
  1422 0001:000217CD  1423 0001:000217EB  1424 0001:000217F9  1422 0001:000217FD
  1425 0001:00021803  1426 0001:00021808  1432 0001:00021814  1433 0001:0002182D
  1434 0001:00021831  1435 0001:0002183C  1437 0001:0002184F  1438 0001:0002185C
  1439 0001:00021866  1435 0001:00021869  1440 0001:0002186E  1441 0001:0002187B
  1442 0001:0002188D  1443 0001:0002189D  1470 0001:000218A4  1471 0001:000218BD
  1472 0001:000218C5  1473 0001:000218C9  1474 0001:000218D0  1476 0001:000218E9
  1477 0001:000218F3  1478 0001:00021900  1479 0001:0002190F  1480 0001:0002191B
  1481 0001:0002191E  1482 0001:0002192A  1483 0001:0002192D  1484 0001:0002193A
  1474 0001:0002193D  1485 0001:00021942  1486 0001:00021948  1487 0001:00021953
  1498 0001:0002195C  1499 0001:00021968  1500 0001:0002196D  1501 0001:00021971
  1503 0001:00021976  1505 0001:0002197B  1506 0001:00021988  1508 0001:00021994
  1510 0001:000219A6  1511 0001:000219B7  1512 0001:000219BA  1514 0001:000219C0
  1515 0001:000219C3  1517 0001:000219D3  1519 0001:000219E2  1520 0001:000219F1
  1521 0001:000219F4  1524 0001:000219FA  1525 0001:000219FE  1527 0001:00021A0E
  1503 0001:00021A11  1528 0001:00021A1B  1529 0001:00021A21  1534 0001:00021A28
  1535 0001:00021A3B  1536 0001:00021A40  1537 0001:00021A50  1538 0001:00021A63
  1539 0001:00021A7F  1541 0001:00021A92  1542 0001:00021AAA  1544 0001:00021AB0
  1545 0001:00021AB6  1547 0001:00021ABF  1548 0001:00021AC6  1550 0001:00021AC8
  1539 0001:00021ACB  1551 0001:00021AD0  1552 0001:00021AE2  1553 0001:00021AEC
  1551 0001:00021AF6  1554 0001:00021AFB  1555 0001:00021B0D  1556 0001:00021B1A
  1554 0001:00021B24  1557 0001:00021B29  1565 0001:00021B30  1566 0001:00021B4D
  1567 0001:00021B5F  1568 0001:00021B67  1569 0001:00021B6C  1570 0001:00021B96
  1572 0001:00021BAF  1573 0001:00021BB9  1575 0001:00021BC3  1576 0001:00021BD5
  1578 0001:00021BD8  1580 0001:00021BE3  1581 0001:00021BF2  1583 0001:00021BF5
  1570 0001:00021BF8  1584 0001:00021BFD  1585 0001:00021C08  1586 0001:00021C0D
  1588 0001:00021C26  1589 0001:00021C36  1590 0001:00021C39  1591 0001:00021C48
  1592 0001:00021C55  1593 0001:00021C58  1586 0001:00021C5B  1594 0001:00021C60
  1618 0001:00021C68  1619 0001:00021C7A  1620 0001:00021C7E  1621 0001:00021C9D
  1624 0001:00021CB5  1625 0001:00021CBD  1626 0001:00021CC6  1627 0001:00021CD4
  1628 0001:00021CE0  1629 0001:00021CED  1631 0001:00021CF5  1632 0001:00021CFE
  1635 0001:00021D04  1636 0001:00021D0D  1638 0001:00021D11  1639 0001:00021D1C
  1640 0001:00021D22  1643 0001:00021D3A  1644 0001:00021D4B  1645 0001:00021D50
  1644 0001:00021D5E  1646 0001:00021D64  1647 0001:00021D69  1649 0001:00021D71
  1651 0001:00021D77  1654 0001:00021D84  1656 0001:00021D97  1657 0001:00021DA2
  1658 0001:00021DB3  1661 0001:00021DB8  1662 0001:00021DC3  1665 0001:00021DD4
  1647 0001:00021DD7  1668 0001:00021DDF  1669 0001:00021DE5  1671 0001:00021DF5
  1676 0001:00021E00  1677 0001:00021E09  1678 0001:00021E12  1681 0001:00021E1A
  1682 0001:00021E1E  1679 0001:00021E22  1684 0001:00021E36  1689 0001:00021E40
  1690 0001:00021E51  1692 0001:00021E5C  1693 0001:00021E6F  1695 0001:00021E74
  1696 0001:00021E7E  1697 0001:00021E8A  1698 0001:00021E94  1701 0001:00021E9B
  1702 0001:00021EA1  1699 0001:00021EA4  1704 0001:00021EBC  1705 0001:00021ED7
  1706 0001:00021EE4  1707 0001:00021EF7  1706 0001:00021F11  1708 0001:00021F16
  1719 0001:00021F1C  1720 0001:00021F35  1721 0001:00021F46  1723 0001:00021F52
  1724 0001:00021F59  1725 0001:00021F62  1728 0001:00021F6D  1729 0001:00021F78
  1730 0001:00021F83  1729 0001:00021F91  1731 0001:00021F97  1733 0001:00021FA0
  1734 0001:00021FB4  1735 0001:00021FD6  1736 0001:00021FF8  1738 0001:00022008
  1739 0001:0002203B  1740 0001:0002204F  1741 0001:00022063  1742 0001:00022087
  1744 0001:000220AB  1745 0001:000220D2  1751 0001:0002210D  1748 0001:00022112
  1752 0001:00022165  1753 0001:00022179  1754 0001:0002218D  1760 0001:00022198
  1761 0001:000221A4  1763 0001:000221B9  1764 0001:000221C2  1766 0001:000221CE
  1769 0001:000221DA  1770 0001:000221E5  1771 0001:00022206  1772 0001:00022227
  1774 0001:0002222F  1775 0001:00022237  1777 0001:00022240  1780 0001:00022249
  1782 0001:0002225B  1784 0001:00022264  1789 0001:0002226C  1790 0001:0002227D
  1791 0001:0002228E  1792 0001:00022299  1793 0001:000222A7  1799 0001:000222B0
  1800 0001:000222E5  1801 0001:000222EA  1803 0001:000222F2  1804 0001:000222F5
  1806 0001:00022321  1808 0001:00022329  1809 0001:0002232C  1811 0001:00022358
  1812 0001:00022366  1813 0001:00022382  1814 0001:00022395  1815 0001:000223A5
  1818 0001:000223D8  1819 0001:000223FE  1820 0001:00022424  1837 0001:0002244C
  1838 0001:00022487  1839 0001:0002249C  1840 0001:000224B1  1841 0001:000224B6
  1842 0001:000224C3  1844 0001:000224CB  1845 0001:000224CE  1847 0001:000224FA
  1849 0001:00022502  1850 0001:00022505  1852 0001:00022531  1853 0001:0002254F
  1854 0001:0002256B  1855 0001:0002257E  1856 0001:0002258E  1859 0001:000225D8
  1860 0001:000225FE  1861 0001:00022624  1879 0001:0002264C  1880 0001:0002265B
  1881 0001:0002266F  1882 0001:00022678  1883 0001:00022681  1884 0001:0002268C
  1885 0001:00022697  1886 0001:0002269F  1887 0001:000226B6  1889 0001:000226C1
  1890 0001:000226CF  1891 0001:000226D9  1892 0001:000226E1  1895 0001:000226F4
  1896 0001:00022706  1897 0001:00022718  1898 0001:00022720  1899 0001:00022730
  1901 0001:00022738  1902 0001:00022746  1904 0001:00022759  1905 0001:00022771
  1908 0001:00022781  1909 0001:0002278F  1912 0001:000227A0  1920 0001:000227A4
  1921 0001:000227C9  1922 0001:000227EC  1925 0001:00022806  1926 0001:00022810
  1927 0001:0002281B  1928 0001:00022831  1929 0001:00022839  1931 0001:00022853
  1933 0001:0002285C  1934 0001:00022862  1936 0001:00022895  1938 0001:000228AE
  1940 0001:000228BE  1941 0001:000228D5  1942 0001:000228EE  1929 0001:000228F1
  1944 0001:000228FA  1947 0001:0002290C  1946 0001:00022942  1948 0001:00022958
  1949 0001:00022988  1951 0001:000229BE  1952 0001:000229C6  1953 0001:000229D5
  1954 0001:000229DB  1956 0001:000229ED  1964 0001:00022A38  1965 0001:00022A41
  1966 0001:00022A52  1969 0001:00022A5C  1970 0001:00022A65  1971 0001:00022A70
  2012 0001:00022A78  2013 0001:00022A7C  2014 0001:00022A80  2016 0001:00022A8E
  2017 0001:00022AA6  2018 0001:00022AAC  2020 0001:00022ABA  2021 0001:00022ACF
  2023 0001:00022AD5  2025 0001:00022ADC  2026 0001:00022B02  2027 0001:00022B0C
  2028 0001:00022B14  2029 0001:00022B1D  2030 0001:00022B22  2029 0001:00022B30
  2031 0001:00022B36  2033 0001:00022B45  2034 0001:00022B49  2036 0001:00022B4E
  2037 0001:00022B5D  2039 0001:00022B68  2040 0001:00022B74  2041 0001:00022B82
  2042 0001:00022B9F  2043 0001:00022BB8  2044 0001:00022BBE  2046 0001:00022BD1
  2047 0001:00022BDF  2048 0001:00022BE6  2049 0001:00022BEB  2051 0001:00022BF3
  2052 0001:00022BFD  2053 0001:00022C00  2054 0001:00022C0A  2055 0001:00022C1D
  2049 0001:00022C20  2057 0001:00022C28  2058 0001:00022C37  2059 0001:00022C47
  2060 0001:00022C4B  2067 0001:00022C80  2068 0001:00022C8C  2069 0001:00022C96
  2070 0001:00022CA1  2071 0001:00022CB1  2073 0001:00022CC7  2074 0001:00022CD5
  2075 0001:00022CDB  2076 0001:00022CFE  2071 0001:00022D01  2077 0001:00022D06
  2079 0001:00022D0C  2080 0001:00022D23  2081 0001:00022D29  2082 0001:00022D2F
  2084 0001:00022D42  2085 0001:00022D60  2087 0001:00022D6F  2088 0001:00022D80
  2089 0001:00022D82  2084 0001:00022D85  2091 0001:00022D8A  2092 0001:00022D90
  2093 0001:00022D9D  2094 0001:00022DA1  2687 0001:00022DAC  2688 0001:00022DCF

Line numbers for FMTBcd(FMTBcd.pas) segment .itext

  2684 0002:000002E8  2685 0002:000002F4  2686 0002:00000305

Line numbers for MaskUtils(MaskUtils.pas) segment .text

   445 0001:00000000

Line numbers for ComConst(ComConst.pas) segment .text

    37 0001:00000000

Line numbers for ComObj(ComObj.pas) segment .text

  1228 0001:00022F74  1229 0001:00022F80  1230 0001:00022F8B  1233 0001:00022F9A
  1234 0001:00022FB1  1231 0001:00022FBE  1236 0001:00022FD9  1244 0001:00022FE0
  1245 0001:00023012  1246 0001:0002301D  1248 0001:00023023  1249 0001:0002302E
  1251 0001:0002305B  1252 0001:0002306C  1253 0001:00023075  1259 0001:000230BC
  1260 0001:000230EB  1261 0001:0002310B  1262 0001:00023119  1263 0001:00023127
  1269 0001:00023168  1270 0001:0002316F  1271 0001:00023188  1276 0001:0002318C
  1277 0001:00023193  1278 0001:000231A1  1512 0001:000231A4  1513 0001:000231A8
  1514 0001:000231B5  1516 0001:000231BB  1517 0001:000231CE  1518 0001:000231E1
  1519 0001:000231F4  1520 0001:00023207  1521 0001:0002321A  1523 0001:0002322D
  1531 0001:000232C0  1532 0001:000232E3  1533 0001:000232E8  1535 0001:000232FC
  1536 0001:0002330E  1537 0001:00023320  1538 0001:00023332  1540 0001:0002333F
  1542 0001:00023387  1566 0001:000233C4  1567 0001:000233F2  1568 0001:000233F7
  1569 0001:00023405  1570 0001:0002340F  1571 0001:0002342C  1573 0001:00023436
  1574 0001:0002343C  1575 0001:0002344B  1577 0001:00023450  1578 0001:00023454
  1579 0001:00023468  1580 0001:00023477  1582 0001:0002347D  1583 0001:00023486
  1587 0001:00023495  1589 0001:0002349B  1590 0001:000234A8  1592 0001:000234AE
  1593 0001:000234BF  1594 0001:000234CA  1595 0001:000234D3  1599 0001:000234DE
  1600 0001:000234ED  1601 0001:000234F5  1602 0001:000234FE  1604 0001:00023509
  1607 0001:00023511  1609 0001:00023517  1611 0001:00023529  1613 0001:0002353F
  1614 0001:0002354C  1617 0001:0002355C  1619 0001:00023566  1621 0001:00023570
  1623 0001:0002357D  1624 0001:0002358D  1625 0001:00023595  1626 0001:0002359E
  1628 0001:000235A9  1632 0001:000235AE  1633 0001:000235B4  1634 0001:000235BE
  1635 0001:000235CA  1636 0001:000235D6  1637 0001:000235E2  1643 0001:000235E8
  1644 0001:000235F0  1645 0001:000235FB  1647 0001:00023607  1648 0001:0002360B
  1651 0001:00023616  1653 0001:0002361A  1654 0001:0002361D  1656 0001:00023629
  1657 0001:00023632  1658 0001:0002363B  1659 0001:00023641  1660 0001:0002364B
  1661 0001:00023653  1662 0001:0002365C  1664 0001:00023662  1665 0001:00023672
  1666 0001:00023679  1667 0001:00023682  1668 0001:00023686  1670 0001:0002368B
  1671 0001:0002369D  1672 0001:000236A4  1674 0001:000236CF  1675 0001:000236E0
  1676 0001:000236E6  1678 0001:000236EC  1679 0001:000236EF  1680 0001:000236FC
  1676 0001:00023717  1683 0001:0002372A  1684 0001:00023730  1686 0001:00023736
  1687 0001:00023739  1684 0001:00023749  1690 0001:00023757  1698 0001:00023780
  1699 0001:00023786  1700 0001:000237B0  1712 0001:000237B4  1713 0001:000237C3
  1714 0001:000237C9  1716 0001:000237CE  1717 0001:000237D1  1718 0001:000237D4
  1719 0001:000237D5  1720 0001:000237D8  1721 0001:000237DA  1722 0001:000237DD
  1725 0001:000237DF  1726 0001:000237EA  1728 0001:00023803  1729 0001:00023806
  1730 0001:00023808  1731 0001:0002380B  1732 0001:0002380E  1733 0001:00023810
  1734 0001:00023813  1736 0001:00023815  1737 0001:00023834  1738 0001:0002384D
  1739 0001:0002385A  1740 0001:00023861  1741 0001:00023864  1742 0001:00023870
  1744 0001:00023894  1746 0001:000238AE  1748 0001:000238B1  1756 0001:000238B8
  1757 0001:000238BB  1758 0001:000238D2  1763 0001:000238D4  1764 0001:000238DD
  1765 0001:000238FD  1766 0001:00023906  1767 0001:00023911  1768 0001:0002391B
  1769 0001:00023928  1770 0001:0002392F  1772 0001:00023955  1773 0001:00023963
  1774 0001:0002397C  1782 0001:00023980  1783 0001:000239A9  1786 0001:000239B2
  1788 0001:00023A04  1789 0001:00023A0A  1791 0001:00023A1A  1792 0001:00023A31
  1793 0001:00023A37  1795 0001:00023A44  1796 0001:00023A4C  1801 0001:00023A78
  1802 0001:00023A84  1803 0001:00023A95  1806 0001:00023A9C  1807 0001:00023AA3
  1808 0001:00023AB2  1827 0001:00023AB8  1828 0001:00023ABE  1829 0001:00023ABF
  1830 0001:00023AC0  1831 0001:00023AC1  1832 0001:00023AC4  1833 0001:00023AC6
  1834 0001:00023AC8  1835 0001:00023ACC  1836 0001:00023ACF  1837 0001:00023AD1
  1838 0001:00023AD3  1839 0001:00023AD6  1840 0001:00023AD9  1841 0001:00023ADC
  1842 0001:00023ADE  1843 0001:00023AE0  1844 0001:00023AE2  1845 0001:00023AE4
  1846 0001:00023AE6  1847 0001:00023AE8  1848 0001:00023AEA  1849 0001:00023AEC
  1850 0001:00023AEF  1851 0001:00023AF1  1852 0001:00023AF2  1853 0001:00023AF3
  1854 0001:00023AF6  1855 0001:00023AF8  1856 0001:00023AFB  1857 0001:00023AFE
  1858 0001:00023B01  1859 0001:00023B03  1860 0001:00023B06  1861 0001:00023B08
  1862 0001:00023B0A  1863 0001:00023B0F  1864 0001:00023B10  1865 0001:00023B12
  1866 0001:00023B13  1867 0001:00023B14  1868 0001:00023B17  1869 0001:00023B18
  1870 0001:00023B19  1871 0001:00023B1B  1872 0001:00023B1E  1873 0001:00023B21
  1874 0001:00023B25  1875 0001:00023B28  1876 0001:00023B2A  1877 0001:00023B2C
  1878 0001:00023B2F  1879 0001:00023B33  1880 0001:00023B34  1881 0001:00023B36
  1882 0001:00023B39  1883 0001:00023B3C  1884 0001:00023B3E  1885 0001:00023B40
  1886 0001:00023B43  1887 0001:00023B47  1888 0001:00023B49  1889 0001:00023B4D
  1890 0001:00023B4F  1891 0001:00023B54  1892 0001:00023B57  1893 0001:00023B58
  1894 0001:00023B5B  1895 0001:00023B5C  1896 0001:00023B5D  1897 0001:00023B5E
  1898 0001:00023B63  1899 0001:00023B64  1900 0001:00023B65  1901 0001:00023B68
  1902 0001:00023B6B  1903 0001:00023B6C  1904 0001:00023B6D  1905 0001:00023B6E
  1906 0001:00023B73  1907 0001:00023B76  1908 0001:00023B79  1909 0001:00023B7A
  1910 0001:00023B7C  1911 0001:00023B7F  1912 0001:00023B81  1913 0001:00023B83
  1914 0001:00023B86  1915 0001:00023B88  1916 0001:00023B89  1917 0001:00023B8C
  1918 0001:00023B91  1919 0001:00023B93  1920 0001:00023B94  1921 0001:00023B95
  1922 0001:00023B96  1926 0001:00023B9C  1927 0001:00023B9F  1928 0001:00023BA0
  1929 0001:00023BA3  1930 0001:00023BA5  1931 0001:00023BA6  1932 0001:00023BA7
  1933 0001:00023BA8  1934 0001:00023BA9  1935 0001:00023BAB  1936 0001:00023BAC
  1937 0001:00023BAF  1938 0001:00023BB0  1939 0001:00023BB1  1940 0001:00023BB3
  1941 0001:00023BB6  1942 0001:00023BB7  1943 0001:00023BBA  1944 0001:00023BBF
  1945 0001:00023BC3  1946 0001:00023BC6  1949 0001:00023BCD  1950 0001:00023BD1
  1951 0001:00023BD5  1952 0001:00023BD9  1953 0001:00023BDD  1954 0001:00023BE1
  1955 0001:00023BE5  1956 0001:00023BE9  1957 0001:00023BED  1958 0001:00023BF1
  1959 0001:00023BF5  1960 0001:00023BF9  1961 0001:00023BFD  1962 0001:00023C01
  1963 0001:00023C05  1964 0001:00023C09  1965 0001:00023C0D  1968 0001:00023C11
  1969 0001:00023C15  1973 0001:00023C17  1974 0001:00023C1B  1977 0001:00023C1D
  1978 0001:00023C21  1981 0001:00023C23  1982 0001:00023C25  1983 0001:00023C27
  1984 0001:00023C29  1985 0001:00023C2A  1986 0001:00023C2F  1987 0001:00023C33
  1988 0001:00023C35  1992 0001:00023C37  1993 0001:00023C39  1994 0001:00023C3B
  1995 0001:00023C3D  1996 0001:00023C3E  1997 0001:00023C40  1998 0001:00023C43
  1999 0001:00023C47  2000 0001:00023C49  2003 0001:00023C4B  2004 0001:00023C4D
  2005 0001:00023C52  2006 0001:00023C55  2007 0001:00023C57  2008 0001:00023C5B
  2009 0001:00023C5E  2010 0001:00023C62  2011 0001:00023C65  2012 0001:00023C69
  2013 0001:00023C6C  2019 0001:00023C6E  2026 0001:00023C72  2027 0001:00023C75
  2028 0001:00023C76  2094 0001:00023C78  2095 0001:00023C7E  2096 0001:00023C8D
  2098 0001:00023C9F  2099 0001:00023CC0  2104 0001:00023CEC  2105 0001:00023D06
  2124 0001:00023D0C  2125 0001:00023D25  2126 0001:00023D2C  2127 0001:00023D36
  2128 0001:00023D3F  2129 0001:00023D48  2130 0001:00023D51  2133 0001:00023D5F

Line numbers for ComObj(ComObj.pas) segment .itext

  2108 0002:00000308  2110 0002:00000314  2111 0002:00000319  2112 0002:00000326
  2114 0002:00000331  2116 0002:0000033E  2118 0002:00000348  2119 0002:00000354
  2123 0002:0000035F

Line numbers for DB(DB.pas) segment .text

 11536 0001:000241A4 11537 0001:000241AD 11538 0001:000241B6 11541 0001:000241C0
 11542 0001:000241CC 11543 0001:000241DA 11546 0001:000241E0 11548 0001:000241E7
 11551 0001:000241EC 11552 0001:000241F8 11553 0001:00024201 11556 0001:00024208
 11557 0001:00024214 11558 0001:00024222

Line numbers for DB(DB.pas) segment .itext

 11560 0002:00000364 11561 0002:0000037E 11562 0002:000003A2 11563 0002:000003B7

Line numbers for DBCommon(DBCommon.pas) segment .text

  2255 0001:00000000

Line numbers for MidConst(MidConst.pas) segment .text

   117 0001:00000000

Line numbers for DSIntf(DSIntf.pas) segment .text

  1278 0001:00024284  1283 0001:000242B1  1284 0001:000242BB

Line numbers for DSIntf(DSIntf.pas) segment .itext

  1274 0002:000003F0  1275 0002:000003FC  1276 0002:00000406

Line numbers for DBXpress(DBXpress.pas) segment .text

   633 0001:00000000

Line numbers for SyncObjs(SyncObjs.pas) segment .text

   201 0001:00024D44   202 0001:00024D4B   205 0001:00024D50   206 0001:00024D57
   334 0001:00024D5C   335 0001:00024D74   336 0001:00024D7E   337 0001:00024D8A
   340 0001:00024DAC   341 0001:00024DBD   342 0001:00024DC9   343 0001:00024DD7
   346 0001:00024DEC   347 0001:00024DF3   348 0001:00024DFF   351 0001:00024E04
   352 0001:00024E0B   353 0001:00024E17   419 0001:00024E1A

Line numbers for IniFiles(IniFiles.pas) segment .itext

   958 0002:0000043C

Line numbers for Registry(Registry.pas) segment .text

   166 0001:00024F44   167 0001:00024F4D   168 0001:00024F74   171 0001:00024F78
   172 0001:00024F81   173 0001:00024F98   188 0001:00024FA0   189 0001:00024FA9
   190 0001:00024FB5   191 0001:00024FC1   192 0001:00024FCD   193 0001:00024FD9
   194 0001:00024FDD   197 0001:00024FE4   198 0001:00024FFC   199 0001:00025009
   200 0001:00025013   201 0001:0002501A   204 0001:0002503C   205 0001:00025057
   206 0001:00025061   207 0001:0002506A   210 0001:0002508C   211 0001:0002509D
   212 0001:000250A5   213 0001:000250B3   216 0001:000250C8   217 0001:000250CF
   219 0001:000250D8   220 0001:000250E1   221 0001:000250ED   222 0001:000250F9
   223 0001:00025101   225 0001:0002510C   228 0001:00025110   229 0001:0002511C
   231 0001:00025127   233 0001:00025130   234 0001:0002513C   236 0001:00025143
   237 0001:0002514C   239 0001:00025154   242 0001:00025158   243 0001:00025167
   244 0001:0002516F   245 0001:00025178   246 0001:00025186   249 0001:0002518C
   250 0001:00025198   251 0001:000251A7   252 0001:000251B2   253 0001:000251BB
   283 0001:000251C4   284 0001:000251E7   285 0001:000251F2   287 0001:000251FD
   288 0001:00025215   289 0001:0002521A   291 0001:00025226   294 0001:00025255
   296 0001:0002528C   298 0001:00025292   299 0001:000252BC   301 0001:000252CA
   444 0001:000252FC   445 0001:0002530B   446 0001:0002531A   448 0001:00025344
   449 0001:00025351   454 0001:00025358   455 0001:00025364   456 0001:00025376
   457 0001:0002537E   458 0001:00025385   483 0001:0002538C   484 0001:0002539B
   485 0001:000253A9   487 0001:000253AF   488 0001:000253BC   489 0001:000253DB
   490 0001:000253E7   491 0001:00025402   493 0001:0002540C   494 0001:00025414
   620 0001:00025418   621 0001:00025427   622 0001:0002542C   624 0001:00025453
   625 0001:0002547A   626 0001:00025480   627 0001:0002548D   639 0001:00025498
   640 0001:000254A4   641 0001:000254B5

Line numbers for Registry(Registry.pas) segment .itext

  1499 0002:00000444

Line numbers for SqlConst(SqlConst.pas) segment .text

   198 0001:00000000

Line numbers for DBConnAdmin(dbconnadmin.pas) segment .text

   279 0001:00000000

Line numbers for SqlExpr(SqlExpr.pas) segment .text

  1943 0001:0003580C  1944 0001:0003583D  1945 0001:0003584B  1948 0001:00035888
  1949 0001:00035899  1950 0001:000358A4  1951 0001:000358B2  1954 0001:000358C4
  1955 0001:000358CD  1956 0001:000358DD  1959 0001:000358E8  1960 0001:000358F7
  1961 0001:00035913  1964 0001:00035920  1965 0001:00035929  1966 0001:00035939
  1971 0001:00035944  1972 0001:00035963  1973 0001:0003597C  1974 0001:00035982
  1976 0001:00035998  1977 0001:0003599F  1982 0001:000359C4  1983 0001:000359E3
  1984 0001:000359FC  1985 0001:00035A02  1987 0001:00035A18  1988 0001:00035A1F
  1991 0001:00035A44  1992 0001:00035A53  1993 0001:00035A6B  1997 0001:00035A74
  1998 0001:00035A83  1999 0001:00035AA0  2003 0001:00035AA8  2004 0001:00035AB7
  2005 0001:00035AD8  2011 0001:00035AE4  2012 0001:00035AF3  2013 0001:00035B01
  2014 0001:00035B16  2015 0001:00035B40  2016 0001:00035B59  2019 0001:00035B64
  2020 0001:00035B70  2021 0001:00035B84  2024 0001:00035B8C  2025 0001:00035B98
  2026 0001:00035BAC  2029 0001:00035BB4  2030 0001:00035BC0  2031 0001:00035BD4
  2034 0001:00035BDC  2035 0001:00035BE8  2036 0001:00035BFC  2039 0001:00035C04
  2040 0001:00035C10  2041 0001:00035C24  2047 0001:00035C2C  2048 0001:00035C38
  2049 0001:00035C3D  2050 0001:00035C45  2051 0001:00035C59  2053 0001:00035C67
  2054 0001:00035C76  2056 0001:00035C8A  2057 0001:00035C91  2058 0001:00035C9C
  2059 0001:00035CA2  2060 0001:00035CAA  2063 0001:00035CB4  2064 0001:00035CBD
  2065 0001:00035CC5  2205 0001:00035CCC  2206 0001:00035CDD  2207 0001:00035CE6
  2208 0001:00035CF1  2209 0001:00035CFF  2214 0001:00035D14  2215 0001:00035D45
  2216 0001:00035D53  2219 0001:00035D90  2220 0001:00035DA1  2221 0001:00035DAC
  2222 0001:00035DBA  2227 0001:00035DCC  2228 0001:00035DDB  2229 0001:00035DF3
  2234 0001:00035DFC  2235 0001:00035E0B  2236 0001:00035E28  2241 0001:00035E30
  2242 0001:00035E3F  2243 0001:00035E60  2249 0001:00035E6C  2250 0001:00035E7B
  2251 0001:00035E8B  2252 0001:00035EA0  2253 0001:00035ECA  2254 0001:00035EE3
  2267 0001:00035EEC  2268 0001:00035EFD  2270 0001:00035F39  2274 0001:00035F44
  2275 0001:00035F55  2276 0001:00035F7B  2279 0001:00035F88  2280 0001:00035F98
  2281 0001:00035FB1  2286 0001:00035FBC  2287 0001:00035FDB  2288 0001:00035FEF
  2289 0001:00035FF5  2291 0001:0003600B  2292 0001:00036012  2297 0001:00036038
  2298 0001:0003605B  2299 0001:00036073  2300 0001:00036079  2302 0001:0003608F
  2303 0001:00036096  2308 0001:000360BC  2309 0001:000360DB  2310 0001:000360EF
  2311 0001:000360F5  2313 0001:0003610B  2314 0001:00036112  2317 0001:00036138
  2318 0001:00036144  2319 0001:00036158  2322 0001:00036160  2323 0001:00036169
  2324 0001:00036179  2327 0001:00036184  2328 0001:00036190  2329 0001:000361A4
  2332 0001:000361AC  2333 0001:000361B8  2334 0001:000361CC  2340 0001:000361D4
  2341 0001:000361E0  2342 0001:000361E5  2343 0001:000361ED  2344 0001:00036201
  2346 0001:0003620F  2347 0001:0003621E  2349 0001:00036232  2350 0001:00036239
  2351 0001:00036244  2352 0001:0003624A  2353 0001:00036252  2506 0001:0003625C
  2507 0001:0003628D  2508 0001:0003629B  2511 0001:000362D8  2512 0001:000362E9
  2513 0001:000362F4  2514 0001:00036302  2518 0001:00036314  2519 0001:00036323
  2520 0001:0003633B  2524 0001:00036344  2525 0001:00036353  2526 0001:00036370
  2530 0001:00036378  2531 0001:00036387  2532 0001:000363A8  2538 0001:000363B4
  2539 0001:000363C3  2540 0001:000363D3  2541 0001:000363E8  2542 0001:00036412
  2543 0001:0003642B  2549 0001:00036434  2550 0001:00036448  2551 0001:00036453
  2553 0001:00036474  2555 0001:00036489  2556 0001:00036491  2559 0001:00036498
  2560 0001:000364A4  2561 0001:000364B8  2564 0001:000364C0  2565 0001:000364CC
  2566 0001:000364E0  2572 0001:000364E8  2573 0001:000364F4  2574 0001:000364F9
  2575 0001:00036501  2576 0001:00036515  2578 0001:00036523  2579 0001:00036532
  2581 0001:00036546  2582 0001:0003654D  2583 0001:00036558  2584 0001:0003655E
  2585 0001:00036566  2588 0001:00036570  2589 0001:0003657C  2590 0001:00036590
  2595 0001:00036598  2596 0001:000365A8  2597 0001:000365C1  2600 0001:000365CC
  2601 0001:000365DC  2602 0001:000365F5  2607 0001:00036600  2608 0001:00036613
  2609 0001:00036630  2611 0001:00036645  2612 0001:0003664D  2616 0001:00036654
  2617 0001:00036664  2618 0001:00036681  2621 0001:0003668C  2622 0001:0003669C
  2623 0001:000366B5  2627 0001:000366C0  2628 0001:000366D0  2629 0001:000366E9
  2632 0001:000366F4  2633 0001:00036704  2634 0001:0003671D  2637 0001:00036728
  2638 0001:00036738  2639 0001:00036751  2642 0001:0003675C  2643 0001:0003676C
  2644 0001:00036785  2647 0001:00036790  2648 0001:000367A0  2649 0001:000367B9
  2652 0001:000367C4  2653 0001:000367D4  2654 0001:000367ED  2657 0001:000367F8
  2658 0001:00036808  2659 0001:00036821  2662 0001:0003682C  2663 0001:00036835
  2664 0001:00036845  2668 0001:00036850  2669 0001:00036860  2670 0001:0003687D
  2674 0001:00036888  2675 0001:00036898  2676 0001:000368B5  2680 0001:000368C0
  2681 0001:000368D0  2682 0001:000368ED  2686 0001:000368F8  2687 0001:00036908
  2688 0001:00036925  2692 0001:00036930  2693 0001:00036940  2694 0001:0003695D
  2698 0001:00036968  2699 0001:00036978  2700 0001:00036995  2704 0001:000369A0
  2705 0001:000369B0  2706 0001:000369CD  2710 0001:000369D8  2711 0001:000369E8
  2712 0001:00036A05  2716 0001:00036A10  2717 0001:00036A20  2718 0001:00036A3D
  2722 0001:00036A48  2723 0001:00036A58  2724 0001:00036A75  2728 0001:00036A80
  2729 0001:00036A90  2730 0001:00036AAD  2734 0001:00036AB8  2735 0001:00036AC8
  2736 0001:00036AE5  2740 0001:00036AF0  2741 0001:00036B00  2742 0001:00036B24
  2997 0001:00036B30  2998 0001:00036B61  2999 0001:00036B6F  3002 0001:00036BAC
  3003 0001:00036BBD  3004 0001:00036BC8  3005 0001:00036BD6  3009 0001:00036BE8
  3010 0001:00036BF7  3011 0001:00036C0F  3015 0001:00036C18  3016 0001:00036C27
  3017 0001:00036C44  3021 0001:00036C4C  3022 0001:00036C5B  3023 0001:00036C7C
  3029 0001:00036C88  3030 0001:00036C97  3031 0001:00036CA7  3032 0001:00036CBC
  3033 0001:00036CE6  3034 0001:00036CFF  3040 0001:00036D08  3041 0001:00036D2B
  3042 0001:00036D48  3043 0001:00036D4E  3045 0001:00036D64  3046 0001:00036D6B
  3052 0001:00036D94  3053 0001:00036DB7  3054 0001:00036DD8  3055 0001:00036DDE
  3057 0001:00036DF4  3058 0001:00036DFB  3064 0001:00036E24  3065 0001:00036E47
  3066 0001:00036E68  3067 0001:00036E6E  3069 0001:00036E84  3070 0001:00036E8B
  3076 0001:00036EB4  3077 0001:00036ED7  3078 0001:00036EFC  3079 0001:00036F02
  3081 0001:00036F18  3082 0001:00036F1F  3088 0001:00036F48  3089 0001:00036F6B
  3090 0001:00036F8C  3091 0001:00036F92  3093 0001:00036FA8  3094 0001:00036FAF
  3100 0001:00036FD8  3101 0001:00036FFB  3102 0001:0003701C  3103 0001:00037022
  3105 0001:00037038  3106 0001:0003703F  3109 0001:00037068  3110 0001:00037074
  3111 0001:00037088  3114 0001:00037090  3115 0001:0003709C  3116 0001:000370B0
  3122 0001:000370B8  3123 0001:000370C4  3124 0001:000370C9  3125 0001:000370D1
  3126 0001:000370E5  3128 0001:000370F3  3129 0001:00037102  3131 0001:00037116
  3132 0001:0003711D  3133 0001:00037128  3134 0001:0003712E  3135 0001:00037136
  3299 0001:00037140  3300 0001:00037149  3301 0001:00037154  3304 0001:0003715C
  3305 0001:00037168  3306 0001:0003717B  3309 0001:00037180  3310 0001:00037189
  3311 0001:00037197  3314 0001:000371A0  3315 0001:000371A9  3316 0001:000371B7
  3319 0001:000371C0  3320 0001:000371C9  3321 0001:000371D7  3324 0001:000371E0
  3325 0001:000371E9  3326 0001:000371F7  3329 0001:00037200  3330 0001:00037209
  3331 0001:00037217  3334 0001:00037220  3335 0001:00037229  3336 0001:00037235
  3339 0001:0003723C  3340 0001:00037245  3341 0001:00037253  3344 0001:0003725C
  3345 0001:00037265  3346 0001:00037271  3349 0001:00037278  3350 0001:00037281
  3351 0001:0003728D  3354 0001:00037294  3355 0001:0003729D  3356 0001:000372AB
  3359 0001:000372B4  3360 0001:000372C1  3361 0001:000372CC  3364 0001:000372D0
  3365 0001:000372F2  3366 0001:0003730C  3369 0001:00037330  3370 0001:0003733D
  3371 0001:0003734B  3374 0001:00037350  3375 0001:0003735D  3376 0001:0003736B
  3379 0001:00037370  3380 0001:0003737D  3381 0001:0003738B  3384 0001:00037390
  3385 0001:0003739D  3386 0001:000373AB  3389 0001:000373B0  3390 0001:000373BD
  3391 0001:000373CB  3394 0001:000373D0  3395 0001:000373DC  3396 0001:000373E8
  3399 0001:000373EC  3400 0001:000373F9  3401 0001:00037407  3404 0001:0003740C
  3405 0001:00037418  3406 0001:00037424  3409 0001:00037428  3410 0001:00037434
  3411 0001:00037440  3414 0001:00037444  3415 0001:00037451  3416 0001:0003745F
  8141 0001:0003749C  8142 0001:000374A3  8143 0001:000374B1  8144 0001:000374C0

Line numbers for SqlExpr(SqlExpr.pas) segment .itext

  8147 0002:0000049C

Bound resource files

dbxoodbc.res
C:\TEMP\dtf31B.tmp


Program entry point at 0002:00000528
